(lp0
(dp1
S'unittitle'
p2
S'1987 Graduate Education'
p3
sS'dao'
p4
Vhttp://hdl.handle.net/2027.42/88530
p5
sS'physfacet'
p6
V.PDF file
p7
sS'unitdate'
p8
V1987
p9
sa(dp10
g2
S'1988 Introduction to MLK Event'
p11
sg4
Vhttp://hdl.handle.net/2027.42/88641
p12
sg6
V.PDF file
p13
sg8
V1988
p14
sa(dp15
g2
S'1996 University of Michigan Milestones'
p16
sg4
Vhttp://hdl.handle.net/2027.42/88753
p17
sg6
V.PDF file
p18
sg8
V1996
p19
sa(dp20
g2
S'21st Century Engineering'
p21
sg4
Vhttp://hdl.handle.net/2027.42/88864
p22
sg6
V.PDF file
p23
sg8
V2006
p24
sa(dp25
g2
S'21st Century Engineering'
p26
sg4
Vhttp://hdl.handle.net/2027.42/88975
p27
sg6
V.PDF file
p28
sg8
V2007
p29
sa(dp30
g2
S'21st Century Engineering: A Roadmap to the Future'
p31
sg4
Vhttp://hdl.handle.net/2027.42/89087
p32
sg6
V.PDF file
p33
sg8
V2006
p34
sa(dp35
g2
S'A 21st Century Learn-Grant Act for a Society of Learning'
p36
sg4
Vhttp://hdl.handle.net/2027.42/89198
p37
sg6
V.PDF file
p38
sg8
V2000-03
p39
sa(dp40
g2
S'A Case Study in University Transformation, Positioning the University of Michigan for the New Millennium'
p41
sg4
Vhttp://hdl.handle.net/2027.42/89309
p42
sg6
V.PDF file
p43
sg8
V1999-06
p44
sa(dp45
g2
S'A Case Study: France'
p46
sg4
Vhttp://hdl.handle.net/2027.42/88217
p47
sg6
V.PDF file
p48
sg8
V2004
p49
sa(dp50
g2
S'A Challenge to the Yale Class of 1964: \xe2\x80\xa8Securing Educational Opportunities for Future Generations'
p51
sg4
Vhttp://hdl.handle.net/2027.42/115478
p52
sg6
V.PDF file
p53
sg8
V2013-09-09
p54
sa(dp55
g2
S'A China Odyssey'
p56
sg4
Vhttp://hdl.handle.net/2027.42/88439
p57
sg6
V.PDF file
p58
sg8
V1997
p59
sa(dp60
g2
S'A Comparison of Projection operator formalisms for the study of self-diffusion'
p61
sg4
Vhttp://hdl.handle.net/2027.42/88453
p62
sg6
V.PDF file
p63
sg8
V1973-04-18
p64
sa(dp65
g2
S'A Federal-State Compact to Review the Great Lakes Region'
p66
sg4
Vhttp://hdl.handle.net/2027.42/88464
p67
sg6
V.PDF file
p68
sg8
V2006
p69
sa(dp70
g2
S'A Framing Paper for Research University Study'
p71
sg4
Vhttp://hdl.handle.net/2027.42/115480
p72
sg6
V.PDF file
p73
sg8
V2013-09-20
p74
sa(dp75
g2
S'A Free Lunch for the North Campus Deans'
p76
sg4
Vhttp://hdl.handle.net/2027.42/88475
p77
sg6
V.PDF file
p78
sg8
V2002
p79
sa(dp80
g2
S'A Growing Season: A Report from the President'
p81
sg4
Vhttp://hdl.handle.net/2027.42/79497
p82
sg6
V.PDF file
p83
sg8
V1996
p84
sa(dp85
g2
S'A Half-Century of Technological Change'
p86
sg4
Vhttp://hdl.handle.net/2027.42/115479
p87
sg6
V.PDF file
p88
sg8
V2013-09-09
p89
sa(dp90
g2
S'A Master Plan for Higher Education in the Midwest'
p91
sg4
Vhttp://hdl.handle.net/2027.42/88486
p92
sg6
V.PDF file
p93
sg8
V2010
p94
sa(dp95
g2
S'A Michigan Education - Presidential Societies Weekend'
p96
sg4
Vhttp://hdl.handle.net/2027.42/79512
p97
sg6
V.PDF file
p98
sg8
V1991
p99
sa(dp100
g2
S'A Mission for the 21st Century: Building Leadership for Tomorrow on a Foundation of Academic Excellence'
p101
sg4
Vhttp://hdl.handle.net/2027.42/79534
p102
sg6
V.PDF file
p103
sg8
V1986
p104
sa(dp105
g2
S'A NAS-NAE-IOE GUIRR Study'
p106
sg4
Vhttp://hdl.handle.net/2027.42/88497
p107
sg6
V.PDF file
p108
sg8
V2003-04-17
p109
sa(dp110
g2
S"A National Energy Research Network - A Step Toward America's Sustainability"
p111
sg4
Vhttp://hdl.handle.net/2027.42/88508
p112
sg6
V.PDF file
p113
sg8
V2008
p114
sa(dp115
g2
S'A New Program in Science, Technology, and Public Policy'
p116
sg4
Vhttp://hdl.handle.net/2027.42/88519
p117
sg6
V.PDF file
p118
sg8
V2005
p119
sa(dp120
g2
S'A New Program in Science, Technology, and Public Policy'
p121
sg4
Vhttp://hdl.handle.net/2027.42/88531
p122
sg6
V.PDF file
p123
sg8
V2007
p124
sa(dp125
g2
S'A Photographic History of UM Engineering'
p126
sg4
Vhttp://hdl.handle.net/2027.42/88542
p127
sg6
V.PDF file
p128
sg8
V2003
p129
sa(dp130
g2
S'A Pre-Proposal - Summer Faculty Careers Institute for Ph.D. students, Postdoctoral Fellows, and Junior Faculty'
p131
sg4
Vhttp://hdl.handle.net/2027.42/88553
p132
sg6
V.PDF file
p133
sg8
V2003-01-14
p134
sa(dp135
g2
S'A Pre-Proposal - Summer Faculty Careers Institute for Ph.D. students, Postdoctoral Fellows, and Junior Faculty'
p136
sg4
Vhttp://hdl.handle.net/2027.42/88564
p137
sg6
V.PDF file
p138
sg8
V2003-01-17
p139
sa(dp140
g2
S'A Pre-proposal for a Planning Grant'
p141
sg4
Vhttp://hdl.handle.net/2027.42/88575
p142
sg6
V.PDF file
p143
sg8
V2001-08-06
p144
sa(dp145
g2
S'A Project of Possible Interest to NSF'
p146
sg4
Vhttp://hdl.handle.net/2027.42/88586
p147
sg6
V.PDF file
p148
sg8
V2000
p149
sa(dp150
g2
S'A Proposal for Establishing The Phoenix Memorial Energy Institute of the University of Michigan'
p151
sg4
Vhttp://hdl.handle.net/2027.42/88597
p152
sg6
V.PDF file
p153
sg8
V2006-06-01
p154
sa(dp155
g2
S'A Proposal for Establishing The Phoenix Memorial Energy Institute of the University of Michigan (Poster)'
p156
sg4
Vhttp://hdl.handle.net/2027.42/88608
p157
sg6
V.PDF file
p158
sg8
V2006-06-01
p159
sa(dp160
g2
S'A Proposal to Assess the Capacity of the U.S. Engineering Research Enterprised to Meet the Future Needs of the Nation'
p161
sg4
Vhttp://hdl.handle.net/2027.42/88619
p162
sg6
V.PDF file
p163
sg8
V2004
p164
sa(dp165
g2
S'A Proposal to Establish a Center of Scholarly Excellence in Advanced Electronics and Optics Technology'
p166
sg4
Vhttp://hdl.handle.net/2027.42/79498
p167
sg6
V.PDF file
p168
sg8
V1985
p169
sa(dp170
g2
S'A Proposal to Establish a Center of Scholarly Excellence in Complex Manufacturing Technology'
p171
sg4
Vhttp://hdl.handle.net/2027.42/79560
p172
sg6
V.PDF file
p173
sg8
V1985
p174
sa(dp175
g2
S'A Proposal to Establish a Center of Scholarly Excellence in Machine Intelligence Technology'
p176
sg4
Vhttp://hdl.handle.net/2027.42/79491
p177
sg6
V.PDF file
p178
sg8
V1985
p179
sa(dp180
g2
S'A Proposal to Establish a Michigan Higher Education Policy Institute'
p181
sg4
Vhttp://hdl.handle.net/2027.42/88630
p182
sg6
V.PDF file
p183
sg8
V2002
p184
sa(dp185
g2
S'A Proposal to Support the Computer-Aided Engineering Network'
p186
sg4
Vhttp://hdl.handle.net/2027.42/79527
p187
sg6
V.PDF file
p188
sg8
V1984
p189
sa(dp190
g2
S'A Proposal to the NSF for a Small Grant for Exploratory Research (SGER) to Develop a Undergraduate Minor Concentration in Nuclear Fission Power Engineering'
p191
sg4
Vhttp://hdl.handle.net/2027.42/88643
p192
sg6
V.PDF file
p193
sg8
V2001
p194
sa(dp195
g2
S'A Proposed Study of the Changing Nature of the American Research University Ecosystem'
p196
sg4
Vhttp://hdl.handle.net/2027.42/88676
p197
sg6
V.PDF file
p198
sg8
V2009
p199
sa(dp200
g2
S'A Proposed Study of the Changing Nature of the American Research University Ecosystem (1)'
p201
sg4
Vhttp://hdl.handle.net/2027.42/88654
p202
sg6
V.PDF file
p203
sg8
V2008
p204
sa(dp205
g2
S'A Proposed Study of the Changing Nature of the American Research University Ecosystem (2)'
p206
sg4
Vhttp://hdl.handle.net/2027.42/88665
p207
sg6
V.PDF file
p208
sg8
V2008
p209
sa(dp210
g2
S'A Report from the President'
p211
sg4
Vhttp://hdl.handle.net/2027.42/79495
p212
sg6
V.PDF file
p213
sg8
V1995
p214
sa(dp215
g2
S'A Roadmap to 21st Century Engineering'
p216
sg4
Vhttp://hdl.handle.net/2027.42/88687
p217
sg6
V.PDF file
p218
sg8
V2007
p219
sa(dp220
g2
S"A Roadmap to Michigan's Future"
p221
sg4
Vhttp://hdl.handle.net/2027.42/88698
p222
sg6
V.PDF file
p223
sg8
V2005
p224
sa(dp225
g2
S"A Roadmap to Michigan's Future"
p226
sg4
Vhttp://hdl.handle.net/2027.42/88731
p227
sg6
V.PDF file
p228
sg8
V2009
p229
sa(dp230
g2
S"A Roadmap to Michigan's Future (2)"
p231
sg4
Vhttp://hdl.handle.net/2027.42/88709
p232
sg6
V.PDF file
p233
sg8
V2005
p234
sa(dp235
g2
S"A Roadmap to Michigan's Future (Presentation)"
p236
sg4
Vhttp://hdl.handle.net/2027.42/88720
p237
sg6
V.PDF file
p238
sg8
V2007
p239
sa(dp240
g2
S"A Roadmap to Michigan's Future: Meeting the Challenge of a Global Knowledge-Driven Economy"
p241
sg4
Vhttp://hdl.handle.net/2027.42/88742
p242
sg6
V.PDF file
p243
sg8
V2005-09
p244
sa(dp245
g2
S'A Society of Learning: A Vision for the Future of the University in the New Millennium (1.2)'
p246
sg4
Vhttp://hdl.handle.net/2027.42/88776
p247
sg6
V.PDF file
p248
sg8
V1999-11-30
p249
sa(dp250
g2
S'A Society of Learning: A Vision for the Future of the University in the New Millennium (1.3)'
p251
sg4
Vhttp://hdl.handle.net/2027.42/88754
p252
sg6
V.PDF file
p253
sg8
V1999-11-30
p254
sa(dp255
g2
S'A Society of Learning: A Vision for the Future of the University in the New Millennium (2)'
p256
sg4
Vhttp://hdl.handle.net/2027.42/88765
p257
sg6
V.PDF file
p258
sg8
V1999-11-30
p259
sa(dp260
g2
S'A Society of Learning: A Vision for the Future of the University in the New Millennium (UGA)'
p261
sg4
Vhttp://hdl.handle.net/2027.42/88787
p262
sg6
V.PDF file
p263
sg8
V2000-01-14
p264
sa(dp265
g2
S'A Special Report on Development From the College of Engineering at University of Michigan'
p266
sg4
Vhttp://hdl.handle.net/2027.42/79505
p267
sg6
V.PDF file
p268
sg8
V1983
p269
sa(dp270
g2
S'A Status Report from the Quality Subcommittee National Commission on the Future of Higher Education'
p271
sg4
Vhttp://hdl.handle.net/2027.42/88798
p272
sg6
V.PDF file
p273
sg8
V2006-02-02
p274
sa(dp275
g2
S'A Strategy for Our Future'
p276
sg4
Vhttp://hdl.handle.net/2027.42/79499
p277
sg6
V.PDF file
p278
sg8
V1996
p279
sa(dp280
g2
S'A Study in Contrasts: Postsecondary Education in Michigan and Ontario'
p281
sg4
Vhttp://hdl.handle.net/2027.42/88820
p282
sg6
V.PDF file
p283
sg8
V1997-11-19
p284
sa(dp285
g2
S'A Study in Contrasts: Postsecondary Education in Michigan and Ontario (1.3)'
p286
sg4
Vhttp://hdl.handle.net/2027.42/88809
p287
sg6
V.PDF file
p288
sg8
V1997-11-19
p289
sa(dp290
g2
S'A Study in Contrasts: Postsecondary Education in Michigan and Ontario (U Toronto)'
p291
sg4
Vhttp://hdl.handle.net/2027.42/88831
p292
sg6
V.PDF file
p293
sg8
V1997-11-19
p294
sa(dp295
g2
S'A Tale of Two Futures - The Future of the University in an Age of Knowledge'
p296
sg4
Vhttp://hdl.handle.net/2027.42/88842
p297
sg6
V.PDF file
p298
sg8
V1999
p299
sa(dp300
g2
S'A Test of Leadership - Charting the Future of U.S. Higher Education'
p301
sg4
Vhttp://hdl.handle.net/2027.42/88853
p302
sg6
V.PDF file
p303
sg8
V2006-09
p304
sa(dp305
g2
S'A Test of Leadership: charting the future of U.S. Higher education'
p306
sg4
Vhttp://hdl.handle.net/2027.42/88865
p307
sg6
V.PDF file
p308
sg8
V2006-08-09
p309
sa(dp310
g2
S'A Tour of the "I Culture": Digital Gadgets and Gizmos'
p311
sg4
Vhttp://hdl.handle.net/2027.42/88876
p312
sg6
V.PDF file
p313
sg8
V2002-10-25
p314
sa(dp315
g2
S"A Unique Opportunity for Michigan's Future: An Investment in Engineering Excellence"
p316
sg4
Vhttp://hdl.handle.net/2027.42/79552
p317
sg6
V.PDF file
p318
sg8
V1985
p319
sa(dp320
g2
S"A Unique Opportunity for Michigan's Future: An Investment in Engineering Excellence Rationale and Plan"
p321
sg4
Vhttp://hdl.handle.net/2027.42/79529
p322
sg6
V.PDF file
p323
sg8
V1984
p324
sa(dp325
g2
S'A University Enterprise Zone'
p326
sg4
Vhttp://hdl.handle.net/2027.42/79502
p327
sg6
V.PDF file
p328
sg8
V1993
p329
sa(dp330
g2
S'A Vision for the 21st Century'
p331
sg4
Vhttp://hdl.handle.net/2027.42/79549
p332
sg6
V.PDF file
p333
sg8
V1995
p334
sa(dp335
g2
S"A Vision for the 21st Century: Beyond The Leaders and Best - President's Weekend Address"
p336
sg4
Vhttp://hdl.handle.net/2027.42/79550
p337
sg6
V.PDF file
p338
sg8
V1995
p339
sa(dp340
g2
S'A Vision for the 21st Century: The Leaders and Best - Executive Summary'
p341
sg4
Vhttp://hdl.handle.net/2027.42/79518
p342
sg6
V.PDF file
p343
sg8
V1993
p344
sa(dp345
g2
S'A Wake-Up Call to America'
p346
sg4
Vhttp://hdl.handle.net/2027.42/79492
p347
sg6
V.PDF file
p348
sg8
V1991
p349
sa(dp350
g2
S'A checklist for University admissions policies'
p351
sg4
Vhttp://hdl.handle.net/2027.42/88328
p352
sg6
V.PDF file
p353
sg8
V1997
p354
sa(dp355
g2
S'A comparison of projection operator formalisms for the study of self-diffusion'
p356
sg4
Vhttp://hdl.handle.net/2027.42/45173
p357
sg6
V.PDF file
p358
sg8
V1973-11
p359
sa(dp360
g2
S'A discrete ordinates solution of the Fokker-Planck equation characterizing charged particle transport'
p361
sg4
Vhttp://www.sciencedirect.com/science/article/B6WHY-4DDR314-80/2/c68082311582c998784a5a59e4541e5d
p362
sg6
V.PDF file
p363
sg8
V1980-11-01
p364
sa(dp365
g2
S'A microscopic theory of density fluctuations in partially ionized gases (e.m. wave scattering)'
p366
sg4
Vhttp://hdl.handle.net/2027.42/48944
p367
sg6
V.PDF file
p368
sg8
V1973-07-01
p369
sa(dp370
g2
S'AAU Colloquium'
p371
sg4
Vhttp://hdl.handle.net/2027.42/88887
p372
sg6
V.PDF file
p373
sg8
V2002
p374
sa(dp375
g2
S'AAU Meeting'
p376
sg4
Vhttp://hdl.handle.net/2027.42/88898
p377
sg6
V.PDF file
p378
sg8
V1992
p379
sa(dp380
g2
S'AAU Notes'
p381
sg4
Vhttp://hdl.handle.net/2027.42/88909
p382
sg6
V.PDF file
p383
sg8
V1991
p384
sa(dp385
g2
S'AAU PC'
p386
sg4
Vhttp://hdl.handle.net/2027.42/88920
p387
sg6
V.PDF file
p388
sg8
V1991
p389
sa(dp390
g2
S'AAU Welcome'
p391
sg4
Vhttp://hdl.handle.net/2027.42/88931
p392
sg6
V.PDF file
p393
sg8
V1989
p394
sa(dp395
g2
S'AGB Task Force on University Presidency'
p396
sg4
Vhttp://hdl.handle.net/2027.42/89076
p397
sg6
V.PDF file
p398
sg8
V2006
p399
sa(dp400
g2
S'AMD Seminar'
p401
sg4
Vhttp://hdl.handle.net/2027.42/89332
p402
sg6
V.PDF file
p403
sg8
V1996
p404
sa(dp405
g2
S'APS MilProj Project ("21st Century Educational Needs Project")'
p406
sg4
Vhttp://hdl.handle.net/2027.42/88351
p407
sg6
V.PDF file
p408
sg8
V2002
p409
sa(dp410
g2
S'ASEE Keynotes: The Urgency of Engineering Education Reform'
p411
sg4
Vhttp://hdl.handle.net/2027.42/88384
p412
sg6
V.PDF file
p413
sg8
V2002
p414
sa(dp415
g2
S'ASU NAE Grand Challenges Conference'
p416
sg4
Vhttp://hdl.handle.net/2027.42/88428
p417
sg6
V.PDF file
p418
sg8
V2010-04-09
p419
sa(dp420
g2
S'Academic Affairs Agenda 1988'
p421
sg4
Vhttp://hdl.handle.net/2027.42/88942
p422
sg6
V.PDF file
p423
sg8
V1988
p424
sa(dp425
g2
S'Academic Affairs Diversity'
p426
sg4
Vhttp://hdl.handle.net/2027.42/88953
p427
sg6
V.PDF file
p428
sg8
V1987
p429
sa(dp430
g2
S'Academic Freedom 1.2'
p431
sg4
Vhttp://hdl.handle.net/2027.42/88964
p432
sg6
V.PDF file
p433
sg8
V1991
p434
sa(dp435
g2
S'Academic Values'
p436
sg4
Vhttp://hdl.handle.net/2027.42/88976
p437
sg6
V.PDF file
p438
sg8
V1992
p439
sa(dp440
g2
S'Academic Values 2.2'
p441
sg4
Vhttp://hdl.handle.net/2027.42/88987
p442
sg6
V.PDF file
p443
sg8
V1991
p444
sa(dp445
g2
S'Academic Values 2.3'
p446
sg4
Vhttp://hdl.handle.net/2027.42/88998
p447
sg6
V.PDF file
p448
sg8
V1991
p449
sa(dp450
g2
S"Academic Women's Caucus"
p451
sg4
Vhttp://hdl.handle.net/2027.42/89009
p452
sg6
V.PDF file
p453
sg8
V1991
p454
sa(dp455
g2
S'Ad Hoc Committee on Hydrogen Initiatives - Prelim. Report'
p456
sg4
Vhttp://hdl.handle.net/2027.42/89020
p457
sg6
V.PDF file
p458
sg8
V2005
p459
sa(dp460
g2
S'Addendum - Project Report to the Atlantic Philanthropies, Education in the Digital Age: Leadership, Linkages, and Roadmaps'
p461
sg4
Vhttp://hdl.handle.net/2027.42/89031
p462
sg6
V.PDF file
p463
sg8
V2003-04-15
p464
sa(dp465
g2
S'Aerospace Dedication'
p466
sg4
Vhttp://hdl.handle.net/2027.42/89042
p467
sg6
V.PDF file
p468
sg8
V1989
p469
sa(dp470
g2
S'Affirm Action Op-Ed'
p471
sg4
Vhttp://hdl.handle.net/2027.42/89053
p472
sg6
V.PDF file
p473
sg8
V1996
p474
sa(dp475
g2
S"After the Fall: A Roadmap to Michigan's Future"
p476
sg4
Vhttp://hdl.handle.net/2027.42/89065
p477
sg6
V.PDF file
p478
sg8
V2009-10-22
p479
sa(dp480
g2
S'Age of knowledge'
p481
sg4
Vhttp://hdl.handle.net/2027.42/89088
p482
sg6
V.PDF file
p483
sg8
V2004
p484
sa(dp485
g2
S'Age of knowledge speech'
p486
sg4
Vhttp://hdl.handle.net/2027.42/89099
p487
sg6
V.PDF file
p488
sg8
V1997
p489
sa(dp490
g2
S'Aligning American Higher Education with a 21st-Century Public Agenda'
p491
sg4
Vhttp://hdl.handle.net/2027.42/89110
p492
sg6
V.PDF file
p493
sg8
V2008-06-08
p494
sa(dp495
g2
S'Aligning American Higher Education with a 21st-Century Public Agenda'
p496
sg4
Vhttp://hdl.handle.net/2027.42/89121
p497
sg6
V.PDF file
p498
sg8
V2008-06-08
p499
sa(dp500
g2
S'Aligning American Higher Education with a 21st-Century Public Agenda (Final)'
p501
sg4
Vhttp://hdl.handle.net/2027.42/89132
p502
sg6
V.PDF file
p503
sg8
V2008-06-08
p504
sa(dp505
g2
S'Aligning American Higher Education with a Twenty-First Century Public Agenda'
p506
sg4
Vhttp://hdl.handle.net/2027.42/89143
p507
sg6
V.PDF file
p508
sg8
V2009
p509
sa(dp510
g2
S'All Graduate Rankings'
p511
sg4
Vhttp://hdl.handle.net/2027.42/89154
p512
sg6
V.PDF file
p513
sg8
V1991
p514
sa(dp515
g2
S'Allocating Federal Funds for Science and technology'
p516
sg4
Vhttp://hdl.handle.net/2027.42/89165
p517
sg6
V.PDF file
p518
sg8
V1995
p519
sa(dp520
g2
S'Alumni (Major Gifts)'
p521
sg4
Vhttp://hdl.handle.net/2027.42/89176
p522
sg6
V.PDF file
p523
sg8
V1989
p524
sa(dp525
g2
S'Alumni (Volunteers) 2.0'
p526
sg4
Vhttp://hdl.handle.net/2027.42/89187
p527
sg6
V.PDF file
p528
sg8
V1989
p529
sa(dp530
g2
S'Alumni 5.0'
p531
sg4
Vhttp://hdl.handle.net/2027.42/89199
p532
sg6
V.PDF file
p533
sg8
V1989
p534
sa(dp535
g2
S'Alumni Address 1986'
p536
sg4
Vhttp://hdl.handle.net/2027.42/89210
p537
sg6
V.PDF file
p538
sg8
V1986
p539
sa(dp540
g2
S'Alumni Dinner'
p541
sg4
Vhttp://hdl.handle.net/2027.42/89221
p542
sg6
V.PDF file
p543
sg8
V1996
p544
sa(dp545
g2
S'Alumni Remarks'
p546
sg4
Vhttp://hdl.handle.net/2027.42/89232
p547
sg6
V.PDF file
p548
sg8
V1992
p549
sa(dp550
g2
S'Alumni Remarks'
p551
sg4
Vhttp://hdl.handle.net/2027.42/89243
p552
sg6
V.PDF file
p553
sg8
V1993
p554
sa(dp555
g2
S'Alumni Reunion'
p556
sg4
Vhttp://hdl.handle.net/2027.42/89254
p557
sg6
V.PDF file
p558
sg8
V1987
p559
sa(dp560
g2
S'Alumni Scholars'
p561
sg4
Vhttp://hdl.handle.net/2027.42/89265
p562
sg6
V.PDF file
p563
sg8
V1987
p564
sa(dp565
g2
S'Alumni Talk 6.0'
p566
sg4
Vhttp://hdl.handle.net/2027.42/89276
p567
sg6
V.PDF file
p568
sg8
V1990
p569
sa(dp570
g2
S'Alumni Talks'
p571
sg4
Vhttp://hdl.handle.net/2027.42/89287
p572
sg6
V.PDF file
p573
sg8
V1989
p574
sa(dp575
g2
S'Alumni-March-89'
p576
sg4
Vhttp://hdl.handle.net/2027.42/89298
p577
sg6
V.PDF file
p578
sg8
V1989
p579
sa(dp580
g2
S'Alumni-Rose Bowl'
p581
sg4
Vhttp://hdl.handle.net/2027.42/89310
p582
sg6
V.PDF file
p583
sg8
V1988
p584
sa(dp585
g2
S'Alumni-Short'
p586
sg4
Vhttp://hdl.handle.net/2027.42/89321
p587
sg6
V.PDF file
p588
sg8
V1988
p589
sa(dp590
g2
S'An Address to The Economic Club: College Presidents Attempt to Reform Intercollegiate Athletics'
p591
sg4
Vhttp://hdl.handle.net/2027.42/79533
p592
sg6
V.PDF file
p593
sg8
V1991
p594
sa(dp595
g2
S"An Epilogue to the Paperback Edition of Intercollegiate Athletics and the American University: A University President's Perspective"
p596
sg4
Vhttp://hdl.handle.net/2027.42/89354
p597
sg6
V.PDF file
p598
sg8
V2003-03
p599
sa(dp600
g2
S"An Epilogue to the Paperback Edition of Intercollegiate Athletics and the American University: A University President's Perspective (2)"
p601
sg4
Vhttp://hdl.handle.net/2027.42/89343
p602
sg6
V.PDF file
p603
sg8
V2003-03
p604
sa(dp605
g2
S'An Open Letter to the University Community'
p606
sg4
Vhttp://hdl.handle.net/2027.42/89365
p607
sg6
V.PDF file
p608
sg8
V1996
p609
sa(dp610
g2
S'An Operating Manual for the Presidency'
p611
sg4
Vhttp://hdl.handle.net/2027.42/89376
p612
sg6
V.PDF file
p613
sg8
V1996-04
p614
sa(dp615
g2
S'Angell Society Detroit'
p616
sg4
Vhttp://hdl.handle.net/2027.42/89387
p617
sg6
V.PDF file
p618
sg8
V1991
p619
sa(dp620
g2
S'Ann Arbor Rotary'
p621
sg4
Vhttp://hdl.handle.net/2027.42/89398
p622
sg6
V.PDF file
p623
sg8
V1994
p624
sa(dp625
g2
S'Ann Arbor Rotary'
p626
sg4
Vhttp://hdl.handle.net/2027.42/89409
p627
sg6
V.PDF file
p628
sg8
V1996
p629
sa(dp630
g2
S'Annapolis'
p631
sg4
Vhttp://hdl.handle.net/2027.42/88218
p632
sg6
V.PDF file
p633
sg8
V1994
p634
sa(dp635
g2
S'Annapolis Talk'
p636
sg4
Vhttp://hdl.handle.net/2027.42/88229
p637
sg6
V.PDF file
p638
sg8
V1994
p639
sa(dp640
g2
S'Appendix C, Subcommittee on Nuclear Science and Technology Infrastructure Roadmap - Executive summary'
p641
sg4
Vhttp://hdl.handle.net/2027.42/88240
p642
sg6
V.PDF file
p643
sg8
V2000
p644
sa(dp645
g2
S'Appendix D, Subcommittee on Long Term Isotope and Production Plan'
p646
sg4
Vhttp://hdl.handle.net/2027.42/88251
p647
sg6
V.PDF file
p648
sg8
V2000
p649
sa(dp650
g2
S'Appendix E, Blue Ribbon Panel on the Future of University Nuclear Engineering Programs and University Research and Training Reactors'
p651
sg4
Vhttp://hdl.handle.net/2027.42/88262
p652
sg6
V.PDF file
p653
sg8
V2000
p654
sa(dp655
g2
S'Appropriations Committee'
p656
sg4
Vhttp://hdl.handle.net/2027.42/88273
p657
sg6
V.PDF file
p658
sg8
V1990
p659
sa(dp660
g2
S'Appropriations Hear PCSUM'
p661
sg4
Vhttp://hdl.handle.net/2027.42/88284
p662
sg6
V.PDF file
p663
sg8
V1991
p664
sa(dp665
g2
S'Appropriations Hearings'
p666
sg4
Vhttp://hdl.handle.net/2027.42/88295
p667
sg6
V.PDF file
p668
sg8
V1995
p669
sa(dp670
g2
S'Appropriations Hearings 4.0'
p671
sg4
Vhttp://hdl.handle.net/2027.42/88306
p672
sg6
V.PDF file
p673
sg8
V1991
p674
sa(dp675
g2
S'Appropriations House Republicans'
p676
sg4
Vhttp://hdl.handle.net/2027.42/88317
p677
sg6
V.PDF file
p678
sg8
V1991
p679
sa(dp680
g2
S'Appropriations Testimony'
p681
sg4
Vhttp://hdl.handle.net/2027.42/88329
p682
sg6
V.PDF file
p683
sg8
V1991
p684
sa(dp685
g2
S'Appropriations-House'
p686
sg4
Vhttp://hdl.handle.net/2027.42/88340
p687
sg6
V.PDF file
p688
sg8
V1996
p689
sa(dp690
g2
S'Are the Liberal Arts Still the Heart of the American Research University? Some Observations from An Engineering Professor...'
p691
sg4
Vhttp://hdl.handle.net/2027.42/115477
p692
sg6
V.PDF file
p693
sg8
V2013-05-23
p694
sa(dp695
g2
S'Arkansas Feedback'
p696
sg4
Vhttp://hdl.handle.net/2027.42/88362
p697
sg6
V.PDF file
p698
sg8
V1998
p699
sa(dp700
g2
S'As the Walls of Academia are Tumbling Down'
p701
sg4
Vhttp://hdl.handle.net/2027.42/58008
p702
sg6
V.PDF file
p703
sg8
V2001
p704
sa(dp705
g2
S'As we enter the new millennium, there is an increasing sense that the social contract between the university and American society\xe2\x80\xa6'
p706
sg4
Vhttp://hdl.handle.net/2027.42/88373
p707
sg6
V.PDF file
p708
sg8
V2000
p709
sa(dp710
g2
S'Asian American'
p711
sg4
Vhttp://hdl.handle.net/2027.42/88395
p712
sg6
V.PDF file
p713
sg8
V1990
p714
sa(dp715
g2
S'Assisting Universities in Developing Cyberinfrastructure Strategies for Research and Education'
p716
sg4
Vhttp://hdl.handle.net/2027.42/88406
p717
sg6
V.PDF file
p718
sg8
V2003
p719
sa(dp720
g2
S'Assisting Universities in Developing Cyberinfrastructure Strategies for Research and Education'
p721
sg4
Vhttp://hdl.handle.net/2027.42/88417
p722
sg6
V.PDF file
p723
sg8
V2005
p724
sa(dp725
g2
S'Athenaeum Project'
p726
sg4
Vhttp://hdl.handle.net/2027.42/88440
p727
sg6
V.PDF file
p728
sg8
V1991
p729
sa(dp730
g2
S'Athletes Reception'
p731
sg4
Vhttp://hdl.handle.net/2027.42/88444
p732
sg6
V.PDF file
p733
sg8
V1988
p734
sa(dp735
g2
S'Athletes Reception'
p736
sg4
Vhttp://hdl.handle.net/2027.42/88445
p737
sg6
V.PDF file
p738
sg8
V1990
p739
sa(dp740
g2
S'Attack on Values 1.2'
p741
sg4
Vhttp://hdl.handle.net/2027.42/88446
p742
sg6
V.PDF file
p743
sg8
V1991
p744
sa(dp745
g2
S'Automotive Conference 4-2-90'
p746
sg4
Vhttp://hdl.handle.net/2027.42/88447
p747
sg6
V.PDF file
p748
sg8
V1990
p749
sa(dp750
g2
S'BHEF Odds and Ends'
p751
sg4
Vhttp://hdl.handle.net/2027.42/88461
p752
sg6
V.PDF file
p753
sg8
V1991
p754
sa(dp755
g2
S'Back to the Future: The Changing Social Contract between the University and the Nation'
p756
sg4
Vhttp://hdl.handle.net/2027.42/88448
p757
sg6
V.PDF file
p758
sg8
V1999-08-01
p759
sa(dp760
g2
S'Basic Research and the U.S. Energy Challenge - Fully Engaging U.S. Universities'
p761
sg4
Vhttp://hdl.handle.net/2027.42/88449
p762
sg6
V.PDF file
p763
sg8
V2004-03-05
p764
sa(dp765
g2
S'Basketball Bust -- March 28, 1989'
p766
sg4
Vhttp://hdl.handle.net/2027.42/88450
p767
sg6
V.PDF file
p768
sg8
V1989
p769
sa(dp770
g2
S'Basketball Bust-90'
p771
sg4
Vhttp://hdl.handle.net/2027.42/88451
p772
sg6
V.PDF file
p773
sg8
V1990
p774
sa(dp775
g2
S'Battle Creek HS'
p776
sg4
Vhttp://hdl.handle.net/2027.42/88452
p777
sg6
V.PDF file
p778
sg8
V1990
p779
sa(dp780
g2
S'Beginnings'
p781
sg4
Vhttp://hdl.handle.net/2027.42/88454
p782
sg6
V.PDF file
p783
sg8
V2010
p784
sa(dp785
g2
S'Beyond the Endless Frontier'
p786
sg4
Vhttp://hdl.handle.net/2027.42/88455
p787
sg6
V.PDF file
p788
sg8
V1996-09-21
p789
sa(dp790
g2
S'Beyond the Endless Frontier'
p791
sg4
Vhttp://hdl.handle.net/2027.42/88456
p792
sg6
V.PDF file
p793
sg8
V1996-09-21
p794
sa(dp795
g2
S'Beyond the Endless Frontier'
p796
sg4
Vhttp://hdl.handle.net/2027.42/88457
p797
sg6
V.PDF file
p798
sg8
V1997-10-07
p799
sa(dp800
g2
S'Beyond the Endless Frontier 4.1'
p801
sg4
Vhttp://hdl.handle.net/2027.42/88458
p802
sg6
V.PDF file
p803
sg8
V1997-09-21
p804
sa(dp805
g2
S'Beyond the Endless Frontier: The Future of the Research University in an Age of Knowledge'
p806
sg4
Vhttp://hdl.handle.net/2027.42/88459
p807
sg6
V.PDF file
p808
sg8
V1998-04-09
p809
sa(dp810
g2
S'Beyond the Endless Frontier: The Future of the Research University in an Age of Knowledge'
p811
sg4
Vhttp://hdl.handle.net/2027.42/88460
p812
sg6
V.PDF file
p813
sg8
V1999
p814
sa(dp815
g2
S'Big Ten 12-2-90'
p816
sg4
Vhttp://hdl.handle.net/2027.42/88462
p817
sg6
V.PDF file
p818
sg8
V1990
p819
sa(dp820
g2
S'Big Ten Development Officers'
p821
sg4
Vhttp://hdl.handle.net/2027.42/88463
p822
sg6
V.PDF file
p823
sg8
V1988
p824
sa(dp825
g2
S'Big Ten List'
p826
sg4
Vhttp://hdl.handle.net/2027.42/88465
p827
sg6
V.PDF file
p828
sg8
V1991
p829
sa(dp830
g2
S'Big Ten-UM$'
p831
sg4
Vhttp://hdl.handle.net/2027.42/88466
p832
sg6
V.PDF file
p833
sg8
V1990
p834
sa(dp835
g2
S'Birmingham'
p836
sg4
Vhttp://hdl.handle.net/2027.42/88467
p837
sg6
V.PDF file
p838
sg8
V1996
p839
sa(dp840
g2
S'Blanchard Tuition Discussions'
p841
sg4
Vhttp://hdl.handle.net/2027.42/88468
p842
sg6
V.PDF file
p843
sg8
V1988
p844
sa(dp845
g2
S'Blueprint for American Prosperity - Unleashing the Potential of a Metropolitan Nation'
p846
sg4
Vhttp://hdl.handle.net/2027.42/88469
p847
sg6
V.PDF file
p848
sg8
V2009
p849
sa(dp850
g2
S'Bo Press Release'
p851
sg4
Vhttp://hdl.handle.net/2027.42/88470
p852
sg6
V.PDF file
p853
sg8
V1989
p854
sa(dp855
g2
S"Bo's Farewells"
p856
sg4
Vhttp://hdl.handle.net/2027.42/88471
p857
sg6
V.PDF file
p858
sg8
V1990
p859
sa(dp860
g2
S'Booth Newspapers'
p861
sg4
Vhttp://hdl.handle.net/2027.42/88472
p862
sg6
V.PDF file
p863
sg8
V1988
p864
sa(dp865
g2
S'Brainstorming Ideas'
p866
sg4
Vhttp://hdl.handle.net/2027.42/88473
p867
sg6
V.PDF file
p868
sg8
V1991
p869
sa(dp870
g2
S'Briefing to Chinese Educators 1986'
p871
sg4
Vhttp://hdl.handle.net/2027.42/88474
p872
sg6
V.PDF file
p873
sg8
V1986
p874
sa(dp875
g2
S'Briefing: Great Lakes Regional Economic Initiative'
p876
sg4
Vhttp://hdl.handle.net/2027.42/88476
p877
sg6
V.PDF file
p878
sg8
V2005-11-03
p879
sa(dp880
g2
S'Brookings Summary Remarks'
p881
sg4
Vhttp://hdl.handle.net/2027.42/88477
p882
sg6
V.PDF file
p883
sg8
V2007-06-28
p884
sa(dp885
g2
S'Budget Priorities Committee 1986'
p886
sg4
Vhttp://hdl.handle.net/2027.42/88478
p887
sg6
V.PDF file
p888
sg8
V1986
p889
sa(dp890
g2
S'Building a Culture of Learning for the 21st Century'
p891
sg4
Vhttp://hdl.handle.net/2027.42/88479
p892
sg6
V.PDF file
p893
sg8
V1997-11-11
p894
sa(dp895
g2
S'Building a Culture of Learning for the 21st Century'
p896
sg4
Vhttp://hdl.handle.net/2027.42/88480
p897
sg6
V.PDF file
p898
sg8
V1998-05-29
p899
sa(dp900
g2
S'Building the Future: Women Leading Higher Education'
p901
sg4
Vhttp://hdl.handle.net/2027.42/88481
p902
sg6
V.PDF file
p903
sg8
V1998-06-02
p904
sa(dp905
g2
S'Business Higher Education Forum'
p906
sg4
Vhttp://hdl.handle.net/2027.42/88482
p907
sg6
V.PDF file
p908
sg8
V1991
p909
sa(dp910
g2
S'Business Plan-1990s'
p911
sg4
Vhttp://hdl.handle.net/2027.42/88483
p912
sg6
V.PDF file
p913
sg8
V1990
p914
sa(dp915
g2
S'CBS Interview Questions'
p916
sg4
Vhttp://hdl.handle.net/2027.42/88506
p917
sg6
V.PDF file
p918
sg8
V1989
p919
sa(dp920
g2
S'COMU Retreat 1994'
p921
sg4
Vhttp://hdl.handle.net/2027.42/88557
p922
sg6
V.PDF file
p923
sg8
V1994
p924
sa(dp925
g2
S'Calculation of Current Correlations in Classical Fluids via Modeled Kinetic Equations'
p926
sg4
Vhttp://hdl.handle.net/2027.42/86143
p927
sg6
V.PDF file
p928
sg8
V1970-03
p929
sa(dp930
g2
S'Caltech Address'
p931
sg4
Vhttp://hdl.handle.net/2027.42/88484
p932
sg6
V.PDF file
p933
sg8
V1987
p934
sa(dp935
g2
S'Caltech Commencement Address'
p936
sg4
Vhttp://hdl.handle.net/2027.42/88485
p937
sg6
V.PDF file
p938
sg8
V1989
p939
sa(dp940
g2
S'Campaign'
p941
sg4
Vhttp://hdl.handle.net/2027.42/88487
p942
sg6
V.PDF file
p943
sg8
V1990
p944
sa(dp945
g2
S'Campaign 89'
p946
sg4
Vhttp://hdl.handle.net/2027.42/88488
p947
sg6
V.PDF file
p948
sg8
V1989
p949
sa(dp950
g2
S'Campaign Briefing-1990'
p951
sg4
Vhttp://hdl.handle.net/2027.42/88489
p952
sg6
V.PDF file
p953
sg8
V1990
p954
sa(dp955
g2
S'Campaign Finale'
p956
sg4
Vhttp://hdl.handle.net/2027.42/88490
p957
sg6
V.PDF file
p958
sg8
V1991
p959
sa(dp960
g2
S'Campaign Go/No Go'
p961
sg4
Vhttp://hdl.handle.net/2027.42/88491
p962
sg6
V.PDF file
p963
sg8
V1990
p964
sa(dp965
g2
S'Campaign Ideas'
p966
sg4
Vhttp://hdl.handle.net/2027.42/88492
p967
sg6
V.PDF file
p968
sg8
V1989
p969
sa(dp970
g2
S'Campaign Kickoff'
p971
sg4
Vhttp://hdl.handle.net/2027.42/88493
p972
sg6
V.PDF file
p973
sg8
V1991
p974
sa(dp975
g2
S'Campaign Pitch-Alumni'
p976
sg4
Vhttp://hdl.handle.net/2027.42/88494
p977
sg6
V.PDF file
p978
sg8
V1990
p979
sa(dp980
g2
S'Campaign Pitches'
p981
sg4
Vhttp://hdl.handle.net/2027.42/88495
p982
sg6
V.PDF file
p983
sg8
V1991
p984
sa(dp985
g2
S'Campaign Wrap-up'
p986
sg4
Vhttp://hdl.handle.net/2027.42/88496
p987
sg6
V.PDF file
p988
sg8
V1989
p989
sa(dp990
g2
S'Campaign-Color'
p991
sg4
Vhttp://hdl.handle.net/2027.42/88498
p992
sg6
V.PDF file
p993
sg8
V1990
p994
sa(dp995
g2
S'Campaign-Color-update'
p996
sg4
Vhttp://hdl.handle.net/2027.42/88499
p997
sg6
V.PDF file
p998
sg8
V1990
p999
sa(dp1000
g2
S'Campaign-Individual'
p1001
sg4
Vhttp://hdl.handle.net/2027.42/88500
p1002
sg6
V.PDF file
p1003
sg8
V1991
p1004
sa(dp1005
g2
S'Campaign-Plan'
p1006
sg4
Vhttp://hdl.handle.net/2027.42/88501
p1007
sg6
V.PDF file
p1008
sg8
V1990
p1009
sa(dp1010
g2
S'Canham Dedication'
p1011
sg4
Vhttp://hdl.handle.net/2027.42/88502
p1012
sg6
V.PDF file
p1013
sg8
V1988
p1014
sa(dp1015
g2
S'Case Statement - June'
p1016
sg4
Vhttp://hdl.handle.net/2027.42/88503
p1017
sg6
V.PDF file
p1018
sg8
V1989
p1019
sa(dp1020
g2
S'Case Statement - March'
p1021
sg4
Vhttp://hdl.handle.net/2027.42/88504
p1022
sg6
V.PDF file
p1023
sg8
V1989
p1024
sa(dp1025
g2
S'Cazzie Russell Honor'
p1026
sg4
Vhttp://hdl.handle.net/2027.42/88505
p1027
sg6
V.PDF file
p1028
sg8
V1992
p1029
sa(dp1030
g2
S'Celebrating the Past by Imaging the Future of Engineering Practice, Research, and Education'
p1031
sg4
Vhttp://hdl.handle.net/2027.42/88507
p1032
sg6
V.PDF file
p1033
sg8
V2007-04-14
p1034
sa(dp1035
g2
S'Chamber of Commerce'
p1036
sg4
Vhttp://hdl.handle.net/2027.42/88509
p1037
sg6
V.PDF file
p1038
sg8
V1990
p1039
sa(dp1040
g2
S'Change Speech'
p1041
sg4
Vhttp://hdl.handle.net/2027.42/88517
p1042
sg6
V.PDF file
p1043
sg8
V1995
p1044
sa(dp1045
g2
S'Change and the University'
p1046
sg4
Vhttp://hdl.handle.net/2027.42/88510
p1047
sg6
V.PDF file
p1048
sg8
V2000
p1049
sa(dp1050
g2
S'Change and the University - A Western Perspective'
p1051
sg4
Vhttp://hdl.handle.net/2027.42/88511
p1052
sg6
V.PDF file
p1053
sg8
V1999
p1054
sa(dp1055
g2
S'Change and the University - Colorado'
p1056
sg4
Vhttp://hdl.handle.net/2027.42/88512
p1057
sg6
V.PDF file
p1058
sg8
V2000-06-22
p1059
sa(dp1060
g2
S'Change and the University - Frye 1'
p1061
sg4
Vhttp://hdl.handle.net/2027.42/88513
p1062
sg6
V.PDF file
p1063
sg8
V2000-06-05
p1064
sa(dp1065
g2
S'Change and the University - Frye 1.1'
p1066
sg4
Vhttp://hdl.handle.net/2027.42/88514
p1067
sg6
V.PDF file
p1068
sg8
V2000
p1069
sa(dp1070
g2
S'Change and the University - Ohio Retreat'
p1071
sg4
Vhttp://hdl.handle.net/2027.42/88515
p1072
sg6
V.PDF file
p1073
sg8
V2000
p1074
sa(dp1075
g2
S'Change in American Higher Education: Evolution or Revolution'
p1076
sg4
Vhttp://hdl.handle.net/2027.42/88516
p1077
sg6
V.PDF file
p1078
sg8
V1997-05-20
p1079
sa(dp1080
g2
S'Changing University Missions and Profiling in the United States: Some Lessons Learned in the New World'
p1081
sg4
Vhttp://hdl.handle.net/2027.42/88518
p1082
sg6
V.PDF file
p1083
sg8
V2009
p1084
sa(dp1085
g2
S'Changing in a World of Change'
p1086
sg4
Vhttp://hdl.handle.net/2027.42/79566
p1087
sg6
V.PDF file
p1088
sg8
V1995
p1089
sa(dp1090
g2
S'Characterization of an ultradense reproducible Z pinch'
p1091
sg4
Vhttp://hdl.handle.net/2027.42/70116
p1092
sg6
V.PDF file
p1093
sg8
V1977-12-15
p1094
sa(dp1095
g2
S'Chemistry Dedication'
p1096
sg4
Vhttp://hdl.handle.net/2027.42/88520
p1097
sg6
V.PDF file
p1098
sg8
V1989
p1099
sa(dp1100
g2
S'Chemistry Lunch'
p1101
sg4
Vhttp://hdl.handle.net/2027.42/88521
p1102
sg6
V.PDF file
p1103
sg8
V1989
p1104
sa(dp1105
g2
S'Chrysler Talk'
p1106
sg4
Vhttp://hdl.handle.net/2027.42/88522
p1107
sg6
V.PDF file
p1108
sg8
V1995
p1109
sa(dp1110
g2
S'Citizens Research Council'
p1111
sg4
Vhttp://hdl.handle.net/2027.42/88523
p1112
sg6
V.PDF file
p1113
sg8
V1989
p1114
sa(dp1115
g2
S'Climate Change and American Know-How'
p1116
sg4
Vhttp://hdl.handle.net/2027.42/88524
p1117
sg6
V.PDF file
p1118
sg8
V2009-11-13
p1119
sa(dp1120
g2
S'Climate Change and American Know-How'
p1121
sg4
Vhttp://hdl.handle.net/2027.42/88525
p1122
sg6
V.PDF file
p1123
sg8
V2009-11-13
p1124
sa(dp1125
g2
S'Climate and Character: Perspectives on Diversity'
p1126
sg4
Vhttp://hdl.handle.net/2027.42/79516
p1127
sg6
V.PDF file
p1128
sg8
V1997
p1129
sa(dp1130
g2
S'Coaches Reception'
p1131
sg4
Vhttp://hdl.handle.net/2027.42/88526
p1132
sg6
V.PDF file
p1133
sg8
V1989
p1134
sa(dp1135
g2
S'Coaches Talk'
p1136
sg4
Vhttp://hdl.handle.net/2027.42/88527
p1137
sg6
V.PDF file
p1138
sg8
V1989
p1139
sa(dp1140
g2
S'Coaches Talk'
p1141
sg4
Vhttp://hdl.handle.net/2027.42/88528
p1142
sg6
V.PDF file
p1143
sg8
V1996
p1144
sa(dp1145
g2
S'College Sports'
p1146
sg4
Vhttp://hdl.handle.net/2027.42/88529
p1147
sg6
V.PDF file
p1148
sg8
V2003
p1149
sa(dp1150
g2
S'College Sports 1.2'
p1151
sg4
Vhttp://hdl.handle.net/2027.42/88532
p1152
sg6
V.PDF file
p1153
sg8
V1991
p1154
sa(dp1155
g2
S'College of Engineering Briefing'
p1156
sg4
Vhttp://hdl.handle.net/2027.42/79510
p1157
sg6
V.PDF file
p1158
sg8
V1984
p1159
sa(dp1160
g2
S'College of Engineering: One-Year and Five-Year Budget Planning Document'
p1161
sg4
Vhttp://hdl.handle.net/2027.42/79545
p1162
sg6
V.PDF file
p1163
sg8
V1982
p1164
sa(dp1165
g2
S'Columbia Symposium'
p1166
sg4
Vhttp://hdl.handle.net/2027.42/88533
p1167
sg6
V.PDF file
p1168
sg8
V1996
p1169
sa(dp1170
g2
S'Commence-Cards-JJD'
p1171
sg4
Vhttp://hdl.handle.net/2027.42/88534
p1172
sg6
V.PDF file
p1173
sg8
V1991
p1174
sa(dp1175
g2
S'Commence-Fall-89'
p1176
sg4
Vhttp://hdl.handle.net/2027.42/88535
p1177
sg6
V.PDF file
p1178
sg8
V1989
p1179
sa(dp1180
g2
S'Commence-Fall-90'
p1181
sg4
Vhttp://hdl.handle.net/2027.42/88536
p1182
sg6
V.PDF file
p1183
sg8
V1990
p1184
sa(dp1185
g2
S'Commence-JJD Cards'
p1186
sg4
Vhttp://hdl.handle.net/2027.42/88537
p1187
sg6
V.PDF file
p1188
sg8
V1991
p1189
sa(dp1190
g2
S'Commencement Notes'
p1191
sg4
Vhttp://hdl.handle.net/2027.42/88538
p1192
sg6
V.PDF file
p1193
sg8
V1991
p1194
sa(dp1195
g2
S'Commencement Notes'
p1196
sg4
Vhttp://hdl.handle.net/2027.42/88539
p1197
sg6
V.PDF file
p1198
sg8
V1993
p1199
sa(dp1200
g2
S'Commencement Thank you'
p1201
sg4
Vhttp://hdl.handle.net/2027.42/88540
p1202
sg6
V.PDF file
p1203
sg8
V1991
p1204
sa(dp1205
g2
S'Commencement-1989'
p1206
sg4
Vhttp://hdl.handle.net/2027.42/88541
p1207
sg6
V.PDF file
p1208
sg8
V1989
p1209
sa(dp1210
g2
S'Commencement-1996'
p1211
sg4
Vhttp://hdl.handle.net/2027.42/88543
p1212
sg6
V.PDF file
p1213
sg8
V1996
p1214
sa(dp1215
g2
S'Commencement-Fall-1988f'
p1216
sg4
Vhttp://hdl.handle.net/2027.42/88544
p1217
sg6
V.PDF file
p1218
sg8
V1988
p1219
sa(dp1220
g2
S'Commencement-JJD Version'
p1221
sg4
Vhttp://hdl.handle.net/2027.42/88545
p1222
sg6
V.PDF file
p1223
sg8
V1991
p1224
sa(dp1225
g2
S'Commencement-JJD2'
p1226
sg4
Vhttp://hdl.handle.net/2027.42/88546
p1227
sg6
V.PDF file
p1228
sg8
V1991
p1229
sa(dp1230
g2
S'Commencement-Spring-90'
p1231
sg4
Vhttp://hdl.handle.net/2027.42/88547
p1232
sg6
V.PDF file
p1233
sg8
V1990
p1234
sa(dp1235
g2
S'Comments a John Seely Brown Symposium'
p1236
sg4
Vhttp://hdl.handle.net/2027.42/88548
p1237
sg6
V.PDF file
p1238
sg8
V2002-10-04
p1239
sa(dp1240
g2
S'Commercialization of the Academy: Seeking a Balance between the Marketplace and Public Interest - Emory'
p1241
sg4
Vhttp://hdl.handle.net/2027.42/88549
p1242
sg6
V.PDF file
p1243
sg8
V2002-04-06
p1244
sa(dp1245
g2
S'Commercialization of the Academy: Seeking a Balance between the Marketplace and Public Interest - Emory'
p1246
sg4
Vhttp://hdl.handle.net/2027.42/88550
p1247
sg6
V.PDF file
p1248
sg8
V2002-04-06
p1249
sa(dp1250
g2
S'Commitment to Pluralism'
p1251
sg4
Vhttp://hdl.handle.net/2027.42/88551
p1252
sg6
V.PDF file
p1253
sg8
V1987
p1254
sa(dp1255
g2
S'Communication'
p1256
sg4
Vhttp://hdl.handle.net/2027.42/88552
p1257
sg6
V.PDF file
p1258
sg8
V1990
p1259
sa(dp1260
g2
S'Community College'
p1261
sg4
Vhttp://hdl.handle.net/2027.42/88554
p1262
sg6
V.PDF file
p1263
sg8
V1992
p1264
sa(dp1265
g2
S'Community Outreach'
p1266
sg4
Vhttp://hdl.handle.net/2027.42/88555
p1267
sg6
V.PDF file
p1268
sg8
V1989
p1269
sa(dp1270
g2
S'Computer-Medicine'
p1271
sg4
Vhttp://hdl.handle.net/2027.42/88556
p1272
sg6
V.PDF file
p1273
sg8
V1988
p1274
sa(dp1275
g2
S'Concerns'
p1276
sg4
Vhttp://hdl.handle.net/2027.42/88558
p1277
sg6
V.PDF file
p1278
sg8
V2005
p1279
sa(dp1280
g2
S'Conclusion - Challenges and Possible Strategies for Research Universities in Europe and the United States'
p1281
sg4
Vhttp://hdl.handle.net/2027.42/88559
p1282
sg6
V.PDF file
p1283
sg8
V2010-06-15
p1284
sa(dp1285
g2
S'Congressional Breakfast'
p1286
sg4
Vhttp://hdl.handle.net/2027.42/88560
p1287
sg6
V.PDF file
p1288
sg8
V1989
p1289
sa(dp1290
g2
S'Congressional Breakfast'
p1291
sg4
Vhttp://hdl.handle.net/2027.42/88561
p1292
sg6
V.PDF file
p1293
sg8
V1990
p1294
sa(dp1295
g2
S'Congressional Breakfast'
p1296
sg4
Vhttp://hdl.handle.net/2027.42/88562
p1297
sg6
V.PDF file
p1298
sg8
V1991
p1299
sa(dp1300
g2
S'Congressional Breakfast'
p1301
sg4
Vhttp://hdl.handle.net/2027.42/88563
p1302
sg6
V.PDF file
p1303
sg8
V1992
p1304
sa(dp1305
g2
S'Congressional Breakfast'
p1306
sg4
Vhttp://hdl.handle.net/2027.42/88565
p1307
sg6
V.PDF file
p1308
sg8
V1993
p1309
sa(dp1310
g2
S'Congressional Delegation 1'
p1311
sg4
Vhttp://hdl.handle.net/2027.42/88566
p1312
sg6
V.PDF file
p1313
sg8
V1988
p1314
sa(dp1315
g2
S'Congressional Delegation 2'
p1316
sg4
Vhttp://hdl.handle.net/2027.42/88567
p1317
sg6
V.PDF file
p1318
sg8
V1988
p1319
sa(dp1320
g2
S'Continuity and Chaos'
p1321
sg4
Vhttp://hdl.handle.net/2027.42/88568
p1322
sg6
V.PDF file
p1323
sg8
V1989
p1324
sa(dp1325
g2
S'Corporate Remarks'
p1326
sg4
Vhttp://hdl.handle.net/2027.42/88569
p1327
sg6
V.PDF file
p1328
sg8
V1989
p1329
sa(dp1330
g2
S'Costs Prices Values 3.0'
p1331
sg4
Vhttp://hdl.handle.net/2027.42/88572
p1332
sg6
V.PDF file
p1333
sg8
V1990
p1334
sa(dp1335
g2
S'Costs of Education'
p1336
sg4
Vhttp://hdl.handle.net/2027.42/88570
p1337
sg6
V.PDF file
p1338
sg8
V1989
p1339
sa(dp1340
g2
S'Costs of Higher Education'
p1341
sg4
Vhttp://hdl.handle.net/2027.42/88571
p1342
sg6
V.PDF file
p1343
sg8
V1988
p1344
sa(dp1345
g2
S'Cover letter Rankings'
p1346
sg4
Vhttp://hdl.handle.net/2027.42/88573
p1347
sg6
V.PDF file
p1348
sg8
V1991
p1349
sa(dp1350
g2
S'Cover letter Rankings 1.0'
p1351
sg4
Vhttp://hdl.handle.net/2027.42/88574
p1352
sg6
V.PDF file
p1353
sg8
V1991
p1354
sa(dp1355
g2
S"Creating a National Network of Energy Discovery-Innovation Institutes: A Step Toward America's Energy Sustainability"
p1356
sg4
Vhttp://hdl.handle.net/2027.42/88576
p1357
sg6
V.PDF file
p1358
sg8
V2008-09-26
p1359
sa(dp1360
g2
S'Critical Choices: Science, Energy, and Security'
p1361
sg4
Vhttp://hdl.handle.net/2027.42/88577
p1362
sg6
V.PDF file
p1363
sg8
V2003-10-13
p1364
sa(dp1365
g2
S'Critical Choices: Science, Energy, and Security'
p1366
sg4
Vhttp://hdl.handle.net/2027.42/88578
p1367
sg6
V.PDF file
p1368
sg8
V2003-10-13
p1369
sa(dp1370
g2
S'Critical Choices: Science, Energy, and Security'
p1371
sg4
Vhttp://hdl.handle.net/2027.42/88579
p1372
sg6
V.PDF file
p1373
sg8
V2008
p1374
sa(dp1375
g2
S'Current Global Trends in Higher Education and Research: Their Impact on Europe'
p1376
sg4
Vhttp://hdl.handle.net/2027.42/88580
p1377
sg6
V.PDF file
p1378
sg8
V2009-03-12
p1379
sa(dp1380
g2
S'Cyberinfrastructure and the future of the World Research University'
p1381
sg4
Vhttp://hdl.handle.net/2027.42/88581
p1382
sg6
V.PDF file
p1383
sg8
V2004
p1384
sa(dp1385
g2
S'Dartmouth Engineering Investiture Address'
p1386
sg4
Vhttp://hdl.handle.net/2027.42/88582
p1387
sg6
V.PDF file
p1388
sg8
V2009-06-13
p1389
sa(dp1390
g2
S'Dartmouth Engineering Investiture Address - JJD'
p1391
sg4
Vhttp://hdl.handle.net/2027.42/88583
p1392
sg6
V.PDF file
p1393
sg8
V2009-06-13
p1394
sa(dp1395
g2
S'Darwinian Medicine for the University'
p1396
sg4
Vhttp://hdl.handle.net/2027.42/88584
p1397
sg6
V.PDF file
p1398
sg8
V2002-04-04
p1399
sa(dp1400
g2
S'Deans Term End Dinner'
p1401
sg4
Vhttp://hdl.handle.net/2027.42/88585
p1402
sg6
V.PDF file
p1403
sg8
V1988
p1404
sa(dp1405
g2
S'Deans-EO Kickoff'
p1406
sg4
Vhttp://hdl.handle.net/2027.42/88587
p1407
sg6
V.PDF file
p1408
sg8
V1988
p1409
sa(dp1410
g2
S'Deans-EO Kickoff Picnic'
p1411
sg4
Vhttp://hdl.handle.net/2027.42/88588
p1412
sg6
V.PDF file
p1413
sg8
V1987
p1414
sa(dp1415
g2
S'Dear Mr. Yokich:'
p1416
sg4
Vhttp://hdl.handle.net/2027.42/88589
p1417
sg6
V.PDF file
p1418
sg8
V1996-11-21
p1419
sa(dp1420
g2
S'Decade Report Trans 6-18'
p1421
sg4
Vhttp://hdl.handle.net/2027.42/88590
p1422
sg6
V.PDF file
p1423
sg8
V1996
p1424
sa(dp1425
g2
S'Demographics'
p1426
sg4
Vhttp://hdl.handle.net/2027.42/88591
p1427
sg6
V.PDF file
p1428
sg8
V1990
p1429
sa(dp1430
g2
S'Derivation of Kinetic Equations from the Generalized Langevin Equation'
p1431
sg4
Vhttp://hdl.handle.net/2027.42/86140
p1432
sg6
V.PDF file
p1433
sg8
V1969-12-05
p1434
sa(dp1435
g2
S'Detroit Economics Club 1.1'
p1436
sg4
Vhttp://hdl.handle.net/2027.42/88592
p1437
sg6
V.PDF file
p1438
sg8
V1989
p1439
sa(dp1440
g2
S'Development'
p1441
sg4
Vhttp://hdl.handle.net/2027.42/88593
p1442
sg6
V.PDF file
p1443
sg8
V1987
p1444
sa(dp1445
g2
S'Development'
p1446
sg4
Vhttp://hdl.handle.net/2027.42/88594
p1447
sg6
V.PDF file
p1448
sg8
V1990
p1449
sa(dp1450
g2
S'Development Advisory Group'
p1451
sg4
Vhttp://hdl.handle.net/2027.42/88595
p1452
sg6
V.PDF file
p1453
sg8
V1991
p1454
sa(dp1455
g2
S'Digital Librarians'
p1456
sg4
Vhttp://hdl.handle.net/2027.42/88596
p1457
sg6
V.PDF file
p1458
sg8
V1996
p1459
sa(dp1460
g2
S'Diversity'
p1461
sg4
Vhttp://hdl.handle.net/2027.42/88598
p1462
sg6
V.PDF file
p1463
sg8
V1995
p1464
sa(dp1465
g2
S'Diversity Dinner'
p1466
sg4
Vhttp://hdl.handle.net/2027.42/88602
p1467
sg6
V.PDF file
p1468
sg8
V1996
p1469
sa(dp1470
g2
S'Diversity Draft'
p1471
sg4
Vhttp://hdl.handle.net/2027.42/88603
p1472
sg6
V.PDF file
p1473
sg8
V1996
p1474
sa(dp1475
g2
S'Diversity Notes'
p1476
sg4
Vhttp://hdl.handle.net/2027.42/88609
p1477
sg6
V.PDF file
p1478
sg8
V1988
p1479
sa(dp1480
g2
S'Diversity Speech'
p1481
sg4
Vhttp://hdl.handle.net/2027.42/88610
p1482
sg6
V.PDF file
p1483
sg8
V1995
p1484
sa(dp1485
g2
S'Diversity and  Equity in College Sports: The Need for Change'
p1486
sg4
Vhttp://hdl.handle.net/2027.42/88599
p1487
sg6
V.PDF file
p1488
sg8
V2002-05-21
p1489
sa(dp1490
g2
S'Diversity and  Equity in College Sports: The Need for Change - MSU'
p1491
sg4
Vhttp://hdl.handle.net/2027.42/88600
p1492
sg6
V.PDF file
p1493
sg8
V2002-05-21
p1494
sa(dp1495
g2
S'Diversity and Excellence'
p1496
sg4
Vhttp://hdl.handle.net/2027.42/79556
p1497
sg6
V.PDF file
p1498
sg8
V1995
p1499
sa(dp1500
g2
S'Diversity at the University of Michigan'
p1501
sg4
Vhttp://hdl.handle.net/2027.42/79558
p1502
sg6
V.PDF file
p1503
sg8
V1995
p1504
sa(dp1505
g2
S'Diversity at the University of Michigan'
p1506
sg4
Vhttp://hdl.handle.net/2027.42/88601
p1507
sg6
V.PDF file
p1508
sg8
V1995
p1509
sa(dp1510
g2
S'Diversity in Higher Education'
p1511
sg4
Vhttp://hdl.handle.net/2027.42/88604
p1512
sg6
V.PDF file
p1513
sg8
V1996-11-19
p1514
sa(dp1515
g2
S'Diversity in Higher Education'
p1516
sg4
Vhttp://hdl.handle.net/2027.42/88605
p1517
sg6
V.PDF file
p1518
sg8
V2004-03-17
p1519
sa(dp1520
g2
S'Diversity in the Science and Engineering Before and After Michigan Cases: Do We Need a New Paradigm?'
p1521
sg4
Vhttp://hdl.handle.net/2027.42/88606
p1522
sg6
V.PDF file
p1523
sg8
V2005-11-15
p1524
sa(dp1525
g2
S'Diversity in the Science and Engineering Community: Life after the Michigan Cases'
p1526
sg4
Vhttp://hdl.handle.net/2027.42/88607
p1527
sg6
V.PDF file
p1528
sg8
V2004-03-28
p1529
sa(dp1530
g2
S'Doctoral Pipeline Issue'
p1531
sg4
Vhttp://hdl.handle.net/2027.42/88611
p1532
sg6
V.PDF file
p1533
sg8
V1991
p1534
sa(dp1535
g2
S'Duderstadt e-mail'
p1536
sg4
Vhttp://hdl.handle.net/2027.42/88612
p1537
sg6
V.PDF file
p1538
sg8
V1990
p1539
sa(dp1540
g2
S'EDARPA: An Education Advanced Research Projects Agency A New Mechanism for Federal Support of Research on Learning and Education'
p1541
sg4
Vhttp://hdl.handle.net/2027.42/88616
p1542
sg6
V.PDF file
p1543
sg8
V2001
p1544
sa(dp1545
g2
S'EDUCOM Panel'
p1546
sg4
Vhttp://hdl.handle.net/2027.42/88623
p1547
sg6
V.PDF file
p1548
sg8
V1989
p1549
sa(dp1550
g2
S'EDUCOM Panel Intro'
p1551
sg4
Vhttp://hdl.handle.net/2027.42/88624
p1552
sg6
V.PDF file
p1553
sg8
V1989
p1554
sa(dp1555
g2
S'EDUCOM Press'
p1556
sg4
Vhttp://hdl.handle.net/2027.42/88625
p1557
sg6
V.PDF file
p1558
sg8
V1989
p1559
sa(dp1560
g2
S'EDUCOM Welcome'
p1561
sg4
Vhttp://hdl.handle.net/2027.42/88626
p1562
sg6
V.PDF file
p1563
sg8
V1989
p1564
sa(dp1565
g2
S'EO Retreat'
p1566
sg4
Vhttp://hdl.handle.net/2027.42/88658
p1567
sg6
V.PDF file
p1568
sg8
V1991
p1569
sa(dp1570
g2
S'EO Retreat'
p1571
sg4
Vhttp://hdl.handle.net/2027.42/88659
p1572
sg6
V.PDF file
p1573
sg8
V1993
p1574
sa(dp1575
g2
S'EO Retreat (Fall-91)'
p1576
sg4
Vhttp://hdl.handle.net/2027.42/88660
p1577
sg6
V.PDF file
p1578
sg8
V1991
p1579
sa(dp1580
g2
S'EO Retreat-93'
p1581
sg4
Vhttp://hdl.handle.net/2027.42/88661
p1582
sg6
V.PDF file
p1583
sg8
V1991
p1584
sa(dp1585
g2
S'EO Salaries'
p1586
sg4
Vhttp://hdl.handle.net/2027.42/88662
p1587
sg6
V.PDF file
p1588
sg8
V1991
p1589
sa(dp1590
g2
S'EO Strategic Update'
p1591
sg4
Vhttp://hdl.handle.net/2027.42/88663
p1592
sg6
V.PDF file
p1593
sg8
V1991
p1594
sa(dp1595
g2
S'EO Strategic Update'
p1596
sg4
Vhttp://hdl.handle.net/2027.42/88664
p1597
sg6
V.PDF file
p1598
sg8
V1992
p1599
sa(dp1600
g2
S'EO-SACUA-Student Retreat'
p1601
sg4
Vhttp://hdl.handle.net/2027.42/88666
p1602
sg6
V.PDF file
p1603
sg8
V1989
p1604
sa(dp1605
g2
S'EVPHA Presentation'
p1606
sg4
Vhttp://hdl.handle.net/2027.42/88672
p1607
sg6
V.PDF file
p1608
sg8
V1994
p1609
sa(dp1610
g2
S'Economic Dinner Group 1.1'
p1611
sg4
Vhttp://hdl.handle.net/2027.42/88613
p1612
sg6
V.PDF file
p1613
sg8
V1993
p1614
sa(dp1615
g2
S'Economic Strategy 2.0'
p1616
sg4
Vhttp://hdl.handle.net/2027.42/88614
p1617
sg6
V.PDF file
p1618
sg8
V1992
p1619
sa(dp1620
g2
S'Economics Dinner Group'
p1621
sg4
Vhttp://hdl.handle.net/2027.42/88615
p1622
sg6
V.PDF file
p1623
sg8
V1990
p1624
sa(dp1625
g2
S'Educating for Change'
p1626
sg4
Vhttp://hdl.handle.net/2027.42/88617
p1627
sg6
V.PDF file
p1628
sg8
V1987
p1629
sa(dp1630
g2
S'Education'
p1631
sg4
Vhttp://hdl.handle.net/2027.42/88618
p1632
sg6
V.PDF file
p1633
sg8
V1989
p1634
sa(dp1635
g2
S'Education 1.0'
p1636
sg4
Vhttp://hdl.handle.net/2027.42/88620
p1637
sg6
V.PDF file
p1638
sg8
V1989
p1639
sa(dp1640
g2
S'Education 1.3'
p1641
sg4
Vhttp://hdl.handle.net/2027.42/88621
p1642
sg6
V.PDF file
p1643
sg8
V1989
p1644
sa(dp1645
g2
S'Education Notes'
p1646
sg4
Vhttp://hdl.handle.net/2027.42/88622
p1647
sg6
V.PDF file
p1648
sg8
V1989
p1649
sa(dp1650
g2
S'Emerging Economies'
p1651
sg4
Vhttp://hdl.handle.net/2027.42/88627
p1652
sg6
V.PDF file
p1653
sg8
V1989
p1654
sa(dp1655
g2
S"Energy Discovery-Innovation Institutes: A Step Toward America's Energy Sustainability"
p1656
sg4
Vhttp://hdl.handle.net/2027.42/88629
p1657
sg6
V.PDF file
p1658
sg8
V2009-02
p1659
sa(dp1660
g2
S"Energy Discovery-Innovation Institutes: A Step Toward America's Energy Sustainability"
p1661
sg4
Vhttp://hdl.handle.net/2027.42/88631
p1662
sg6
V.PDF file
p1663
sg8
V2009-02
p1664
sa(dp1665
g2
S'Energy Discovery-Innovation Institutes: A Step Toward Energy Sustainability'
p1666
sg4
Vhttp://hdl.handle.net/2027.42/88632
p1667
sg6
V.PDF file
p1668
sg8
V2009-02-09
p1669
sa(dp1670
g2
S"Energy Discovery-Innovation Institutes: A Step toward America's Energy Sustainability"
p1671
sg4
Vhttp://hdl.handle.net/2027.42/88628
p1672
sg6
V.PDF file
p1673
sg8
V2009-02
p1674
sa(dp1675
g2
S"Energy Research at the University of Michigan - A commitment to  Michigan's Future"
p1676
sg4
Vhttp://hdl.handle.net/2027.42/88633
p1677
sg6
V.PDF file
p1678
sg8
V2006
p1679
sa(dp1680
g2
S'Engineering Comm.'
p1681
sg4
Vhttp://hdl.handle.net/2027.42/88634
p1682
sg6
V.PDF file
p1683
sg8
V1990
p1684
sa(dp1685
g2
S'Engineering Commencement-88'
p1686
sg4
Vhttp://hdl.handle.net/2027.42/88635
p1687
sg6
V.PDF file
p1688
sg8
V1988
p1689
sa(dp1690
g2
S'Engineering Design: A Foundation for a 21st Century Renaissance'
p1691
sg4
Vhttp://hdl.handle.net/2027.42/88636
p1692
sg6
V.PDF file
p1693
sg8
V2011-07
p1694
sa(dp1695
g2
S'Engineering Education at Michigan - Past, Present, and Future'
p1696
sg4
Vhttp://hdl.handle.net/2027.42/88637
p1697
sg6
V.PDF file
p1698
sg8
V2003
p1699
sa(dp1700
g2
S'Engineering Education at Michigan: Crisis Challenge and Opportunity, 1982'
p1701
sg4
Vhttp://hdl.handle.net/2027.42/79532
p1702
sg6
V.PDF file
p1703
sg8
V1982
p1704
sa(dp1705
g2
S'Engineering Education at Michigan: Crisis Challenge and Opportunity, 1983'
p1706
sg4
Vhttp://hdl.handle.net/2027.42/79531
p1707
sg6
V.PDF file
p1708
sg8
V1983
p1709
sa(dp1710
g2
S'Engineering NAC Meeting 1986'
p1711
sg4
Vhttp://hdl.handle.net/2027.42/88651
p1712
sg6
V.PDF file
p1713
sg8
V1986
p1714
sa(dp1715
g2
S"Engineering Research and America's Future - Meeting the Challenges of a Global Economy"
p1716
sg4
Vhttp://hdl.handle.net/2027.42/88652
p1717
sg6
V.PDF file
p1718
sg8
V2005
p1719
sa(dp1720
g2
S"Engineering Research and America's Future: Meeting the Challenges of a Global Economy"
p1721
sg4
Vhttp://hdl.handle.net/2027.42/88653
p1722
sg6
V.PDF file
p1723
sg8
V2006
p1724
sa(dp1725
g2
S"Engineering Research and America's Future: Meeting the Challenges of a Global Economy"
p1726
sg4
Vhttp://hdl.handle.net/2027.42/88655
p1727
sg6
V.PDF file
p1728
sg8
V2007
p1729
sa(dp1730
g2
S'Engineering for a Changing Road, A Roadmap to the Future of Engineering Practice, Research, and Education'
p1731
sg4
Vhttp://hdl.handle.net/2027.42/88638
p1732
sg6
V.PDF file
p1733
sg8
V2007
p1734
sa(dp1735
g2
S'Engineering for a Changing Road, A Roadmap to the Future of Engineering Practice, Research, and Education'
p1736
sg4
Vhttp://hdl.handle.net/2027.42/88639
p1737
sg6
V.PDF file
p1738
sg8
V2009
p1739
sa(dp1740
g2
S'Engineering for a Changing Road, A Roadmap to the Future of Engineering Practice, Research, and Education'
p1741
sg4
Vhttp://hdl.handle.net/2027.42/88640
p1742
sg6
V.PDF file
p1743
sg8
V2009
p1744
sa(dp1745
g2
S'Engineering for a Changing World - A Roadmap to the Future of Engineering Practice, Research, and Education'
p1746
sg4
Vhttp://hdl.handle.net/2027.42/88645
p1747
sg6
V.PDF file
p1748
sg8
V2008
p1749
sa(dp1750
g2
S'Engineering for a Changing World - A Roadmap to the Future of Engineering Practice, Research, and Education (Flexner)'
p1751
sg4
Vhttp://hdl.handle.net/2027.42/88646
p1752
sg6
V.PDF file
p1753
sg8
V2008
p1754
sa(dp1755
g2
S'Engineering for a Changing World - A Roadmap to the Future of Engineering Practice, Research, and Education - Grasso'
p1756
sg4
Vhttp://hdl.handle.net/2027.42/88644
p1757
sg6
V.PDF file
p1758
sg8
V2008
p1759
sa(dp1760
g2
S'Engineering for a Changing World - The Future of Engineering Practice, Research, and Education (ABET)'
p1761
sg4
Vhttp://hdl.handle.net/2027.42/88647
p1762
sg6
V.PDF file
p1763
sg8
V2008
p1764
sa(dp1765
g2
S'Engineering for a Changing World - The Future of Engineering Practice, Research, and Education (Canada)'
p1766
sg4
Vhttp://hdl.handle.net/2027.42/88650
p1767
sg6
V.PDF file
p1768
sg8
V2009
p1769
sa(dp1770
g2
S'Engineering for a Changing World - The Future of Engineering Practice, Research, and Education (Flexner)'
p1771
sg4
Vhttp://hdl.handle.net/2027.42/88648
p1772
sg6
V.PDF file
p1773
sg8
V2008
p1774
sa(dp1775
g2
S'Engineering for a Changing World - The Future of Engineering Practice, Research, and Education (Grasso)'
p1776
sg4
Vhttp://hdl.handle.net/2027.42/88649
p1777
sg6
V.PDF file
p1778
sg8
V2009
p1779
sa(dp1780
g2
S'Engler Add-in'
p1781
sg4
Vhttp://hdl.handle.net/2027.42/88656
p1782
sg6
V.PDF file
p1783
sg8
V1990
p1784
sa(dp1785
g2
S'Engler-BRT'
p1786
sg4
Vhttp://hdl.handle.net/2027.42/88657
p1787
sg6
V.PDF file
p1788
sg8
V1991
p1789
sa(dp1790
g2
S'Essay Subjects'
p1791
sg4
Vhttp://hdl.handle.net/2027.42/88667
p1792
sg6
V.PDF file
p1793
sg8
V1992
p1794
sa(dp1795
g2
S'Essay-Academic Leadership'
p1796
sg4
Vhttp://hdl.handle.net/2027.42/88668
p1797
sg6
V.PDF file
p1798
sg8
V1992
p1799
sa(dp1800
g2
S'Essential resource is knowledge'
p1801
sg4
Vhttp://hdl.handle.net/2027.42/79541
p1802
sg6
V.PDF file
p1803
sg8
V1994
p1804
sa(dp1805
g2
S'Ethics and Value Conference'
p1806
sg4
Vhttp://hdl.handle.net/2027.42/88669
p1807
sg6
V.PDF file
p1808
sg8
V1987
p1809
sa(dp1810
g2
S'Ethics and Values in the Contemporary University'
p1811
sg4
Vhttp://hdl.handle.net/2027.42/88670
p1812
sg6
V.PDF file
p1813
sg8
V2004-03-27
p1814
sa(dp1815
g2
S'Ethnic Studies Luncheon (10-90)'
p1816
sg4
Vhttp://hdl.handle.net/2027.42/88671
p1817
sg6
V.PDF file
p1818
sg8
V1990
p1819
sa(dp1820
g2
S'Ex Com Retreat-1-96'
p1821
sg4
Vhttp://hdl.handle.net/2027.42/88673
p1822
sg6
V.PDF file
p1823
sg8
V1996
p1824
sa(dp1825
g2
S'Executive Committee Retreat Supporting Materials'
p1826
sg4
Vhttp://hdl.handle.net/2027.42/79554
p1827
sg6
V.PDF file
p1828
sg8
V1985
p1829
sa(dp1830
g2
S'Executive Summary'
p1831
sg4
Vhttp://hdl.handle.net/2027.42/88674
p1832
sg6
V.PDF file
p1833
sg8
V2007
p1834
sa(dp1835
g2
S'Executive Summary of recommendations from NERAC'
p1836
sg4
Vhttp://hdl.handle.net/2027.42/88675
p1837
sg6
V.PDF file
p1838
sg8
V2000
p1839
sa(dp1840
g2
S'Express Site Visit 1986'
p1841
sg4
Vhttp://hdl.handle.net/2027.42/88677
p1842
sg6
V.PDF file
p1843
sg8
V1986
p1844
sa(dp1845
g2
S'External Interactions'
p1846
sg4
Vhttp://hdl.handle.net/2027.42/88678
p1847
sg6
V.PDF file
p1848
sg8
V1989
p1849
sa(dp1850
g2
S'Eye on the Ball'
p1851
sg4
Vhttp://hdl.handle.net/2027.42/88679
p1852
sg6
V.PDF file
p1853
sg8
V1988
p1854
sa(dp1855
g2
S'Eye on the Ball-II'
p1856
sg4
Vhttp://hdl.handle.net/2027.42/88680
p1857
sg6
V.PDF file
p1858
sg8
V1990
p1859
sa(dp1860
g2
S'FY88-89 Budget'
p1861
sg4
Vhttp://hdl.handle.net/2027.42/88738
p1862
sg6
V.PDF file
p1863
sg8
V1988
p1864
sa(dp1865
g2
S'Faculty Awards'
p1866
sg4
Vhttp://hdl.handle.net/2027.42/88681
p1867
sg6
V.PDF file
p1868
sg8
V1988
p1869
sa(dp1870
g2
S'Faculty Awards'
p1871
sg4
Vhttp://hdl.handle.net/2027.42/88682
p1872
sg6
V.PDF file
p1873
sg8
V1992
p1874
sa(dp1875
g2
S'Faculty Senate Assembly'
p1876
sg4
Vhttp://hdl.handle.net/2027.42/88683
p1877
sg6
V.PDF file
p1878
sg8
V1987
p1879
sa(dp1880
g2
S'Faculty Welcome 4.2'
p1881
sg4
Vhttp://hdl.handle.net/2027.42/88684
p1882
sg6
V.PDF file
p1883
sg8
V1990
p1884
sa(dp1885
g2
S'Fast Flux Test Facility'
p1886
sg4
Vhttp://hdl.handle.net/2027.42/88685
p1887
sg6
V.PDF file
p1888
sg8
V1999
p1889
sa(dp1890
g2
S'Federal R&D Policy'
p1891
sg4
Vhttp://hdl.handle.net/2027.42/88686
p1892
sg6
V.PDF file
p1893
sg8
V2006
p1894
sa(dp1895
g2
S'Federal Research Policy and the Future of the American Research University'
p1896
sg4
Vhttp://hdl.handle.net/2027.42/88688
p1897
sg6
V.PDF file
p1898
sg8
V2000-03-16
p1899
sa(dp1900
g2
S'Federal Science and Technology'
p1901
sg4
Vhttp://hdl.handle.net/2027.42/88689
p1902
sg6
V.PDF file
p1903
sg8
V2003
p1904
sa(dp1905
g2
S'Federal, Non-Federal, and Total Support for R&D as a Percent of GDP, 1953-1999'
p1906
sg4
Vhttp://hdl.handle.net/2027.42/88690
p1907
sg6
V.PDF file
p1908
sg8
V2001
p1909
sa(dp1910
g2
S'Final Comments'
p1911
sg4
Vhttp://hdl.handle.net/2027.42/88691
p1912
sg6
V.PDF file
p1913
sg8
V1996
p1914
sa(dp1915
g2
S"Financial Resources for the 1990's"
p1916
sg4
Vhttp://hdl.handle.net/2027.42/88692
p1917
sg6
V.PDF file
p1918
sg8
V1991
p1919
sa(dp1920
g2
S'Financing the Future'
p1921
sg4
Vhttp://hdl.handle.net/2027.42/88693
p1922
sg6
V.PDF file
p1923
sg8
V1991
p1924
sa(dp1925
g2
S'Financing the Public University in the New Millennium'
p1926
sg4
Vhttp://hdl.handle.net/2027.42/88694
p1927
sg6
V.PDF file
p1928
sg8
V2000-11-29
p1929
sa(dp1930
g2
S'Financing the Public University in the New Millennium 1.0'
p1931
sg4
Vhttp://hdl.handle.net/2027.42/88695
p1932
sg6
V.PDF file
p1933
sg8
V2000-11-29
p1934
sa(dp1935
g2
S'Financing the Public University in the New Millennium 2.0'
p1936
sg4
Vhttp://hdl.handle.net/2027.42/88696
p1937
sg6
V.PDF file
p1938
sg8
V2000-11-29
p1939
sa(dp1940
g2
S'Fire, Ready, Aim! University Decision-Making During an Era of Rapid Change'
p1941
sg4
Vhttp://hdl.handle.net/2027.42/57293
p1942
sg6
V.PDF file
p1943
sg8
V2001
p1944
sa(dp1945
g2
S'First guns, then pills--next big research investment will be in brainpowers, says U-M professors'
p1946
sg4
Vhttp://hdl.handle.net/2027.42/88697
p1947
sg6
V.PDF file
p1948
sg8
V2001-02-18
p1949
sa(dp1950
g2
S'Fixing the Fragmented University: A View from the Bridge'
p1951
sg4
Vhttp://hdl.handle.net/2027.42/88699
p1952
sg6
V.PDF file
p1953
sg8
V2004-09
p1954
sa(dp1955
g2
S'Fixing the Fragmented University: A View from the Bridge'
p1956
sg4
Vhttp://hdl.handle.net/2027.42/88700
p1957
sg6
V.PDF file
p1958
sg8
V2005-09
p1959
sa(dp1960
g2
S'Flat Panel Display'
p1961
sg4
Vhttp://hdl.handle.net/2027.42/88701
p1962
sg6
V.PDF file
p1963
sg8
V1994
p1964
sa(dp1965
g2
S'Flint Rotary'
p1966
sg4
Vhttp://hdl.handle.net/2027.42/88702
p1967
sg6
V.PDF file
p1968
sg8
V1990
p1969
sa(dp1970
g2
S'Flint Rotary 1994'
p1971
sg4
Vhttp://hdl.handle.net/2027.42/88703
p1972
sg6
V.PDF file
p1973
sg8
V1995
p1974
sa(dp1975
g2
S'Flint Roundtable'
p1976
sg4
Vhttp://hdl.handle.net/2027.42/88704
p1977
sg6
V.PDF file
p1978
sg8
V1993
p1979
sa(dp1980
g2
S'Flint Roundtable June 23'
p1981
sg4
Vhttp://hdl.handle.net/2027.42/88705
p1982
sg6
V.PDF file
p1983
sg8
V1993
p1984
sa(dp1985
g2
S'Flower Show Opening'
p1986
sg4
Vhttp://hdl.handle.net/2027.42/88706
p1987
sg6
V.PDF file
p1988
sg8
V1991
p1989
sa(dp1990
g2
S'Football Building Kickoff 2'
p1991
sg4
Vhttp://hdl.handle.net/2027.42/88707
p1992
sg6
V.PDF file
p1993
sg8
V1989
p1994
sa(dp1995
g2
S'Football Bust'
p1996
sg4
Vhttp://hdl.handle.net/2027.42/88708
p1997
sg6
V.PDF file
p1998
sg8
V1992
p1999
sa(dp2000
g2
S'Football Bust'
p2001
sg4
Vhttp://hdl.handle.net/2027.42/88710
p2002
sg6
V.PDF file
p2003
sg8
V1995
p2004
sa(dp2005
g2
S'Football Bust 2.0'
p2006
sg4
Vhttp://hdl.handle.net/2027.42/88711
p2007
sg6
V.PDF file
p2008
sg8
V1989
p2009
sa(dp2010
g2
S'Football Bust- Add ins'
p2011
sg4
Vhttp://hdl.handle.net/2027.42/88712
p2012
sg6
V.PDF file
p2013
sg8
V1988
p2014
sa(dp2015
g2
S'Football Bust-88'
p2016
sg4
Vhttp://hdl.handle.net/2027.42/88713
p2017
sg6
V.PDF file
p2018
sg8
V1988
p2019
sa(dp2020
g2
S'Football Training Table'
p2021
sg4
Vhttp://hdl.handle.net/2027.42/88714
p2022
sg6
V.PDF file
p2023
sg8
V1987
p2024
sa(dp2025
g2
S'For the Love of Michigan'
p2026
sg4
Vhttp://hdl.handle.net/2027.42/114392
p2027
sg6
V.PDF file
p2028
sg8
V2014-06-01
p2029
sa(dp2030
g2
S'Ford Oral'
p2031
sg4
Vhttp://hdl.handle.net/2027.42/88715
p2032
sg6
V.PDF file
p2033
sg8
V1991
p2034
sa(dp2035
g2
S'Ford School briefing on STPP Task Force'
p2036
sg4
Vhttp://hdl.handle.net/2027.42/88716
p2037
sg6
V.PDF file
p2038
sg8
V2004
p2039
sa(dp2040
g2
S'Ford Testimony'
p2041
sg4
Vhttp://hdl.handle.net/2027.42/88717
p2042
sg6
V.PDF file
p2043
sg8
V1991
p2044
sa(dp2045
g2
S'Free Press Op-Ed'
p2046
sg4
Vhttp://hdl.handle.net/2027.42/88718
p2047
sg6
V.PDF file
p2048
sg8
V1995
p2049
sa(dp2050
g2
S'Fresh Convocation 4.3'
p2051
sg4
Vhttp://hdl.handle.net/2027.42/88719
p2052
sg6
V.PDF file
p2053
sg8
V1990
p2054
sa(dp2055
g2
S'Freshman Convocation'
p2056
sg4
Vhttp://hdl.handle.net/2027.42/88721
p2057
sg6
V.PDF file
p2058
sg8
V1987
p2059
sa(dp2060
g2
S'Freshman Convocation'
p2061
sg4
Vhttp://hdl.handle.net/2027.42/88722
p2062
sg6
V.PDF file
p2063
sg8
V1988
p2064
sa(dp2065
g2
S'Freshman Convocation 3.0'
p2066
sg4
Vhttp://hdl.handle.net/2027.42/88723
p2067
sg6
V.PDF file
p2068
sg8
V1989
p2069
sa(dp2070
g2
S'Freshman Convocation 4.3'
p2071
sg4
Vhttp://hdl.handle.net/2027.42/88724
p2072
sg6
V.PDF file
p2073
sg8
V1990
p2074
sa(dp2075
g2
S'Freshman Parents'
p2076
sg4
Vhttp://hdl.handle.net/2027.42/88725
p2077
sg6
V.PDF file
p2078
sg8
V1991
p2079
sa(dp2080
g2
S'Freshperson Welcome 5.1'
p2081
sg4
Vhttp://hdl.handle.net/2027.42/88726
p2082
sg6
V.PDF file
p2083
sg8
V1991
p2084
sa(dp2085
g2
S'From Guns to Pills to Brains: Shifting Federal Research Priorities for the 21st Century'
p2086
sg4
Vhttp://hdl.handle.net/2027.42/88727
p2087
sg6
V.PDF file
p2088
sg8
V2001-04-10
p2089
sa(dp2090
g2
S'From the Dean of the College of Engineering at University of Michigan'
p2091
sg4
Vhttp://hdl.handle.net/2027.42/79565
p2092
sg6
V.PDF file
p2093
sg8
V1983
p2094
sa(dp2095
g2
S'Fund-Raising Themes'
p2096
sg4
Vhttp://hdl.handle.net/2027.42/88728
p2097
sg6
V.PDF file
p2098
sg8
V1996
p2099
sa(dp2100
g2
S'Future - Over the Horizon'
p2101
sg4
Vhttp://hdl.handle.net/2027.42/88729
p2102
sg6
V.PDF file
p2103
sg8
V2004
p2104
sa(dp2105
g2
S'Future - Over the Horizon'
p2106
sg4
Vhttp://hdl.handle.net/2027.42/88730
p2107
sg6
V.PDF file
p2108
sg8
V2006
p2109
sa(dp2110
g2
S'Futures Bibliography'
p2111
sg4
Vhttp://hdl.handle.net/2027.42/88732
p2112
sg6
V.PDF file
p2113
sg8
V1991
p2114
sa(dp2115
g2
S'Futures Group 1.0'
p2116
sg4
Vhttp://hdl.handle.net/2027.42/88733
p2117
sg6
V.PDF file
p2118
sg8
V1991
p2119
sa(dp2120
g2
S'Futures Notes'
p2121
sg4
Vhttp://hdl.handle.net/2027.42/88734
p2122
sg6
V.PDF file
p2123
sg8
V1991
p2124
sa(dp2125
g2
S'Futures Talk'
p2126
sg4
Vhttp://hdl.handle.net/2027.42/88735
p2127
sg6
V.PDF file
p2128
sg8
V1988
p2129
sa(dp2130
g2
S'Futures-Missions'
p2131
sg4
Vhttp://hdl.handle.net/2027.42/88736
p2132
sg6
V.PDF file
p2133
sg8
V1991
p2134
sa(dp2135
g2
S'Futuring'
p2136
sg4
Vhttp://hdl.handle.net/2027.42/88737
p2137
sg6
V.PDF file
p2138
sg8
V1991
p2139
sa(dp2140
g2
S'GM Spirit Awards'
p2141
sg4
Vhttp://hdl.handle.net/2027.42/88748
p2142
sg6
V.PDF file
p2143
sg8
V1990
p2144
sa(dp2145
g2
S'General Talk'
p2146
sg4
Vhttp://hdl.handle.net/2027.42/88739
p2147
sg6
V.PDF file
p2148
sg8
V1988
p2149
sa(dp2150
g2
S'General Talk-Rose Bowl'
p2151
sg4
Vhttp://hdl.handle.net/2027.42/88740
p2152
sg6
V.PDF file
p2153
sg8
V1988
p2154
sa(dp2155
g2
S'Georgia Tech-Speech'
p2156
sg4
Vhttp://hdl.handle.net/2027.42/88741
p2157
sg6
V.PDF file
p2158
sg8
V1995
p2159
sa(dp2160
g2
S'Gerald R. Ford Colloquium'
p2161
sg4
Vhttp://hdl.handle.net/2027.42/88743
p2162
sg6
V.PDF file
p2163
sg8
V1991
p2164
sa(dp2165
g2
S'Global Climate Change'
p2166
sg4
Vhttp://hdl.handle.net/2027.42/88744
p2167
sg6
V.PDF file
p2168
sg8
V2004-08-13
p2169
sa(dp2170
g2
S'Global Sustainability Glion VIII'
p2171
sg4
Vhttp://hdl.handle.net/2027.42/88745
p2172
sg6
V.PDF file
p2173
sg8
V2011
p2174
sa(dp2175
g2
S'Global Sustainability: Timescales, Magnitudes, Paradigms, and Black Swans'
p2176
sg4
Vhttp://hdl.handle.net/2027.42/88746
p2177
sg6
V.PDF file
p2178
sg8
V2011-06-18
p2179
sa(dp2180
g2
S'Globalization of the University'
p2181
sg4
Vhttp://hdl.handle.net/2027.42/88747
p2182
sg6
V.PDF file
p2183
sg8
V2007
p2184
sa(dp2185
g2
S'Gorman Rankings'
p2186
sg4
Vhttp://hdl.handle.net/2027.42/88749
p2187
sg6
V.PDF file
p2188
sg8
V1991
p2189
sa(dp2190
g2
S'Governing the 21st Century University: A View from the Bridge'
p2191
sg4
Vhttp://hdl.handle.net/2027.42/88751
p2192
sg6
V.PDF file
p2193
sg8
V2002-11-23
p2194
sa(dp2195
g2
S'Governing the 21st Century University: A View from the Bridge (2.0)'
p2196
sg4
Vhttp://hdl.handle.net/2027.42/88750
p2197
sg6
V.PDF file
p2198
sg8
V2002-11-21
p2199
sa(dp2200
g2
S'Governing the 21st Century University: A View from the Bridge (2.1)'
p2201
sg4
Vhttp://hdl.handle.net/2027.42/88752
p2202
sg6
V.PDF file
p2203
sg8
V2002-11-23
p2204
sa(dp2205
g2
S'Government-University Research Partnership: Beyond the Endless Frontier\xe2\x80\xa6?'
p2206
sg4
Vhttp://hdl.handle.net/2027.42/88755
p2207
sg6
V.PDF file
p2208
sg8
V1996-01-23
p2209
sa(dp2210
g2
S'Governor Arish'
p2211
sg4
Vhttp://hdl.handle.net/2027.42/88756
p2212
sg6
V.PDF file
p2213
sg8
V1991
p2214
sa(dp2215
g2
S"Governor's Economic"
p2216
sg4
Vhttp://hdl.handle.net/2027.42/88757
p2217
sg6
V.PDF file
p2218
sg8
V1993
p2219
sa(dp2220
g2
S'Grad Welcome'
p2221
sg4
Vhttp://hdl.handle.net/2027.42/88758
p2222
sg6
V.PDF file
p2223
sg8
V1988
p2224
sa(dp2225
g2
S'Graduate Education Faces the Digital Age'
p2226
sg4
Vhttp://hdl.handle.net/2027.42/88759
p2227
sg6
V.PDF file
p2228
sg8
V2000-12-08
p2229
sa(dp2230
g2
S'Graduate Education for a New Century'
p2231
sg4
Vhttp://hdl.handle.net/2027.42/88760
p2232
sg6
V.PDF file
p2233
sg8
V1996-05-03
p2234
sa(dp2235
g2
S'Graduate Education in Science and Engineering: A Time for Reassessment?'
p2236
sg4
Vhttp://hdl.handle.net/2027.42/88761
p2237
sg6
V.PDF file
p2238
sg8
V1998-11-12
p2239
sa(dp2240
g2
S'Graduate Student Welcome'
p2241
sg4
Vhttp://hdl.handle.net/2027.42/88762
p2242
sg6
V.PDF file
p2243
sg8
V1987
p2244
sa(dp2245
g2
S'Graduate Welcome 3.0'
p2246
sg4
Vhttp://hdl.handle.net/2027.42/88763
p2247
sg6
V.PDF file
p2248
sg8
V1989
p2249
sa(dp2250
g2
S'Graduate Welcome 4.1'
p2251
sg4
Vhttp://hdl.handle.net/2027.42/88764
p2252
sg6
V.PDF file
p2253
sg8
V1990
p2254
sa(dp2255
g2
S'Grand Rapids Economics Club'
p2256
sg4
Vhttp://hdl.handle.net/2027.42/88766
p2257
sg6
V.PDF file
p2258
sg8
V1987
p2259
sa(dp2260
g2
S'Grand Rapids Economics Club'
p2261
sg4
Vhttp://hdl.handle.net/2027.42/88767
p2262
sg6
V.PDF file
p2263
sg8
V1989
p2264
sa(dp2265
g2
S'Grand Rapids Rotary'
p2266
sg4
Vhttp://hdl.handle.net/2027.42/88768
p2267
sg6
V.PDF file
p2268
sg8
V1992
p2269
sa(dp2270
g2
S'Gratz et al v Bollinger et al.'
p2271
sg4
Vhttp://hdl.handle.net/2027.42/88769
p2272
sg6
V.PDF file
p2273
sg8
V2003
p2274
sa(dp2275
g2
S'Grosse Pointe Rot. (word)'
p2276
sg4
Vhttp://hdl.handle.net/2027.42/88770
p2277
sg6
V.PDF file
p2278
sg8
V1993
p2279
sa(dp2280
g2
S'Grosse Pointe Rotary'
p2281
sg4
Vhttp://hdl.handle.net/2027.42/88771
p2282
sg6
V.PDF file
p2283
sg8
V1993
p2284
sa(dp2285
g2
S'HBCU Remarks'
p2286
sg4
Vhttp://hdl.handle.net/2027.42/88774
p2287
sg6
V.PDF file
p2288
sg8
V1988
p2289
sa(dp2290
g2
S'Hartford Sermon 2.0 (act)'
p2291
sg4
Vhttp://hdl.handle.net/2027.42/88772
p2292
sg6
V.PDF file
p2293
sg8
V1990
p2294
sa(dp2295
g2
S'Hartford Sermon 2.1'
p2296
sg4
Vhttp://hdl.handle.net/2027.42/88773
p2297
sg6
V.PDF file
p2298
sg8
V1990
p2299
sa(dp2300
g2
S'Health System Leadership'
p2301
sg4
Vhttp://hdl.handle.net/2027.42/88775
p2302
sg6
V.PDF file
p2303
sg8
V1994
p2304
sa(dp2305
g2
S'Heartland Draft'
p2306
sg4
Vhttp://hdl.handle.net/2027.42/88777
p2307
sg6
V.PDF file
p2308
sg8
V2010
p2309
sa(dp2310
g2
S'Heisman Dinner'
p2311
sg4
Vhttp://hdl.handle.net/2027.42/88778
p2312
sg6
V.PDF file
p2313
sg8
V1991
p2314
sa(dp2315
g2
S'High School Science Visit'
p2316
sg4
Vhttp://hdl.handle.net/2027.42/88779
p2317
sg6
V.PDF file
p2318
sg8
V1990
p2319
sa(dp2320
g2
S'High Tech Talk'
p2321
sg4
Vhttp://hdl.handle.net/2027.42/88780
p2322
sg6
V.PDF file
p2323
sg8
V1995
p2324
sa(dp2325
g2
S'High Technology'
p2326
sg4
Vhttp://hdl.handle.net/2027.42/88781
p2327
sg6
V.PDF file
p2328
sg8
V1987
p2329
sa(dp2330
g2
S'High Technology in Michigan: Silicon Valley or Appalachia'
p2331
sg4
Vhttp://hdl.handle.net/2027.42/79503
p2332
sg6
V.PDF file
p2333
sg8
V1983
p2334
sa(dp2335
g2
S'Higher Education 1.0'
p2336
sg4
Vhttp://hdl.handle.net/2027.42/88782
p2337
sg6
V.PDF file
p2338
sg8
V1989
p2339
sa(dp2340
g2
S'Higher Education Today and Tomorrow: A Global Perspective'
p2341
sg4
Vhttp://hdl.handle.net/2027.42/88796
p2342
sg6
V.PDF file
p2343
sg8
V2010
p2344
sa(dp2345
g2
S'Higher Education in an Age of Knowledge'
p2346
sg4
Vhttp://hdl.handle.net/2027.42/88783
p2347
sg6
V.PDF file
p2348
sg8
V1999
p2349
sa(dp2350
g2
S'Higher Education in the 21st Century'
p2351
sg4
Vhttp://hdl.handle.net/2027.42/88784
p2352
sg6
V.PDF file
p2353
sg8
V2000-06-02
p2354
sa(dp2355
g2
S'Higher Education in the 21st Century - Global Imperatives, Regional Challenges, National Responsibilities, and Emerging Opportunities'
p2356
sg4
Vhttp://hdl.handle.net/2027.42/88785
p2357
sg6
V.PDF file
p2358
sg8
V2007
p2359
sa(dp2360
g2
S'Higher Education in the 21st Century - National Imperatives, Global Opportunities'
p2361
sg4
Vhttp://hdl.handle.net/2027.42/88786
p2362
sg6
V.PDF file
p2363
sg8
V2007
p2364
sa(dp2365
g2
S'Higher Education in the 21st Century: Global Imperatives, Regional Challenges, National Responsibilities, and Emerging Challenges'
p2366
sg4
Vhttp://hdl.handle.net/2027.42/88788
p2367
sg6
V.PDF file
p2368
sg8
V2007-09-01
p2369
sa(dp2370
g2
S'Higher Education in the 21st Century: Global Imperatives, Regional Challenges, National Responsibilities, and Emerging Opportunities'
p2371
sg4
Vhttp://hdl.handle.net/2027.42/88789
p2372
sg6
V.PDF file
p2373
sg8
V2007-09-01
p2374
sa(dp2375
g2
S'Higher Education in the New Century'
p2376
sg4
Vhttp://hdl.handle.net/2027.42/88790
p2377
sg6
V.PDF file
p2378
sg8
V2002-06-22
p2379
sa(dp2380
g2
S'Higher Education in the New Century: Themes, Challenges, and Opportunities'
p2381
sg4
Vhttp://hdl.handle.net/2027.42/88791
p2382
sg6
V.PDF file
p2383
sg8
V2002-06-22
p2384
sa(dp2385
g2
S'Higher Education in the New Century: Themes, Challenges, and Opportunities'
p2386
sg4
Vhttp://hdl.handle.net/2027.42/88792
p2387
sg6
V.PDF file
p2388
sg8
V2005
p2389
sa(dp2390
g2
S'Higher Education in the New Century: Themes, Challenges, and Options (UCLA)'
p2391
sg4
Vhttp://hdl.handle.net/2027.42/88793
p2392
sg6
V.PDF file
p2393
sg8
V2003-02-06
p2394
sa(dp2395
g2
S'Higher Education in the New Century: Themes, Challenges, and Options (USC)'
p2396
sg4
Vhttp://hdl.handle.net/2027.42/88794
p2397
sg6
V.PDF file
p2398
sg8
V2003-02-06
p2399
sa(dp2400
g2
S'Higher Education in the United States'
p2401
sg4
Vhttp://hdl.handle.net/2027.42/88795
p2402
sg6
V.PDF file
p2403
sg8
V2007
p2404
sa(dp2405
g2
S'Higher Education, A Global Perspective'
p2406
sg4
Vhttp://hdl.handle.net/2027.42/88797
p2407
sg6
V.PDF file
p2408
sg8
V2008
p2409
sa(dp2410
g2
S'Higher Learning in the Digital Age'
p2411
sg4
Vhttp://hdl.handle.net/2027.42/88799
p2412
sg6
V.PDF file
p2413
sg8
V2004
p2414
sa(dp2415
g2
S'Higher Learning in the Digital Age: An Update on a National Academies Study'
p2416
sg4
Vhttp://hdl.handle.net/2027.42/88800
p2417
sg6
V.PDF file
p2418
sg8
V2004-05-21
p2419
sa(dp2420
g2
S'Higher Learning in the Digital Age: An Update on a National Academies Study'
p2421
sg4
Vhttp://hdl.handle.net/2027.42/88802
p2422
sg6
V.PDF file
p2423
sg8
V2004-10-20
p2424
sa(dp2425
g2
S'Higher Learning in the Digital Age: An Update on a National Academies Study (Educause)'
p2426
sg4
Vhttp://hdl.handle.net/2027.42/88801
p2427
sg6
V.PDF file
p2428
sg8
V2004-10-20
p2429
sa(dp2430
g2
S'Hispanic Heritage'
p2431
sg4
Vhttp://hdl.handle.net/2027.42/88803
p2432
sg6
V.PDF file
p2433
sg8
V1989
p2434
sa(dp2435
g2
S'Holiday Card'
p2436
sg4
Vhttp://hdl.handle.net/2027.42/88804
p2437
sg6
V.PDF file
p2438
sg8
V1993
p2439
sa(dp2440
g2
S'Homecoming Welcome'
p2441
sg4
Vhttp://hdl.handle.net/2027.42/88805
p2442
sg6
V.PDF file
p2443
sg8
V1987
p2444
sa(dp2445
g2
S'Homecoming-89'
p2446
sg4
Vhttp://hdl.handle.net/2027.42/88806
p2447
sg6
V.PDF file
p2448
sg8
V1989
p2449
sa(dp2450
g2
S'Honorary Degree Dinner'
p2451
sg4
Vhttp://hdl.handle.net/2027.42/88807
p2452
sg6
V.PDF file
p2453
sg8
V1991
p2454
sa(dp2455
g2
S'Honorary Degree Dinner'
p2456
sg4
Vhttp://hdl.handle.net/2027.42/88808
p2457
sg6
V.PDF file
p2458
sg8
V1993
p2459
sa(dp2460
g2
S'Honors Convocation'
p2461
sg4
Vhttp://hdl.handle.net/2027.42/88810
p2462
sg6
V.PDF file
p2463
sg8
V1988
p2464
sa(dp2465
g2
S'Honors Convocation'
p2466
sg4
Vhttp://hdl.handle.net/2027.42/88811
p2467
sg6
V.PDF file
p2468
sg8
V1996
p2469
sa(dp2470
g2
S'Honors Convocation-1989'
p2471
sg4
Vhttp://hdl.handle.net/2027.42/88812
p2472
sg6
V.PDF file
p2473
sg8
V1989
p2474
sa(dp2475
g2
S'Honors Convocation-1991'
p2476
sg4
Vhttp://hdl.handle.net/2027.42/88813
p2477
sg6
V.PDF file
p2478
sg8
V1991
p2479
sa(dp2480
g2
S'House Appropriations Committee'
p2481
sg4
Vhttp://hdl.handle.net/2027.42/88814
p2482
sg6
V.PDF file
p2483
sg8
V1989
p2484
sa(dp2485
g2
S'How Do We Get From Here to There?'
p2486
sg4
Vhttp://hdl.handle.net/2027.42/88815
p2487
sg6
V.PDF file
p2488
sg8
V2007
p2489
sa(dp2490
g2
S'Hubs of Transformation: Leveraging the Great Lakes Research Complex for Energy Innovation'
p2491
sg4
Vhttp://hdl.handle.net/2027.42/88816
p2492
sg6
V.PDF file
p2493
sg8
V2010
p2494
sa(dp2495
g2
S'Hubs of Transformation: Leveraging the Great Lakes Research Complex for Energy Innovation'
p2496
sg4
Vhttp://hdl.handle.net/2027.42/88817
p2497
sg6
V.PDF file
p2498
sg8
V2010-06
p2499
sa(dp2500
g2
S'Hubs of Transformation: Leveraging the Great Lakes Research Complex for Energy Sector Innovation'
p2501
sg4
Vhttp://hdl.handle.net/2027.42/88818
p2502
sg6
V.PDF file
p2503
sg8
V2008
p2504
sa(dp2505
g2
S'Human Genetics'
p2506
sg4
Vhttp://hdl.handle.net/2027.42/88819
p2507
sg6
V.PDF file
p2508
sg8
V1987
p2509
sa(dp2510
g2
S'Hydrogen Initiatives Draft 2.2'
p2511
sg4
Vhttp://hdl.handle.net/2027.42/88821
p2512
sg6
V.PDF file
p2513
sg8
V2004
p2514
sa(dp2515
g2
S'ICPSR Welcome'
p2516
sg4
Vhttp://hdl.handle.net/2027.42/88822
p2517
sg6
V.PDF file
p2518
sg8
V1987
p2519
sa(dp2520
g2
S'ICR'
p2521
sg4
Vhttp://hdl.handle.net/2027.42/88823
p2522
sg6
V.PDF file
p2523
sg8
V1991
p2524
sa(dp2525
g2
S'ICR Points'
p2526
sg4
Vhttp://hdl.handle.net/2027.42/88824
p2527
sg6
V.PDF file
p2528
sg8
V1991
p2529
sa(dp2530
g2
S'IFS Reception'
p2531
sg4
Vhttp://hdl.handle.net/2027.42/88825
p2532
sg6
V.PDF file
p2533
sg8
V1988
p2534
sa(dp2535
g2
S'IPPS Talk'
p2536
sg4
Vhttp://hdl.handle.net/2027.42/88863
p2537
sg6
V.PDF file
p2538
sg8
V1989
p2539
sa(dp2540
g2
S'ITFRU Project, Technology Subcommittee Meeting, minutes'
p2541
sg4
Vhttp://hdl.handle.net/2027.42/88867
p2542
sg6
V.PDF file
p2543
sg8
V2000-05-23
p2544
sa(dp2545
g2
S'ITI Meeting'
p2546
sg4
Vhttp://hdl.handle.net/2027.42/88868
p2547
sg6
V.PDF file
p2548
sg8
V1990
p2549
sa(dp2550
g2
S'ITIC'
p2551
sg4
Vhttp://hdl.handle.net/2027.42/88869
p2552
sg6
V.PDF file
p2553
sg8
V1992
p2554
sa(dp2555
g2
S'In Search of a 2x4: Change and the Academy'
p2556
sg4
Vhttp://hdl.handle.net/2027.42/88827
p2557
sg6
V.PDF file
p2558
sg8
V2001-10-19
p2559
sa(dp2560
g2
S'In Search of a 2x4: Change and the Academy'
p2561
sg4
Vhttp://hdl.handle.net/2027.42/88828
p2562
sg6
V.PDF file
p2563
sg8
V2001-11-07
p2564
sa(dp2565
g2
S'In Search of a 2x4: Change and the Academy (1.2)'
p2566
sg4
Vhttp://hdl.handle.net/2027.42/88826
p2567
sg6
V.PDF file
p2568
sg8
V2001-10-19
p2569
sa(dp2570
g2
S'In the beginning\xe2\x80\xa6there was the central 40 acre campus (1)'
p2571
sg4
Vhttp://hdl.handle.net/2027.42/88829
p2572
sg6
V.PDF file
p2573
sg8
V2002
p2574
sa(dp2575
g2
S'In the beginning\xe2\x80\xa6there was the central 40 acre campus (2)'
p2576
sg4
Vhttp://hdl.handle.net/2027.42/88830
p2577
sg6
V.PDF file
p2578
sg8
V2002
p2579
sa(dp2580
g2
S'Inaugural Breakfast'
p2581
sg4
Vhttp://hdl.handle.net/2027.42/88832
p2582
sg6
V.PDF file
p2583
sg8
V1988
p2584
sa(dp2585
g2
S'Inaugural Luncheon'
p2586
sg4
Vhttp://hdl.handle.net/2027.42/88833
p2587
sg6
V.PDF file
p2588
sg8
V1988
p2589
sa(dp2590
g2
S'Inaugural Student Picnic'
p2591
sg4
Vhttp://hdl.handle.net/2027.42/88834
p2592
sg6
V.PDF file
p2593
sg8
V1988
p2594
sa(dp2595
g2
S'Inauguration 1.2'
p2596
sg4
Vhttp://hdl.handle.net/2027.42/88835
p2597
sg6
V.PDF file
p2598
sg8
V1988
p2599
sa(dp2600
g2
S'Inauguration Final Speech'
p2601
sg4
Vhttp://hdl.handle.net/2027.42/88836
p2602
sg6
V.PDF file
p2603
sg8
V1988
p2604
sa(dp2605
g2
S'Inauguration Remarks List'
p2606
sg4
Vhttp://hdl.handle.net/2027.42/88838
p2607
sg6
V.PDF file
p2608
sg8
V1988
p2609
sa(dp2610
g2
S'Inauguration Week Talks'
p2611
sg4
Vhttp://hdl.handle.net/2027.42/88839
p2612
sg6
V.PDF file
p2613
sg8
V1988
p2614
sa(dp2615
g2
S'Inauguration of President Maureen Hartford'
p2616
sg4
Vhttp://hdl.handle.net/2027.42/88837
p2617
sg6
V.PDF file
p2618
sg8
V2000
p2619
sa(dp2620
g2
S'Independent Rankings'
p2621
sg4
Vhttp://hdl.handle.net/2027.42/88840
p2622
sg6
V.PDF file
p2623
sg8
V1991
p2624
sa(dp2625
g2
S'Industrial Technology Institute Dedication'
p2626
sg4
Vhttp://hdl.handle.net/2027.42/88841
p2627
sg6
V.PDF file
p2628
sg8
V1987
p2629
sa(dp2630
g2
S'Information Technology and the Future of the Research University (NRC)'
p2631
sg4
Vhttp://hdl.handle.net/2027.42/88843
p2632
sg6
V.PDF file
p2633
sg8
V2002
p2634
sa(dp2635
g2
S'Information Technology and the Future of the University'
p2636
sg4
Vhttp://hdl.handle.net/2027.42/88844
p2637
sg6
V.PDF file
p2638
sg8
V2002
p2639
sa(dp2640
g2
S'Information Technology and the Future of the University'
p2641
sg4
Vhttp://hdl.handle.net/2027.42/88846
p2642
sg6
V.PDF file
p2643
sg8
V2003
p2644
sa(dp2645
g2
S'Information Technology and the Future of the University'
p2646
sg4
Vhttp://hdl.handle.net/2027.42/88847
p2647
sg6
V.PDF file
p2648
sg8
V2005
p2649
sa(dp2650
g2
S'Information Technology and the Future of the University (5.0)'
p2651
sg4
Vhttp://hdl.handle.net/2027.42/88845
p2652
sg6
V.PDF file
p2653
sg8
V2002
p2654
sa(dp2655
g2
S'Inglis House Faculty Dinners'
p2656
sg4
Vhttp://hdl.handle.net/2027.42/88848
p2657
sg6
V.PDF file
p2658
sg8
V1987
p2659
sa(dp2660
g2
S'Innovation Theme'
p2661
sg4
Vhttp://hdl.handle.net/2027.42/88849
p2662
sg6
V.PDF file
p2663
sg8
V2004
p2664
sa(dp2665
g2
S'Institutional Saga'
p2666
sg4
Vhttp://hdl.handle.net/2027.42/88850
p2667
sg6
V.PDF file
p2668
sg8
V2006
p2669
sa(dp2670
g2
S'Intellectual Inventory'
p2671
sg4
Vhttp://hdl.handle.net/2027.42/79504
p2672
sg6
V.PDF file
p2673
sg8
V1984
p2674
sa(dp2675
g2
S'Intellectual Transformation'
p2676
sg4
Vhttp://hdl.handle.net/2027.42/88851
p2677
sg6
V.PDF file
p2678
sg8
V1995
p2679
sa(dp2680
g2
S'Intellectual Transformation at the University of Michigan'
p2681
sg4
Vhttp://hdl.handle.net/2027.42/79546
p2682
sg6
V.PDF file
p2683
sg8
V1995
p2684
sa(dp2685
g2
S'Intercollege Athletics'
p2686
sg4
Vhttp://hdl.handle.net/2027.42/79559
p2687
sg6
V.PDF file
p2688
sg8
V1996
p2689
sa(dp2690
g2
S'Intercollegiate athletics'
p2691
sg4
Vhttp://hdl.handle.net/2027.42/88852
p2692
sg6
V.PDF file
p2693
sg8
V2002
p2694
sa(dp2695
g2
S'Intern Forum (9-89)'
p2696
sg4
Vhttp://hdl.handle.net/2027.42/88854
p2697
sg6
V.PDF file
p2698
sg8
V1989
p2699
sa(dp2700
g2
S'International Issues'
p2701
sg4
Vhttp://hdl.handle.net/2027.42/88855
p2702
sg6
V.PDF file
p2703
sg8
V1989
p2704
sa(dp2705
g2
S'Internationalization'
p2706
sg4
Vhttp://hdl.handle.net/2027.42/88856
p2707
sg6
V.PDF file
p2708
sg8
V1989
p2709
sa(dp2710
g2
S'Internet2 Statute'
p2711
sg4
Vhttp://hdl.handle.net/2027.42/88857
p2712
sg6
V.PDF file
p2713
sg8
V2001-02-06
p2714
sa(dp2715
g2
S'Introduction'
p2716
sg4
Vhttp://hdl.handle.net/2027.42/88858
p2717
sg6
V.PDF file
p2718
sg8
V2004
p2719
sa(dp2720
g2
S'Introduction'
p2721
sg4
Vhttp://hdl.handle.net/2027.42/88859
p2722
sg6
V.PDF file
p2723
sg8
V2005
p2724
sa(dp2725
g2
S'Introduction'
p2726
sg4
Vhttp://hdl.handle.net/2027.42/88860
p2727
sg6
V.PDF file
p2728
sg8
V2003
p2729
sa(dp2730
g2
S'Investments'
p2731
sg4
Vhttp://hdl.handle.net/2027.42/88861
p2732
sg6
V.PDF file
p2733
sg8
V1988
p2734
sa(dp2735
g2
S'Investments'
p2736
sg4
Vhttp://hdl.handle.net/2027.42/88862
p2737
sg6
V.PDF file
p2738
sg8
V1991
p2739
sa(dp2740
g2
S'Ionization and radiation dynamics of carbon ablation plasmas'
p2741
sg4
Vhttp://hdl.handle.net/2027.42/70292
p2742
sg6
V.PDF file
p2743
sg8
V1987-08-15
p2744
sa(dp2745
g2
S'Ionization and radiation dynamics of dense MHD plasmas'
p2746
sg4
Vhttp://hdl.handle.net/2027.42/70635
p2747
sg6
V.PDF file
p2748
sg8
V1978-08
p2749
sa(dp2750
g2
S'Issues for Science and Engineering Researchers in the Digital Age'
p2751
sg4
Vhttp://hdl.handle.net/2027.42/88866
p2752
sg6
V.PDF file
p2753
sg8
V2001
p2754
sa(dp2755
g2
S'JJD Remarks'
p2756
sg4
Vhttp://hdl.handle.net/2027.42/88873
p2757
sg6
V.PDF file
p2758
sg8
V2006
p2759
sa(dp2760
g2
S'JJD Student Letter'
p2761
sg4
Vhttp://hdl.handle.net/2027.42/88874
p2762
sg6
V.PDF file
p2763
sg8
V1989
p2764
sa(dp2765
g2
S'JJD Student Letter'
p2766
sg4
Vhttp://hdl.handle.net/2027.42/88875
p2767
sg6
V.PDF file
p2768
sg8
V1990
p2769
sa(dp2770
g2
S'JJD impressions of being president'
p2771
sg4
Vhttp://hdl.handle.net/2027.42/88872
p2772
sg6
V.PDF file
p2773
sg8
V1996
p2774
sa(dp2775
g2
S'Jewish Federation'
p2776
sg4
Vhttp://hdl.handle.net/2027.42/88870
p2777
sg6
V.PDF file
p2778
sg8
V1995
p2779
sa(dp2780
g2
S'Jewish Federation Forum'
p2781
sg4
Vhttp://hdl.handle.net/2027.42/88871
p2782
sg6
V.PDF file
p2783
sg8
V1996-04-10
p2784
sa(dp2785
g2
S'Just as our society and our social institutions are being reshaped by the rapid advances in information technology\xe2\x80\xa6'
p2786
sg4
Vhttp://hdl.handle.net/2027.42/88877
p2787
sg6
V.PDF file
p2788
sg8
V2000-04-01
p2789
sa(dp2790
g2
S'K-12 Education Cranbrook'
p2791
sg4
Vhttp://hdl.handle.net/2027.42/88878
p2792
sg6
V.PDF file
p2793
sg8
V1990
p2794
sa(dp2795
g2
S'K-12 Talk'
p2796
sg4
Vhttp://hdl.handle.net/2027.42/88879
p2797
sg6
V.PDF file
p2798
sg8
V1996
p2799
sa(dp2800
g2
S'Key Focus Areas'
p2801
sg4
Vhttp://hdl.handle.net/2027.42/88880
p2802
sg6
V.PDF file
p2803
sg8
V1991
p2804
sa(dp2805
g2
S'Key Points of Brookings Institution Next Energy Project'
p2806
sg4
Vhttp://hdl.handle.net/2027.42/88881
p2807
sg6
V.PDF file
p2808
sg8
V2009
p2809
sa(dp2810
g2
S'Key Points related to the Ford Nuclear Reactor at the Phoenix Memorial Laboratory'
p2811
sg4
Vhttp://hdl.handle.net/2027.42/88882
p2812
sg6
V.PDF file
p2813
sg8
V2003
p2814
sa(dp2815
g2
S'Keynote Address, James Duderstadt, U of M'
p2816
sg4
Vhttp://hdl.handle.net/2027.42/88883
p2817
sg6
V.PDF file
p2818
sg8
V2004
p2819
sa(dp2820
g2
S'LA Major Gifts'
p2821
sg4
Vhttp://hdl.handle.net/2027.42/88884
p2822
sg6
V.PDF file
p2823
sg8
V1989
p2824
sa(dp2825
g2
S'Lagatus'
p2826
sg4
Vhttp://hdl.handle.net/2027.42/88885
p2827
sg6
V.PDF file
p2828
sg8
V1989
p2829
sa(dp2830
g2
S'Lapeer Rotary 1.1'
p2831
sg4
Vhttp://hdl.handle.net/2027.42/88886
p2832
sg6
V.PDF file
p2833
sg8
V1992
p2834
sa(dp2835
g2
S'Laser heating of a dense plasma pinch'
p2836
sg4
Vhttp://hdl.handle.net/2027.42/69358
p2837
sg6
V.PDF file
p2838
sg8
V1975-03
p2839
sa(dp2840
g2
S'Last Letter'
p2841
sg4
Vhttp://hdl.handle.net/2027.42/88888
p2842
sg6
V.PDF file
p2843
sg8
V1996
p2844
sa(dp2845
g2
S'Lead Network 1.2'
p2846
sg4
Vhttp://hdl.handle.net/2027.42/88889
p2847
sg6
V.PDF file
p2848
sg8
V1988
p2849
sa(dp2850
g2
S'Lead Network 1.4'
p2851
sg4
Vhttp://hdl.handle.net/2027.42/88890
p2852
sg6
V.PDF file
p2853
sg8
V1988
p2854
sa(dp2855
g2
S'Lead Network Talk 1.3'
p2856
sg4
Vhttp://hdl.handle.net/2027.42/88891
p2857
sg6
V.PDF file
p2858
sg8
V1988
p2859
sa(dp2860
g2
S'Leadership Ann Arbor'
p2861
sg4
Vhttp://hdl.handle.net/2027.42/88892
p2862
sg6
V.PDF file
p2863
sg8
V1996
p2864
sa(dp2865
g2
S'Leadership Network 2.0'
p2866
sg4
Vhttp://hdl.handle.net/2027.42/88893
p2867
sg6
V.PDF file
p2868
sg8
V1989
p2869
sa(dp2870
g2
S'Leadership Retreat'
p2871
sg4
Vhttp://hdl.handle.net/2027.42/88894
p2872
sg6
V.PDF file
p2873
sg8
V1989
p2874
sa(dp2875
g2
S'Leadership Retreat'
p2876
sg4
Vhttp://hdl.handle.net/2027.42/88895
p2877
sg6
V.PDF file
p2878
sg8
V1990
p2879
sa(dp2880
g2
S'Leadership Retreat-F90'
p2881
sg4
Vhttp://hdl.handle.net/2027.42/88896
p2882
sg6
V.PDF file
p2883
sg8
V1990
p2884
sa(dp2885
g2
S'Leadership for the 21st Century: Strategic Planning at the University of Michigan'
p2886
sg4
Vhttp://hdl.handle.net/2027.42/79490
p2887
sg6
V.PDF file
p2888
sg8
V1994
p2889
sa(dp2890
g2
S'Leadership for the 21st Century: Strategic Planning at the University of Michigan'
p2891
sg4
Vhttp://hdl.handle.net/2027.42/79523
p2892
sg6
V.PDF file
p2893
sg8
V1994
p2894
sa(dp2895
g2
S'Leading Higher Education In an Era of Rapid Change'
p2896
sg4
Vhttp://hdl.handle.net/2027.42/88897
p2897
sg6
V.PDF file
p2898
sg8
V2001-07-30
p2899
sa(dp2900
g2
S'Leading Higher Education In an Era of Rapid Change'
p2901
sg4
Vhttp://hdl.handle.net/2027.42/88899
p2902
sg6
V.PDF file
p2903
sg8
V2001-07-30
p2904
sa(dp2905
g2
S'Leading Higher Education In an Era of Rapid Change'
p2906
sg4
Vhttp://hdl.handle.net/2027.42/88900
p2907
sg6
V.PDF file
p2908
sg8
V2001-11-16
p2909
sa(dp2910
g2
S'Leading Higher Education In an Era of Rapid Change (1.0)'
p2911
sg4
Vhttp://hdl.handle.net/2027.42/88901
p2912
sg6
V.PDF file
p2913
sg8
V2001-11-16
p2914
sa(dp2915
g2
S'Learn Grant'
p2916
sg4
Vhttp://hdl.handle.net/2027.42/88902
p2917
sg6
V.PDF file
p2918
sg8
V2006
p2919
sa(dp2920
g2
S'Legislative Luncheon'
p2921
sg4
Vhttp://hdl.handle.net/2027.42/88903
p2922
sg6
V.PDF file
p2923
sg8
V1988
p2924
sa(dp2925
g2
S'Legislators Briefing'
p2926
sg4
Vhttp://hdl.handle.net/2027.42/88904
p2927
sg6
V.PDF file
p2928
sg8
V1987
p2929
sa(dp2930
g2
S'Legislature'
p2931
sg4
Vhttp://hdl.handle.net/2027.42/88905
p2932
sg6
V.PDF file
p2933
sg8
V1988
p2934
sa(dp2935
g2
S'Letter of congratulations to Mary Sue Coleman'
p2936
sg4
Vhttp://hdl.handle.net/2027.42/88906
p2937
sg6
V.PDF file
p2938
sg8
V2002
p2939
sa(dp2940
g2
S'Letter to Judy (ACEHR), further thoughts on Age of Knowledge'
p2941
sg4
Vhttp://hdl.handle.net/2027.42/88907
p2942
sg6
V.PDF file
p2943
sg8
V2000
p2944
sa(dp2945
g2
S'Letter to Werner Hirsch regarding ideas of the Glion IV conference'
p2946
sg4
Vhttp://hdl.handle.net/2027.42/88910
p2947
sg6
V.PDF file
p2948
sg8
V2002
p2949
sa(dp2950
g2
S'Letter to Werner Hirsch regarding ideas of the Glion IV conference'
p2951
sg4
Vhttp://hdl.handle.net/2027.42/88911
p2952
sg6
V.PDF file
p2953
sg8
V2002-12-03
p2954
sa(dp2955
g2
S'Letter to the Michigan Daily clarifying remarks on "Duderstadt criticizes current diversity plan"'
p2956
sg4
Vhttp://hdl.handle.net/2027.42/88908
p2957
sg6
V.PDF file
p2958
sg8
V2003
p2959
sa(dp2960
g2
S'Letter-final external'
p2961
sg4
Vhttp://hdl.handle.net/2027.42/88912
p2962
sg6
V.PDF file
p2963
sg8
V1996
p2964
sa(dp2965
g2
S'Letter-final internal'
p2966
sg4
Vhttp://hdl.handle.net/2027.42/88913
p2967
sg6
V.PDF file
p2968
sg8
V1996
p2969
sa(dp2970
g2
S'Library Science (10-90)'
p2971
sg4
Vhttp://hdl.handle.net/2027.42/88914
p2972
sg6
V.PDF file
p2973
sg8
V1990
p2974
sa(dp2975
g2
S'Life After Copy'
p2976
sg4
Vhttp://hdl.handle.net/2027.42/88915
p2977
sg6
V.PDF file
p2978
sg8
V1996
p2979
sa(dp2980
g2
S'Listen and Learn'
p2981
sg4
Vhttp://hdl.handle.net/2027.42/88916
p2982
sg6
V.PDF file
p2983
sg8
V1989
p2984
sa(dp2985
g2
S'Listen and Learn'
p2986
sg4
Vhttp://hdl.handle.net/2027.42/88917
p2987
sg6
V.PDF file
p2988
sg8
V1993
p2989
sa(dp2990
g2
S'Los Angeles Dinner'
p2991
sg4
Vhttp://hdl.handle.net/2027.42/88918
p2992
sg6
V.PDF file
p2993
sg8
V1989
p2994
sa(dp2995
g2
S'Lunch and Learn'
p2996
sg4
Vhttp://hdl.handle.net/2027.42/88919
p2997
sg6
V.PDF file
p2998
sg8
V1993
p2999
sa(dp3000
g2
S'M-Club Talk'
p3001
sg4
Vhttp://hdl.handle.net/2027.42/88921
p3002
sg6
V.PDF file
p3003
sg8
V1989
p3004
sa(dp3005
g2
S'MBRT Dinner'
p3006
sg4
Vhttp://hdl.handle.net/2027.42/88929
p3007
sg6
V.PDF file
p3008
sg8
V1991
p3009
sa(dp3010
g2
S'MLK Closing'
p3011
sg4
Vhttp://hdl.handle.net/2027.42/89005
p3012
sg6
V.PDF file
p3013
sg8
V1990
p3014
sa(dp3015
g2
S'MLK Day Remarks'
p3016
sg4
Vhttp://hdl.handle.net/2027.42/89006
p3017
sg6
V.PDF file
p3018
sg8
V2001
p3019
sa(dp3020
g2
S'MLK Opening'
p3021
sg4
Vhttp://hdl.handle.net/2027.42/89007
p3022
sg6
V.PDF file
p3023
sg8
V1989
p3024
sa(dp3025
g2
S'MLK Symposium Opening'
p3026
sg4
Vhttp://hdl.handle.net/2027.42/89008
p3027
sg6
V.PDF file
p3028
sg8
V1991
p3029
sa(dp3030
g2
S'MLK Welcome'
p3031
sg4
Vhttp://hdl.handle.net/2027.42/89010
p3032
sg6
V.PDF file
p3033
sg8
V1990
p3034
sa(dp3035
g2
S'MLK-Business and Finance'
p3036
sg4
Vhttp://hdl.handle.net/2027.42/89011
p3037
sg6
V.PDF file
p3038
sg8
V1989
p3039
sa(dp3040
g2
S'MLK-Unity March'
p3041
sg4
Vhttp://hdl.handle.net/2027.42/89012
p3042
sg6
V.PDF file
p3043
sg8
V1989
p3044
sa(dp3045
g2
S'MSU-Govt.-U Research Partnership'
p3046
sg4
Vhttp://hdl.handle.net/2027.42/89015
p3047
sg6
V.PDF file
p3048
sg8
V1996
p3049
sa(dp3050
g2
S'Major Gifts Address 2.0'
p3051
sg4
Vhttp://hdl.handle.net/2027.42/88922
p3052
sg6
V.PDF file
p3053
sg8
V1989
p3054
sa(dp3055
g2
S'Major Gifts Committee 1.0'
p3056
sg4
Vhttp://hdl.handle.net/2027.42/88923
p3057
sg6
V.PDF file
p3058
sg8
V1990
p3059
sa(dp3060
g2
S'Major Gifts Meeting'
p3061
sg4
Vhttp://hdl.handle.net/2027.42/88924
p3062
sg6
V.PDF file
p3063
sg8
V1989
p3064
sa(dp3065
g2
S'Manufacturing Forum'
p3066
sg4
Vhttp://hdl.handle.net/2027.42/88925
p3067
sg6
V.PDF file
p3068
sg8
V1990
p3069
sa(dp3070
g2
S'Master speech list'
p3071
sg4
Vhttp://hdl.handle.net/2027.42/88926
p3072
sg6
V.PDF file
p3073
sg8
V1991
p3074
sa(dp3075
g2
S'Material concerning the IT-Higher ed project'
p3076
sg4
Vhttp://hdl.handle.net/2027.42/88927
p3077
sg6
V.PDF file
p3078
sg8
V2000
p3079
sa(dp3080
g2
S'Maternal and Child Health'
p3081
sg4
Vhttp://hdl.handle.net/2027.42/88928
p3082
sg6
V.PDF file
p3083
sg8
V1990
p3084
sa(dp3085
g2
S'McGill Commencement Address'
p3086
sg4
Vhttp://hdl.handle.net/2027.42/88930
p3087
sg6
V.PDF file
p3088
sg8
V2009-05-26
p3089
sa(dp3090
g2
S'McGill Engineering Commencement Address - JJD'
p3091
sg4
Vhttp://hdl.handle.net/2027.42/88932
p3092
sg6
V.PDF file
p3093
sg8
V2009-05-25
p3094
sa(dp3095
g2
S"Mechanisms for Making Financial Contributions to the Faculty Women's Club"
p3096
sg4
Vhttp://hdl.handle.net/2027.42/88933
p3097
sg6
V.PDF file
p3098
sg8
V1999
p3099
sa(dp3100
g2
S'Medallion Inscription'
p3101
sg4
Vhttp://hdl.handle.net/2027.42/88934
p3102
sg6
V.PDF file
p3103
sg8
V1996
p3104
sa(dp3105
g2
S'Medallion List'
p3106
sg4
Vhttp://hdl.handle.net/2027.42/88935
p3107
sg6
V.PDF file
p3108
sg8
V1996
p3109
sa(dp3110
g2
S'Media Union'
p3111
sg4
Vhttp://hdl.handle.net/2027.42/88936
p3112
sg6
V.PDF file
p3113
sg8
V2000
p3114
sa(dp3115
g2
S'Media Union Dedication'
p3116
sg4
Vhttp://hdl.handle.net/2027.42/88937
p3117
sg6
V.PDF file
p3118
sg8
V1996
p3119
sa(dp3120
g2
S'Medical Center Reception'
p3121
sg4
Vhttp://hdl.handle.net/2027.42/88938
p3122
sg6
V.PDF file
p3123
sg8
V1988
p3124
sa(dp3125
g2
S'Medical Education'
p3126
sg4
Vhttp://hdl.handle.net/2027.42/88939
p3127
sg6
V.PDF file
p3128
sg8
V1988
p3129
sa(dp3130
g2
S'Medical School Discussion'
p3131
sg4
Vhttp://hdl.handle.net/2027.42/88940
p3132
sg6
V.PDF file
p3133
sg8
V1990
p3134
sa(dp3135
g2
S'Medical School Faculty Presentation 1986'
p3136
sg4
Vhttp://hdl.handle.net/2027.42/88941
p3137
sg6
V.PDF file
p3138
sg8
V1986
p3139
sa(dp3140
g2
S'Meeting Summary [of] Impact of Information Technology on the Future of the Research University'
p3141
sg4
Vhttp://hdl.handle.net/2027.42/88943
p3142
sg6
V.PDF file
p3143
sg8
V2000-08-24
p3144
sa(dp3145
g2
S"Meeting Summary, Faculty Women's Club Endowment Fund"
p3146
sg4
Vhttp://hdl.handle.net/2027.42/88944
p3147
sg6
V.PDF file
p3148
sg8
V1998-06-28
p3149
sa(dp3150
g2
S'Memo to Coleman, naming of the Media Union'
p3151
sg4
Vhttp://hdl.handle.net/2027.42/88945
p3152
sg6
V.PDF file
p3153
sg8
V2003-09-19
p3154
sa(dp3155
g2
S'Memo to Ulaby, related to MMPP'
p3156
sg4
Vhttp://hdl.handle.net/2027.42/88948
p3157
sg6
V.PDF file
p3158
sg8
V2004
p3159
sa(dp3160
g2
S'Memo to Ulaby, related to umich alternative energy'
p3161
sg4
Vhttp://hdl.handle.net/2027.42/88949
p3162
sg6
V.PDF file
p3163
sg8
V2004
p3164
sa(dp3165
g2
S'Memo to Washington and Richardson, subject: Federal Science and Technology Budget'
p3166
sg4
Vhttp://hdl.handle.net/2027.42/88950
p3167
sg6
V.PDF file
p3168
sg8
V2003-03-28
p3169
sa(dp3170
g2
S'Memo to members of the NSB'
p3171
sg4
Vhttp://hdl.handle.net/2027.42/88946
p3172
sg6
V.PDF file
p3173
sg8
V1997-03-31
p3174
sa(dp3175
g2
S'Memo to participants in Summit on "Transforming Research Universities Through Information Technology", regarding possible areas for follow up'
p3176
sg4
Vhttp://hdl.handle.net/2027.42/88947
p3177
sg6
V.PDF file
p3178
sg8
V2003-06-27
p3179
sa(dp3180
g2
S'Michigan Add-Ins 1.0'
p3181
sg4
Vhttp://hdl.handle.net/2027.42/88951
p3182
sg6
V.PDF file
p3183
sg8
V1989
p3184
sa(dp3185
g2
S'Michigan Challenge'
p3186
sg4
Vhttp://hdl.handle.net/2027.42/88952
p3187
sg6
V.PDF file
p3188
sg8
V1988
p3189
sa(dp3190
g2
S'Michigan Crossroads 1.0 (June)'
p3191
sg4
Vhttp://hdl.handle.net/2027.42/88955
p3192
sg6
V.PDF file
p3193
sg8
V1990
p3194
sa(dp3195
g2
S'Michigan Crossroads 1.0 (October)'
p3196
sg4
Vhttp://hdl.handle.net/2027.42/88954
p3197
sg6
V.PDF file
p3198
sg8
V1990
p3199
sa(dp3200
g2
S'Michigan Economy 1. 11-6-89.pdf'
p3201
sg4
Vhttp://hdl.handle.net/2027.42/88956
p3202
sg6
V.PDF file
p3203
sg8
V1989
p3204
sa(dp3205
g2
S'Michigan Economy 1.0'
p3206
sg4
Vhttp://hdl.handle.net/2027.42/88957
p3207
sg6
V.PDF file
p3208
sg8
V1990
p3209
sa(dp3210
g2
S'Michigan Engineering History'
p3211
sg4
Vhttp://hdl.handle.net/2027.42/88958
p3212
sg6
V.PDF file
p3213
sg8
V2003
p3214
sa(dp3215
g2
S'Michigan Football Bust'
p3216
sg4
Vhttp://hdl.handle.net/2027.42/88959
p3217
sg6
V.PDF file
p3218
sg8
V1987
p3219
sa(dp3220
g2
S'Michigan Higher Ed 1.0'
p3221
sg4
Vhttp://hdl.handle.net/2027.42/88960
p3222
sg6
V.PDF file
p3223
sg8
V1989
p3224
sa(dp3225
g2
S'Michigan Higher Ed 2.2'
p3226
sg4
Vhttp://hdl.handle.net/2027.42/88961
p3227
sg6
V.PDF file
p3228
sg8
V1989
p3229
sa(dp3230
g2
S'Michigan Information Technology Network'
p3231
sg4
Vhttp://hdl.handle.net/2027.42/88962
p3232
sg6
V.PDF file
p3233
sg8
V1987
p3234
sa(dp3235
g2
S'Michigan Mandate'
p3236
sg4
Vhttp://hdl.handle.net/2027.42/88963
p3237
sg6
V.PDF file
p3238
sg8
V1989
p3239
sa(dp3240
g2
S'Michigan Mandate - Progress Report'
p3241
sg4
Vhttp://hdl.handle.net/2027.42/58618
p3242
sg6
V.PDF file
p3243
sg8
V1995
p3244
sa(dp3245
g2
S'Michigan Mandate 1.4'
p3246
sg4
Vhttp://hdl.handle.net/2027.42/88965
p3247
sg6
V.PDF file
p3248
sg8
V1988
p3249
sa(dp3250
g2
S'Michigan Mandate 10'
p3251
sg4
Vhttp://hdl.handle.net/2027.42/88966
p3252
sg6
V.PDF file
p3253
sg8
V1990
p3254
sa(dp3255
g2
S'Michigan Mandate 2'
p3256
sg4
Vhttp://hdl.handle.net/2027.42/88967
p3257
sg6
V.PDF file
p3258
sg8
V1988
p3259
sa(dp3260
g2
S'Michigan Mandate 2.2'
p3261
sg4
Vhttp://hdl.handle.net/2027.42/88968
p3262
sg6
V.PDF file
p3263
sg8
V1988
p3264
sa(dp3265
g2
S'Michigan Mandate 2.2C'
p3266
sg4
Vhttp://hdl.handle.net/2027.42/88969
p3267
sg6
V.PDF file
p3268
sg8
V1988
p3269
sa(dp3270
g2
S'Michigan Mandate 2C'
p3271
sg4
Vhttp://hdl.handle.net/2027.42/88970
p3272
sg6
V.PDF file
p3273
sg8
V1988
p3274
sa(dp3275
g2
S'Michigan Mandate 3 year update'
p3276
sg4
Vhttp://hdl.handle.net/2027.42/88971
p3277
sg6
V.PDF file
p3278
sg8
V1991
p3279
sa(dp3280
g2
S'Michigan Mandate 3.0'
p3281
sg4
Vhttp://hdl.handle.net/2027.42/88972
p3282
sg6
V.PDF file
p3283
sg8
V1990
p3284
sa(dp3285
g2
S'Michigan Mandate Assignments'
p3286
sg4
Vhttp://hdl.handle.net/2027.42/88973
p3287
sg6
V.PDF file
p3288
sg8
V1992
p3289
sa(dp3290
g2
S'Michigan Mandate III'
p3291
sg4
Vhttp://hdl.handle.net/2027.42/88974
p3292
sg6
V.PDF file
p3293
sg8
V1990
p3294
sa(dp3295
g2
S'Michigan Mandate-Color'
p3296
sg4
Vhttp://hdl.handle.net/2027.42/88977
p3297
sg6
V.PDF file
p3298
sg8
V1992
p3299
sa(dp3300
g2
S'Michigan Memories'
p3301
sg4
Vhttp://hdl.handle.net/2027.42/88978
p3302
sg6
V.PDF file
p3303
sg8
V1999-09-04
p3304
sa(dp3305
g2
S'Michigan Outreach Talk 1.0'
p3306
sg4
Vhttp://hdl.handle.net/2027.42/88979
p3307
sg6
V.PDF file
p3308
sg8
V1990
p3309
sa(dp3310
g2
S'Michigan Outreach Talk 1.1'
p3311
sg4
Vhttp://hdl.handle.net/2027.42/88980
p3312
sg6
V.PDF file
p3313
sg8
V1990
p3314
sa(dp3315
g2
S'Michigan Outreach Talk 1.21'
p3316
sg4
Vhttp://hdl.handle.net/2027.42/88981
p3317
sg6
V.PDF file
p3318
sg8
V1991
p3319
sa(dp3320
g2
S'Michigan Outreach Talk 1.3'
p3321
sg4
Vhttp://hdl.handle.net/2027.42/88982
p3322
sg6
V.PDF file
p3323
sg8
V1991
p3324
sa(dp3325
g2
S'Michigan Talks 2.0'
p3326
sg4
Vhttp://hdl.handle.net/2027.42/88983
p3327
sg6
V.PDF file
p3328
sg8
V1989
p3329
sa(dp3330
g2
S'Michigan Today (Vol. 27 No. 04)'
p3331
sg4
Vhttp://hdl.handle.net/2027.42/61010
p3332
sg6
V.PDF file
p3333
sg8
V1995-12
p3334
sa(dp3335
g2
S'Michigan UM 1.'
p3336
sg4
Vhttp://hdl.handle.net/2027.42/88984
p3337
sg6
V.PDF file
p3338
sg8
V1989
p3339
sa(dp3340
g2
S'Michigan Virtual University, questions and answers'
p3341
sg4
Vhttp://hdl.handle.net/2027.42/88985
p3342
sg6
V.PDF file
p3343
sg8
V1998
p3344
sa(dp3345
g2
S'Michigan at the Crossroads: The Future of Public Higher Education in Michigan'
p3346
sg4
Vhttp://hdl.handle.net/2027.42/79537
p3347
sg6
V.PDF file
p3348
sg8
V1990
p3349
sa(dp3350
g2
S"Michigan's Future"
p3351
sg4
Vhttp://hdl.handle.net/2027.42/88988
p3352
sg6
V.PDF file
p3353
sg8
V1999
p3354
sa(dp3355
g2
S"Michigan's Future 2.0"
p3356
sg4
Vhttp://hdl.handle.net/2027.42/88989
p3357
sg6
V.PDF file
p3358
sg8
V1995
p3359
sa(dp3360
g2
S"Michigan's Future 2.1"
p3361
sg4
Vhttp://hdl.handle.net/2027.42/88990
p3362
sg6
V.PDF file
p3363
sg8
V1995
p3364
sa(dp3365
g2
S"Michigan's Future 2.1"
p3366
sg4
Vhttp://hdl.handle.net/2027.42/88991
p3367
sg6
V.PDF file
p3368
sg8
V1996
p3369
sa(dp3370
g2
S"Michigan's Future: It's Up to Us"
p3371
sg4
Vhttp://hdl.handle.net/2027.42/79544
p3372
sg6
V.PDF file
p3373
sg8
V1992
p3374
sa(dp3375
g2
S'Michigan-Oberlin Project'
p3376
sg4
Vhttp://hdl.handle.net/2027.42/88986
p3377
sg6
VJECT file
p3378
sg8
V1999
p3379
sa(dp3380
g2
S'Midland Talk'
p3381
sg4
Vhttp://hdl.handle.net/2027.42/88992
p3382
sg6
V.PDF file
p3383
sg8
V1990
p3384
sa(dp3385
g2
S'Midwest Master Plan'
p3386
sg4
Vhttp://hdl.handle.net/2027.42/88993
p3387
sg6
V.PDF file
p3388
sg8
V2011
p3389
sa(dp3390
g2
S'Midwest Master Plan Heartland Paper'
p3391
sg4
Vhttp://hdl.handle.net/2027.42/88994
p3392
sg6
V.PDF file
p3393
sg8
V2011
p3394
sa(dp3395
g2
S'Millennium Seminar'
p3396
sg4
Vhttp://hdl.handle.net/2027.42/88995
p3397
sg6
V.PDF file
p3398
sg8
V1996
p3399
sa(dp3400
g2
S'Minority Education'
p3401
sg4
Vhttp://hdl.handle.net/2027.42/88996
p3402
sg6
V.PDF file
p3403
sg8
V1987
p3404
sa(dp3405
g2
S'Minority Student Conference'
p3406
sg4
Vhttp://hdl.handle.net/2027.42/88997
p3407
sg6
V.PDF file
p3408
sg8
V1993
p3409
sa(dp3410
g2
S'Minority Student Welcome'
p3411
sg4
Vhttp://hdl.handle.net/2027.42/88999
p3412
sg6
V.PDF file
p3413
sg8
V1987
p3414
sa(dp3415
g2
S'Minority Welcome 3.0'
p3416
sg4
Vhttp://hdl.handle.net/2027.42/89000
p3417
sg6
V.PDF file
p3418
sg8
V1989
p3419
sa(dp3420
g2
S'Minority Welcome 4.1'
p3421
sg4
Vhttp://hdl.handle.net/2027.42/89001
p3422
sg6
V.PDF file
p3423
sg8
V1990
p3424
sa(dp3425
g2
S'Mission Planning'
p3426
sg4
Vhttp://hdl.handle.net/2027.42/89002
p3427
sg6
V.PDF file
p3428
sg8
V1988
p3429
sa(dp3430
g2
S'Mission Statement'
p3431
sg4
Vhttp://hdl.handle.net/2027.42/89003
p3432
sg6
V.PDF file
p3433
sg8
V1988
p3434
sa(dp3435
g2
S'Missouri Address 1.0'
p3436
sg4
Vhttp://hdl.handle.net/2027.42/89004
p3437
sg6
V.PDF file
p3438
sg8
V2003
p3439
sa(dp3440
g2
S'Moral Leadership'
p3441
sg4
Vhttp://hdl.handle.net/2027.42/89013
p3442
sg6
V.PDF file
p3443
sg8
V2006
p3444
sa(dp3445
g2
S'Mortar Board'
p3446
sg4
Vhttp://hdl.handle.net/2027.42/89014
p3447
sg6
V.PDF file
p3448
sg8
V1989
p3449
sa(dp3450
g2
S'NAACP Talk'
p3451
sg4
Vhttp://hdl.handle.net/2027.42/89016
p3452
sg6
V.PDF file
p3453
sg8
V1989
p3454
sa(dp3455
g2
S'NAE Meeting'
p3456
sg4
Vhttp://hdl.handle.net/2027.42/89017
p3457
sg6
V.PDF file
p3458
sg8
V1989
p3459
sa(dp3460
g2
S'NAE Notes'
p3461
sg4
Vhttp://hdl.handle.net/2027.42/89018
p3462
sg6
V.PDF file
p3463
sg8
V1991
p3464
sa(dp3465
g2
S'NAS/NAE/IOM/NRC Study - The Impact of Information Technologies on the Future of the Research University'
p3466
sg4
Vhttp://hdl.handle.net/2027.42/89019
p3467
sg6
V.PDF file
p3468
sg8
V2004
p3469
sa(dp3470
g2
S'NAS/NAE/IOM/NRC Study - The Impact of Information Technology on the Future of the Research University'
p3471
sg4
Vhttp://hdl.handle.net/2027.42/89021
p3472
sg6
V.PDF file
p3473
sg8
V2002
p3474
sa(dp3475
g2
S'NAS/NAE/IOM/NRC Study - The Impact of Information Technology on the Future of the Research University'
p3476
sg4
Vhttp://hdl.handle.net/2027.42/89022
p3477
sg6
V.PDF file
p3478
sg8
V2006
p3479
sa(dp3480
g2
S'NASA ERCs'
p3481
sg4
Vhttp://hdl.handle.net/2027.42/89023
p3482
sg6
V.PDF file
p3483
sg8
V1988
p3484
sa(dp3485
g2
S'NASULGC Presidents Address'
p3486
sg4
Vhttp://hdl.handle.net/2027.42/89024
p3487
sg6
V.PDF file
p3488
sg8
V2009
p3489
sa(dp3490
g2
S'NASULGC-Activism'
p3491
sg4
Vhttp://hdl.handle.net/2027.42/89025
p3492
sg6
V.PDF file
p3493
sg8
V1990
p3494
sa(dp3495
g2
S'NASULGC-Plan'
p3496
sg4
Vhttp://hdl.handle.net/2027.42/89026
p3497
sg6
V.PDF file
p3498
sg8
V1990
p3499
sa(dp3500
g2
S'NE Update'
p3501
sg4
Vhttp://hdl.handle.net/2027.42/89043
p3502
sg6
V.PDF file
p3503
sg8
V2001
p3504
sa(dp3505
g2
S'NIH Centennial Luncheon'
p3506
sg4
Vhttp://hdl.handle.net/2027.42/89063
p3507
sg6
V.PDF file
p3508
sg8
V1987
p3509
sa(dp3510
g2
S'NSB Keynote Talk'
p3511
sg4
Vhttp://hdl.handle.net/2027.42/89069
p3512
sg6
V.PDF file
p3513
sg8
V1996
p3514
sa(dp3515
g2
S'NSB Presentation'
p3516
sg4
Vhttp://hdl.handle.net/2027.42/89070
p3517
sg6
V.PDF file
p3518
sg8
V1990
p3519
sa(dp3520
g2
S'NSB Talk'
p3521
sg4
Vhttp://hdl.handle.net/2027.42/89071
p3522
sg6
V.PDF file
p3523
sg8
V1996
p3524
sa(dp3525
g2
S'NSB-UC-Davis'
p3526
sg4
Vhttp://hdl.handle.net/2027.42/89072
p3527
sg6
V.PDF file
p3528
sg8
V1996
p3529
sa(dp3530
g2
S'NSF T&R 1.0'
p3531
sg4
Vhttp://hdl.handle.net/2027.42/89073
p3532
sg6
V.PDF file
p3533
sg8
V1990
p3534
sa(dp3535
g2
S'NSF Traineeship Program'
p3536
sg4
Vhttp://hdl.handle.net/2027.42/89074
p3537
sg6
V.PDF file
p3538
sg8
V1991
p3539
sa(dp3540
g2
S'NSF Traineeships'
p3541
sg4
Vhttp://hdl.handle.net/2027.42/89075
p3542
sg6
V.PDF file
p3543
sg8
V1991
p3544
sa(dp3545
g2
S'NSF-MSF Conference'
p3546
sg4
Vhttp://hdl.handle.net/2027.42/89077
p3547
sg6
V.PDF file
p3548
sg8
V1988
p3549
sa(dp3550
g2
S'NSPE Thanks'
p3551
sg4
Vhttp://hdl.handle.net/2027.42/89078
p3552
sg6
V.PDF file
p3553
sg8
V1991
p3554
sa(dp3555
g2
S'NY Business Lunch'
p3556
sg4
Vhttp://hdl.handle.net/2027.42/89083
p3557
sg6
V.PDF file
p3558
sg8
V1989
p3559
sa(dp3560
g2
S'National Honor Society 1986'
p3561
sg4
Vhttp://hdl.handle.net/2027.42/89027
p3562
sg6
V.PDF file
p3563
sg8
V1986
p3564
sa(dp3565
g2
S'National Nursing Association'
p3566
sg4
Vhttp://hdl.handle.net/2027.42/89028
p3567
sg6
V.PDF file
p3568
sg8
V1987
p3569
sa(dp3570
g2
S'National Rankings'
p3571
sg4
Vhttp://hdl.handle.net/2027.42/89029
p3572
sg6
V.PDF file
p3573
sg8
V1991
p3574
sa(dp3575
g2
S'National Science Board'
p3576
sg4
Vhttp://hdl.handle.net/2027.42/89030
p3577
sg6
V.PDF file
p3578
sg8
V1990
p3579
sa(dp3580
g2
S'Navigating through the Stormy Seas of a Changing World'
p3581
sg4
Vhttp://hdl.handle.net/2027.42/89036
p3582
sg6
V.PDF file
p3583
sg8
V2003-07-22
p3584
sa(dp3585
g2
S'Navigating through the Stormy Seas of a Changing World'
p3586
sg4
Vhttp://hdl.handle.net/2027.42/89037
p3587
sg6
V.PDF file
p3588
sg8
V2003-07-22
p3589
sa(dp3590
g2
S'Navigating through the Stormy Seas of a Changing World'
p3591
sg4
Vhttp://hdl.handle.net/2027.42/89038
p3592
sg6
V.PDF file
p3593
sg8
V2003-10-01
p3594
sa(dp3595
g2
S'Navigating through the Stormy Seas of a Changing World'
p3596
sg4
Vhttp://hdl.handle.net/2027.42/89039
p3597
sg6
V.PDF file
p3598
sg8
V2003-10-07
p3599
sa(dp3600
g2
S'Navigating through the Stormy Seas of a Changing World'
p3601
sg4
Vhttp://hdl.handle.net/2027.42/89040
p3602
sg6
V.PDF file
p3603
sg8
V2004-02-16
p3604
sa(dp3605
g2
S'Navigating through the Stormy Seas of a Changing World'
p3606
sg4
Vhttp://hdl.handle.net/2027.42/89041
p3607
sg6
V.PDF file
p3608
sg8
V2004-06-15
p3609
sa(dp3610
g2
S'Navigating through the Stormy Seas of a Changing World (Miami)'
p3611
sg4
Vhttp://hdl.handle.net/2027.42/89035
p3612
sg6
V.PDF file
p3613
sg8
V2003-07-22
p3614
sa(dp3615
g2
S'Navigating through the Stormy Seas of a Changing World (Missouri NE)'
p3616
sg4
Vhttp://hdl.handle.net/2027.42/89033
p3617
sg6
V.PDF file
p3618
sg8
V2003-03-06
p3619
sa(dp3620
g2
S'Navigating through the Stormy Seas of a Changing World (Missouri)'
p3621
sg4
Vhttp://hdl.handle.net/2027.42/89032
p3622
sg6
V.PDF file
p3623
sg8
V2003-03-05
p3624
sa(dp3625
g2
S'Navigating through the Stormy Seas of a Changing World (Ohio State)'
p3626
sg4
Vhttp://hdl.handle.net/2027.42/89034
p3627
sg6
V.PDF file
p3628
sg8
V2003-05-15
p3629
sa(dp3630
g2
S'Needed: A National Strategy to Preserve Public Research Universities'
p3631
sg4
Vhttp://hdl.handle.net/2027.42/89044
p3632
sg6
V.PDF file
p3633
sg8
V2010
p3634
sa(dp3635
g2
S'Needed: a National Strategy to Preserve Public Research Universities'
p3636
sg4
Vhttp://hdl.handle.net/2027.42/89045
p3637
sg6
V.PDF file
p3638
sg8
V2010-01-03
p3639
sa(dp3640
g2
S'Needed: a National Strategy to Preserve Public Research Universities'
p3641
sg4
Vhttp://hdl.handle.net/2027.42/89046
p3642
sg6
V.PDF file
p3643
sg8
V2010-01-09
p3644
sa(dp3645
g2
S'New Detroit'
p3646
sg4
Vhttp://hdl.handle.net/2027.42/89047
p3647
sg6
V.PDF file
p3648
sg8
V1988
p3649
sa(dp3650
g2
S'New Faculty Welcome'
p3651
sg4
Vhttp://hdl.handle.net/2027.42/89048
p3652
sg6
V.PDF file
p3653
sg8
V1987
p3654
sa(dp3655
g2
S'New Faculty Welcome 1986'
p3656
sg4
Vhttp://hdl.handle.net/2027.42/89049
p3657
sg6
V.PDF file
p3658
sg8
V1986
p3659
sa(dp3660
g2
S'New Faculty Welcome 2.1'
p3661
sg4
Vhttp://hdl.handle.net/2027.42/89050
p3662
sg6
V.PDF file
p3663
sg8
V1988
p3664
sa(dp3665
g2
S'New Faculty Welcome 2.1S'
p3666
sg4
Vhttp://hdl.handle.net/2027.42/89051
p3667
sg6
V.PDF file
p3668
sg8
V1988
p3669
sa(dp3670
g2
S'New Faculty Welcome 3.0d'
p3671
sg4
Vhttp://hdl.handle.net/2027.42/89052
p3672
sg6
V.PDF file
p3673
sg8
V1989
p3674
sa(dp3675
g2
S'New Faculty Welcome 3.1'
p3676
sg4
Vhttp://hdl.handle.net/2027.42/89055
p3677
sg6
V.PDF file
p3678
sg8
V1989
p3679
sa(dp3680
g2
S'New Faculty Welcome 3.1'
p3681
sg4
Vhttp://hdl.handle.net/2027.42/89056
p3682
sg6
V.PDF file
p3683
sg8
V1990
p3684
sa(dp3685
g2
S'New Faculty Welcome 3.2'
p3686
sg4
Vhttp://hdl.handle.net/2027.42/89057
p3687
sg6
V.PDF file
p3688
sg8
V1990
p3689
sa(dp3690
g2
S'New Faculty Welcome 4.0'
p3691
sg4
Vhttp://hdl.handle.net/2027.42/89058
p3692
sg6
V.PDF file
p3693
sg8
V1995
p3694
sa(dp3695
g2
S'New Research Paradigms for Technological Innovation'
p3696
sg4
Vhttp://hdl.handle.net/2027.42/89059
p3697
sg6
V.PDF file
p3698
sg8
V2009
p3699
sa(dp3700
g2
S'New University Paradigms for Technological Innovation'
p3701
sg4
Vhttp://hdl.handle.net/2027.42/89060
p3702
sg6
V.PDF file
p3703
sg8
V2009-05-15
p3704
sa(dp3705
g2
S'Newsweek notes'
p3706
sg4
Vhttp://hdl.handle.net/2027.42/89061
p3707
sg6
V.PDF file
p3708
sg8
V1989
p3709
sa(dp3710
g2
S'Niara Sudarkasa Farewell'
p3711
sg4
Vhttp://hdl.handle.net/2027.42/89062
p3712
sg6
V.PDF file
p3713
sg8
V1987
p3714
sa(dp3715
g2
S'No Code'
p3716
sg4
Vhttp://hdl.handle.net/2027.42/89064
p3717
sg6
V.PDF file
p3718
sg8
V1990
p3719
sa(dp3720
g2
S'North Campus Planning Study: The University of Michigan'
p3721
sg4
Vhttp://hdl.handle.net/2027.42/79520
p3722
sg6
V.PDF file
p3723
sg8
V1984
p3724
sa(dp3725
g2
S'Northwestern Michigan'
p3726
sg4
Vhttp://hdl.handle.net/2027.42/89066
p3727
sg6
V.PDF file
p3728
sg8
V1991
p3729
sa(dp3730
g2
S'Notes for Speeches (August, 1990)'
p3731
sg4
Vhttp://hdl.handle.net/2027.42/89068
p3732
sg6
V.PDF file
p3733
sg8
V1990
p3734
sa(dp3735
g2
S'Notes for Speeches (March, 1990)'
p3736
sg4
Vhttp://hdl.handle.net/2027.42/89067
p3737
sg6
V.PDF file
p3738
sg8
V1990
p3739
sa(dp3740
g2
S'Nuclear Reactor Analysis'
p3741
sg4
Vhttp://hdl.handle.net/2027.42/89079
p3742
sg6
V.PDF file
p3743
sg8
V1976
p3744
sa(dp3745
g2
S'Nuclear Science and Energy R&D - A Strategy for the Nation'
p3746
sg4
Vhttp://hdl.handle.net/2027.42/89080
p3747
sg6
V.PDF file
p3748
sg8
V2003
p3749
sa(dp3750
g2
S'Nuclear Science and Technology Infrastructure Roadmap Summary'
p3751
sg4
Vhttp://hdl.handle.net/2027.42/89081
p3752
sg6
V.PDF file
p3753
sg8
V2000
p3754
sa(dp3755
g2
S'Numerical studies of exploding\xe2\x80\x90wire plasmas'
p3756
sg4
Vhttp://hdl.handle.net/2027.42/70466
p3757
sg6
V.PDF file
p3758
sg8
V1974-04
p3759
sa(dp3760
g2
S'Nursing Centennial'
p3761
sg4
Vhttp://hdl.handle.net/2027.42/89082
p3762
sg6
V.PDF file
p3763
sg8
V1991
p3764
sa(dp3765
g2
S'OMA Testimony'
p3766
sg4
Vhttp://hdl.handle.net/2027.42/89091
p3767
sg6
V.PDF file
p3768
sg8
V1995
p3769
sa(dp3770
g2
S"Observations on the President's FY 2002 Federal Science and Technology Budget"
p3771
sg4
Vhttp://hdl.handle.net/2027.42/89084
p3772
sg6
V.PDF file
p3773
sg8
V2001
p3774
sa(dp3775
g2
S'Observations on the President\xe2\x80\x99s Fiscal Year 1999 Federal Science and Technology Budget'
p3776
sg4
Vhttp://hdl.handle.net/2027.42/89085
p3777
sg6
V.PDF file
p3778
sg8
V1999
p3779
sa(dp3780
g2
S'Observations on the President\xe2\x80\x99s Fiscal Year 2000 Federal Science and Technology Budget'
p3781
sg4
Vhttp://hdl.handle.net/2027.42/89086
p3782
sg6
V.PDF file
p3783
sg8
V2000
p3784
sa(dp3785
g2
S'Observations on the President\xe2\x80\x99s Fiscal Year 2001 Federal Science and Technology Budget'
p3786
sg4
Vhttp://hdl.handle.net/2027.42/89089
p3787
sg6
V.PDF file
p3788
sg8
V2001
p3789
sa(dp3790
g2
S'Office of Minority Affairs'
p3791
sg4
Vhttp://hdl.handle.net/2027.42/89090
p3792
sg6
V.PDF file
p3793
sg8
V1995
p3794
sa(dp3795
g2
S'On Becoming a Scholar/Researcher in the Digital Age'
p3796
sg4
Vhttp://hdl.handle.net/2027.42/89092
p3797
sg6
V.PDF file
p3798
sg8
V1999
p3799
sa(dp3800
g2
S"On the Move, a Personal History of Michigan's College of Engineering in Modern Times"
p3801
sg4
Vhttp://hdl.handle.net/2027.42/89093
p3802
sg6
V.PDF file
p3803
sg8
V2003
p3804
sa(dp3805
g2
S'Op-Ed Cooperation'
p3806
sg4
Vhttp://hdl.handle.net/2027.42/89094
p3807
sg6
V.PDF file
p3808
sg8
V1995
p3809
sa(dp3810
g2
S'Op-Ed UM Service'
p3811
sg4
Vhttp://hdl.handle.net/2027.42/89095
p3812
sg6
V.PDF file
p3813
sg8
V1995
p3814
sa(dp3815
g2
S'Opening Remarks'
p3816
sg4
Vhttp://hdl.handle.net/2027.42/89096
p3817
sg6
V.PDF file
p3818
sg8
V1988
p3819
sa(dp3820
g2
S'Operating Manual'
p3821
sg4
Vhttp://hdl.handle.net/2027.42/89097
p3822
sg6
V.PDF file
p3823
sg8
V1996
p3824
sa(dp3825
g2
S'Operating Manual 1.0'
p3826
sg4
Vhttp://hdl.handle.net/2027.42/89098
p3827
sg6
V.PDF file
p3828
sg8
V1996
p3829
sa(dp3830
g2
S'Overarching Themes'
p3831
sg4
Vhttp://hdl.handle.net/2027.42/89100
p3832
sg6
V.PDF file
p3833
sg8
V1990
p3834
sa(dp3835
g2
S'PAC-June-90'
p3836
sg4
Vhttp://hdl.handle.net/2027.42/89101
p3837
sg6
V.PDF file
p3838
sg8
V1990
p3839
sa(dp3840
g2
S'PAC-K-12'
p3841
sg4
Vhttp://hdl.handle.net/2027.42/89102
p3842
sg6
V.PDF file
p3843
sg8
V1992
p3844
sa(dp3845
g2
S'PAG-1995'
p3846
sg4
Vhttp://hdl.handle.net/2027.42/89103
p3847
sg6
V.PDF file
p3848
sg8
V1995
p3849
sa(dp3850
g2
S'PC Notes'
p3851
sg4
Vhttp://hdl.handle.net/2027.42/89118
p3852
sg6
V.PDF file
p3853
sg8
V1991
p3854
sa(dp3855
g2
S'PC Notes-HTS'
p3856
sg4
Vhttp://hdl.handle.net/2027.42/89119
p3857
sg6
V.PDF file
p3858
sg8
V1991
p3859
sa(dp3860
g2
S'PC-Mandate Add-ins'
p3861
sg4
Vhttp://hdl.handle.net/2027.42/89120
p3862
sg6
V.PDF file
p3863
sg8
V1991
p3864
sa(dp3865
g2
S'Paradigm Shifts'
p3866
sg4
Vhttp://hdl.handle.net/2027.42/89106
p3867
sg6
V.PDF file
p3868
sg8
V2010
p3869
sa(dp3870
g2
S'Paradigm Shifts (Glion)'
p3871
sg4
Vhttp://hdl.handle.net/2027.42/89104
p3872
sg6
V.PDF file
p3873
sg8
V2007
p3874
sa(dp3875
g2
S'Paradigm Shifts (Salzburg)'
p3876
sg4
Vhttp://hdl.handle.net/2027.42/89105
p3877
sg6
V.PDF file
p3878
sg8
V2007
p3879
sa(dp3880
g2
S'Parents Orientation'
p3881
sg4
Vhttp://hdl.handle.net/2027.42/89107
p3882
sg6
V.PDF file
p3883
sg8
V1987
p3884
sa(dp3885
g2
S'Parents Orientation 2.0'
p3886
sg4
Vhttp://hdl.handle.net/2027.42/89108
p3887
sg6
V.PDF file
p3888
sg8
V1988
p3889
sa(dp3890
g2
S'Parents Orientation 3.0'
p3891
sg4
Vhttp://hdl.handle.net/2027.42/89109
p3892
sg6
V.PDF file
p3893
sg8
V1989
p3894
sa(dp3895
g2
S'Parents Orientation 4.1'
p3896
sg4
Vhttp://hdl.handle.net/2027.42/89111
p3897
sg6
V.PDF file
p3898
sg8
V1990
p3899
sa(dp3900
g2
S'Parents Orientation 5.1'
p3901
sg4
Vhttp://hdl.handle.net/2027.42/89112
p3902
sg6
V.PDF file
p3903
sg8
V1991
p3904
sa(dp3905
g2
S'Parents Weekend'
p3906
sg4
Vhttp://hdl.handle.net/2027.42/89113
p3907
sg6
V.PDF file
p3908
sg8
V1989
p3909
sa(dp3910
g2
S'Parents Weekend'
p3911
sg4
Vhttp://hdl.handle.net/2027.42/89114
p3912
sg6
V.PDF file
p3913
sg8
V1990
p3914
sa(dp3915
g2
S'Parents Weekend 2.0'
p3916
sg4
Vhttp://hdl.handle.net/2027.42/89115
p3917
sg6
V.PDF file
p3918
sg8
V1989
p3919
sa(dp3920
g2
S'Parents Weekend 3.0'
p3921
sg4
Vhttp://hdl.handle.net/2027.42/89116
p3922
sg6
V.PDF file
p3923
sg8
V1990
p3924
sa(dp3925
g2
S'Paw Wow-89'
p3926
sg4
Vhttp://hdl.handle.net/2027.42/89117
p3927
sg6
V.PDF file
p3928
sg8
V1989
p3929
sa(dp3930
g2
S'Peckham Epilogue'
p3931
sg4
Vhttp://hdl.handle.net/2027.42/89122
p3932
sg6
V.PDF file
p3933
sg8
V1995
p3934
sa(dp3935
g2
S'Peter Raven'
p3936
sg4
Vhttp://hdl.handle.net/2027.42/89123
p3937
sg6
V.PDF file
p3938
sg8
V1991
p3939
sa(dp3940
g2
S'Phase Two: The IT Forum'
p3941
sg4
Vhttp://hdl.handle.net/2027.42/89124
p3942
sg6
V.PDF file
p3943
sg8
V2004
p3944
sa(dp3945
g2
S'Phase-space finite element methods applied to the first-order form of the transport equation'
p3946
sg4
Vhttp://www.sciencedirect.com/science/article/B6V1R-49G007B-Y/2/2af73d4ea6e1588a3b739f8ccc616317
p3947
sg6
V.PDF file
p3948
sg8
V1981
p3949
sa(dp3950
g2
S'Phi Beta Kappa'
p3951
sg4
Vhttp://hdl.handle.net/2027.42/89125
p3952
sg6
V.PDF file
p3953
sg8
V1989
p3954
sa(dp3955
g2
S'Physics Address'
p3956
sg4
Vhttp://hdl.handle.net/2027.42/89126
p3957
sg6
V.PDF file
p3958
sg8
V1987
p3959
sa(dp3960
g2
S'Physics Lecture'
p3961
sg4
Vhttp://hdl.handle.net/2027.42/89127
p3962
sg6
V.PDF file
p3963
sg8
V1987
p3964
sa(dp3965
g2
S'Physics Notes'
p3966
sg4
Vhttp://hdl.handle.net/2027.42/89128
p3967
sg6
V.PDF file
p3968
sg8
V1990
p3969
sa(dp3970
g2
S'Physics-Department'
p3971
sg4
Vhttp://hdl.handle.net/2027.42/89129
p3972
sg6
V.PDF file
p3973
sg8
V1987
p3974
sa(dp3975
g2
S'Pigskin Classic'
p3976
sg4
Vhttp://hdl.handle.net/2027.42/89130
p3977
sg6
V.PDF file
p3978
sg8
V1995
p3979
sa(dp3980
g2
S'Positioning the United States for a Global Knowledge Economy'
p3981
sg4
Vhttp://hdl.handle.net/2027.42/89131
p3982
sg6
V.PDF file
p3983
sg8
V2005
p3984
sa(dp3985
g2
S'Positioning the United States for a Global Knowledge Economy'
p3986
sg4
Vhttp://hdl.handle.net/2027.42/89133
p3987
sg6
V.PDF file
p3988
sg8
V2007
p3989
sa(dp3990
g2
S'Possible Futures for the Research Library in the 21st Century'
p3991
sg4
Vhttp://hdl.handle.net/2027.42/89135
p3992
sg6
V.PDF file
p3993
sg8
V2009
p3994
sa(dp3995
g2
S'Possible Futures for the Research Library in the 21st Century (annotated)'
p3996
sg4
Vhttp://hdl.handle.net/2027.42/89134
p3997
sg6
V.PDF file
p3998
sg8
V2009
p3999
sa(dp4000
g2
S'Pre-Proposal - Building a Society of Learning in Michigan (Mil. Proj.)'
p4001
sg4
Vhttp://hdl.handle.net/2027.42/89137
p4002
sg6
V.PDF file
p4003
sg8
V2001
p4004
sa(dp4005
g2
S'Pre-Proposal - Building a Society of Learning in Michigan (Mott)'
p4006
sg4
Vhttp://hdl.handle.net/2027.42/89136
p4007
sg6
V.PDF file
p4008
sg8
V2001
p4009
sa(dp4010
g2
S'Pre-Proposal - Building a Society of Learning in Michigan (Visioning)'
p4011
sg4
Vhttp://hdl.handle.net/2027.42/89138
p4012
sg6
V.PDF file
p4013
sg8
V2001
p4014
sa(dp4015
g2
S'Pre-Proposal to Michigan Foundations "Building a Society of Learning in Michigan'
p4016
sg4
Vhttp://hdl.handle.net/2027.42/89139
p4017
sg6
V.PDF file
p4018
sg8
V2001
p4019
sa(dp4020
g2
S'Preface for Glion IV'
p4021
sg4
Vhttp://hdl.handle.net/2027.42/89140
p4022
sg6
V.PDF file
p4023
sg8
V2003
p4024
sa(dp4025
g2
S'Preparing Future Faculty for Future Universities'
p4026
sg4
Vhttp://hdl.handle.net/2027.42/89146
p4027
sg6
V.PDF file
p4028
sg8
V2001-01-12
p4029
sa(dp4030
g2
S'Preparing for a Future of Change'
p4031
sg4
Vhttp://hdl.handle.net/2027.42/89141
p4032
sg6
V.PDF file
p4033
sg8
V1997-04-04
p4034
sa(dp4035
g2
S'Preparing for the Revolution - Information Technology and the Future of the Research University'
p4036
sg4
Vhttp://hdl.handle.net/2027.42/89142
p4037
sg6
V.PDF file
p4038
sg8
V2002-01-23
p4039
sa(dp4040
g2
S'Preparing for the Revolution, Information Technology and the Future of the Research University'
p4041
sg4
Vhttp://hdl.handle.net/2027.42/89144
p4042
sg6
V.PDF file
p4043
sg8
V2002
p4044
sa(dp4045
g2
S'Preparing for the Revolution: The Future of the University in the Digital Age'
p4046
sg4
Vhttp://hdl.handle.net/2027.42/89145
p4047
sg6
V.PDF file
p4048
sg8
V2001-05-31
p4049
sa(dp4050
g2
S'Preparing for the Revolution: the Future of the University in the Digital Age'
p4051
sg4
Vhttp://hdl.handle.net/2027.42/57292
p4052
sg6
V.PDF file
p4053
sg8
V2003-03
p4054
sa(dp4055
g2
S'Preparing, Recruiting, Developing, Retaining, and Retiring The Faculty of the Future: The View from South of the Border'
p4056
sg4
Vhttp://hdl.handle.net/2027.42/89147
p4057
sg6
V.PDF file
p4058
sg8
V2000-10-04
p4059
sa(dp4060
g2
S'Pres. Council Forum'
p4061
sg4
Vhttp://hdl.handle.net/2027.42/89148
p4062
sg6
V.PDF file
p4063
sg8
V1990
p4064
sa(dp4065
g2
S'Pres. Council Forum 1'
p4066
sg4
Vhttp://hdl.handle.net/2027.42/89149
p4067
sg6
V.PDF file
p4068
sg8
V1990
p4069
sa(dp4070
g2
S'Presentation to Housing Staff 1986'
p4071
sg4
Vhttp://hdl.handle.net/2027.42/89150
p4072
sg6
V.PDF file
p4073
sg8
V1986
p4074
sa(dp4075
g2
S"President's House"
p4076
sg4
Vhttp://hdl.handle.net/2027.42/89151
p4077
sg6
V.PDF file
p4078
sg8
V1991
p4079
sa(dp4080
g2
S"President's Weekend 3.0"
p4081
sg4
Vhttp://hdl.handle.net/2027.42/89152
p4082
sg6
V.PDF file
p4083
sg8
V1991
p4084
sa(dp4085
g2
S'Presidential Essays'
p4086
sg4
Vhttp://hdl.handle.net/2027.42/89153
p4087
sg6
V.PDF file
p4088
sg8
V1992
p4089
sa(dp4090
g2
S'Presidential Fall Weekend'
p4091
sg4
Vhttp://hdl.handle.net/2027.42/89155
p4092
sg6
V.PDF file
p4093
sg8
V1988
p4094
sa(dp4095
g2
S'Presidents Club'
p4096
sg4
Vhttp://hdl.handle.net/2027.42/89156
p4097
sg6
V.PDF file
p4098
sg8
V1990
p4099
sa(dp4100
g2
S'Presidents Club Finale'
p4101
sg4
Vhttp://hdl.handle.net/2027.42/89157
p4102
sg6
V.PDF file
p4103
sg8
V1990
p4104
sa(dp4105
g2
S'Presidents Council Forum-Detroit'
p4106
sg4
Vhttp://hdl.handle.net/2027.42/89158
p4107
sg6
V.PDF file
p4108
sg8
V1990
p4109
sa(dp4110
g2
S'Presidents Council Forums Speech'
p4111
sg4
Vhttp://hdl.handle.net/2027.42/89159
p4112
sg6
V.PDF file
p4113
sg8
V1990
p4114
sa(dp4115
g2
S"Presidents' Weekend Finale"
p4116
sg4
Vhttp://hdl.handle.net/2027.42/89160
p4117
sg6
V.PDF file
p4118
sg8
V1991
p4119
sa(dp4120
g2
S'Press Conference'
p4121
sg4
Vhttp://hdl.handle.net/2027.42/89161
p4122
sg6
V.PDF file
p4123
sg8
V1989
p4124
sa(dp4125
g2
S'Press Conference'
p4126
sg4
Vhttp://hdl.handle.net/2027.42/89162
p4127
sg6
V.PDF file
p4128
sg8
V1991
p4129
sa(dp4130
g2
S'Professional Development'
p4131
sg4
Vhttp://hdl.handle.net/2027.42/89163
p4132
sg6
V.PDF file
p4133
sg8
V1999
p4134
sa(dp4135
g2
S'Progress Talk'
p4136
sg4
Vhttp://hdl.handle.net/2027.42/89164
p4137
sg6
V.PDF file
p4138
sg8
V1991
p4139
sa(dp4140
g2
S'Project Report of the Atlantic Philanthropies - Education in the Digital Age: Leadership, Linkages, and Roadmaps'
p4141
sg4
Vhttp://hdl.handle.net/2027.42/89166
p4142
sg6
V.PDF file
p4143
sg8
V2002-04-15
p4144
sa(dp4145
g2
S'Project Report to the Atlantic Philanthropics - Education in the Digital Age: Leadership, Linkages, and Roadmaps'
p4146
sg4
Vhttp://hdl.handle.net/2027.42/89167
p4147
sg6
V.PDF file
p4148
sg8
V2004-04
p4149
sa(dp4150
g2
S'Project Report to the Atlantic Philanthropies, Education in the Digital Age: Leadership, Linkages, and Roadmaps'
p4151
sg4
Vhttp://hdl.handle.net/2027.42/89168
p4152
sg6
V.PDF file
p4153
sg8
V2003-04-15
p4154
sa(dp4155
g2
S'Project Report to the Atlantic Philanthropies, Education in the Digital Age: Leadership, Linkages, and Roadmaps'
p4156
sg4
Vhttp://hdl.handle.net/2027.42/89169
p4157
sg6
V.PDF file
p4158
sg8
V2003-10-15
p4159
sa(dp4160
g2
S'Promotion and Tenure'
p4161
sg4
Vhttp://hdl.handle.net/2027.42/89170
p4162
sg6
V.PDF file
p4163
sg8
V1999
p4164
sa(dp4165
g2
S'Proposal on Exploration  of the "Impact of Information Technology of the Future of the American Research Enterprise'
p4166
sg4
Vhttp://hdl.handle.net/2027.42/89171
p4167
sg6
V.PDF file
p4168
sg8
V1999
p4169
sa(dp4170
g2
S'Prospectus'
p4171
sg4
Vhttp://hdl.handle.net/2027.42/89172
p4172
sg6
V.PDF file
p4173
sg8
V1998
p4174
sa(dp4175
g2
S'Prospectus (of Millennium Project)'
p4176
sg4
Vhttp://hdl.handle.net/2027.42/89173
p4177
sg6
V.PDF file
p4178
sg8
V2000
p4179
sa(dp4180
g2
S'Prospectus of Millennium Project'
p4181
sg4
Vhttp://hdl.handle.net/2027.42/89174
p4182
sg6
V.PDF file
p4183
sg8
V2001
p4184
sa(dp4185
g2
S'Provost Address to Senate Assembly 1986'
p4186
sg4
Vhttp://hdl.handle.net/2027.42/89175
p4187
sg6
V.PDF file
p4188
sg8
V1986
p4189
sa(dp4190
g2
S'Pub U Slides'
p4191
sg4
Vhttp://hdl.handle.net/2027.42/89177
p4192
sg6
V.PDF file
p4193
sg8
V1996
p4194
sa(dp4195
g2
S'Public Concerns'
p4196
sg4
Vhttp://hdl.handle.net/2027.42/89179
p4197
sg6
V.PDF file
p4198
sg8
V1991
p4199
sa(dp4200
g2
S'Public Education 4.0'
p4201
sg4
Vhttp://hdl.handle.net/2027.42/89180
p4202
sg6
V.PDF file
p4203
sg8
V1990
p4204
sa(dp4205
g2
S'Public Education 4.2'
p4206
sg4
Vhttp://hdl.handle.net/2027.42/89181
p4207
sg6
V.PDF file
p4208
sg8
V1990
p4209
sa(dp4210
g2
S'Public Education in America: Crisis in an Age of Knowledge'
p4211
sg4
Vhttp://hdl.handle.net/2027.42/79521
p4212
sg6
V.PDF file
p4213
sg8
V1990
p4214
sa(dp4215
g2
S'Public Research'
p4216
sg4
Vhttp://hdl.handle.net/2027.42/89182
p4217
sg6
V.PDF file
p4218
sg8
V1996
p4219
sa(dp4220
g2
S'Public Research University'
p4221
sg4
Vhttp://hdl.handle.net/2027.42/89183
p4222
sg6
V.PDF file
p4223
sg8
V1996
p4224
sa(dp4225
g2
S'Public U Data'
p4226
sg4
Vhttp://hdl.handle.net/2027.42/89184
p4227
sg6
V.PDF file
p4228
sg8
V1996
p4229
sa(dp4230
g2
S'Public briefing on "Observations on Science and Technology in the President\'s Fiscal Year 1999 Budget"'
p4231
sg4
Vhttp://hdl.handle.net/2027.42/89178
p4232
sg6
V.PDF file
p4233
sg8
V1998
p4234
sa(dp4235
g2
S'RESOURCE'
p4236
sg4
Vhttp://hdl.handle.net/2027.42/89240
p4237
sg6
V.PDF file
p4238
sg8
V1991
p4239
sa(dp4240
g2
S'Rackham'
p4241
sg4
Vhttp://hdl.handle.net/2027.42/89185
p4242
sg6
V.PDF file
p4243
sg8
V1990
p4244
sa(dp4245
g2
S'Rackham'
p4246
sg4
Vhttp://hdl.handle.net/2027.42/89186
p4247
sg6
V.PDF file
p4248
sg8
V1996
p4249
sa(dp4250
g2
S'Rackham 50th'
p4251
sg4
Vhttp://hdl.handle.net/2027.42/89188
p4252
sg6
V.PDF file
p4253
sg8
V1988
p4254
sa(dp4255
g2
S'Rackham 50th 1.4'
p4256
sg4
Vhttp://hdl.handle.net/2027.42/89189
p4257
sg6
V.PDF file
p4258
sg8
V1988
p4259
sa(dp4260
g2
S'Rackham Commencement'
p4261
sg4
Vhttp://hdl.handle.net/2027.42/89190
p4262
sg6
V.PDF file
p4263
sg8
V1996
p4264
sa(dp4265
g2
S'Radiogenic Dedication'
p4266
sg4
Vhttp://hdl.handle.net/2027.42/89191
p4267
sg6
V.PDF file
p4268
sg8
V1988
p4269
sa(dp4270
g2
S'Rain Commencement'
p4271
sg4
Vhttp://hdl.handle.net/2027.42/89192
p4272
sg6
V.PDF file
p4273
sg8
V1988
p4274
sa(dp4275
g2
S'Rain Commencement'
p4276
sg4
Vhttp://hdl.handle.net/2027.42/89193
p4277
sg6
V.PDF file
p4278
sg8
V1989
p4279
sa(dp4280
g2
S"Raising the Bar: America's Challenge to Higher Education"
p4281
sg4
Vhttp://hdl.handle.net/2027.42/89194
p4282
sg6
V.PDF file
p4283
sg8
V2007-01-12
p4284
sa(dp4285
g2
S"Raising the Bar: America's Challenge to Higher Education (Spelling)"
p4286
sg4
Vhttp://hdl.handle.net/2027.42/89195
p4287
sg6
V.PDF file
p4288
sg8
V2007-01-12
p4289
sa(dp4290
g2
S'Rationale for Recommendation, regarding UCSC'
p4291
sg4
Vhttp://hdl.handle.net/2027.42/89196
p4292
sg6
V.PDF file
p4293
sg8
V2004-03-05
p4294
sa(dp4295
g2
S'Reality Notes 1.0'
p4296
sg4
Vhttp://hdl.handle.net/2027.42/89197
p4297
sg6
V.PDF file
p4298
sg8
V1992
p4299
sa(dp4300
g2
S'Reality Test'
p4301
sg4
Vhttp://hdl.handle.net/2027.42/89200
p4302
sg6
V.PDF file
p4303
sg8
V1992
p4304
sa(dp4305
g2
S'Reality Test 1.0'
p4306
sg4
Vhttp://hdl.handle.net/2027.42/89201
p4307
sg6
V.PDF file
p4308
sg8
V1992
p4309
sa(dp4310
g2
S'Rebalancing the Federal R&D Enterprise'
p4311
sg4
Vhttp://hdl.handle.net/2027.42/89202
p4312
sg6
V.PDF file
p4313
sg8
V2004
p4314
sa(dp4315
g2
S'Rebooting the U.S. Civilian Nuclear Power Program'
p4316
sg4
Vhttp://hdl.handle.net/2027.42/89203
p4317
sg6
V.PDF file
p4318
sg8
V2003
p4319
sa(dp4320
g2
S'Rebuilding The University of Michigan'
p4321
sg4
Vhttp://hdl.handle.net/2027.42/79563
p4322
sg6
V.PDF file
p4323
sg8
V1996
p4324
sa(dp4325
g2
S'Redefining the Engineering Profession and Reinventing Engineering Education for a 21st Century Global Knowledge-driven Society'
p4326
sg4
Vhttp://hdl.handle.net/2027.42/89204
p4327
sg6
V.PDF file
p4328
sg8
V2004
p4329
sa(dp4330
g2
S'Redraw Boundaries 1.4'
p4331
sg4
Vhttp://hdl.handle.net/2027.42/89205
p4332
sg6
V.PDF file
p4333
sg8
V1992
p4334
sa(dp4335
g2
S'Regarding a three-year grant from Atlantic Philanthropics'
p4336
sg4
Vhttp://hdl.handle.net/2027.42/89206
p4337
sg6
V.PDF file
p4338
sg8
V2002
p4339
sa(dp4340
g2
S'Regarding a three-year grant from Atlantic Philanthropics'
p4341
sg4
Vhttp://hdl.handle.net/2027.42/89207
p4342
sg6
V.PDF file
p4343
sg8
V2002-10-24
p4344
sa(dp4345
g2
S'Regent Priorities'
p4346
sg4
Vhttp://hdl.handle.net/2027.42/89208
p4347
sg6
V.PDF file
p4348
sg8
V1991
p4349
sa(dp4350
g2
S'Regents Annual Report 1.2'
p4351
sg4
Vhttp://hdl.handle.net/2027.42/89209
p4352
sg6
V.PDF file
p4353
sg8
V1991
p4354
sa(dp4355
g2
S'Regents Budget-91'
p4356
sg4
Vhttp://hdl.handle.net/2027.42/89211
p4357
sg6
V.PDF file
p4358
sg8
V1991
p4359
sa(dp4360
g2
S'Regents Information Item (MMPP)'
p4361
sg4
Vhttp://hdl.handle.net/2027.42/89212
p4362
sg6
V.PDF file
p4363
sg8
V2004
p4364
sa(dp4365
g2
S'Regents Naming'
p4366
sg4
Vhttp://hdl.handle.net/2027.42/89213
p4367
sg6
V.PDF file
p4368
sg8
V2005
p4369
sa(dp4370
g2
S'Regents Resources'
p4371
sg4
Vhttp://hdl.handle.net/2027.42/89214
p4372
sg6
V.PDF file
p4373
sg8
V1996
p4374
sa(dp4375
g2
S'Regents Retreat'
p4376
sg4
Vhttp://hdl.handle.net/2027.42/89215
p4377
sg6
V.PDF file
p4378
sg8
V1989
p4379
sa(dp4380
g2
S'Regents Tuition Briefing'
p4381
sg4
Vhttp://hdl.handle.net/2027.42/89216
p4382
sg6
V.PDF file
p4383
sg8
V1991
p4384
sa(dp4385
g2
S'Regents-December'
p4386
sg4
Vhttp://hdl.handle.net/2027.42/89217
p4387
sg6
V.PDF file
p4388
sg8
V1990
p4389
sa(dp4390
g2
S'Regents-Fin Aid'
p4391
sg4
Vhttp://hdl.handle.net/2027.42/89218
p4392
sg6
V.PDF file
p4393
sg8
V1993
p4394
sa(dp4395
g2
S'Regents-June'
p4396
sg4
Vhttp://hdl.handle.net/2027.42/89219
p4397
sg6
V.PDF file
p4398
sg8
V1991
p4399
sa(dp4400
g2
S'Regents-June'
p4401
sg4
Vhttp://hdl.handle.net/2027.42/89220
p4402
sg6
V.PDF file
p4403
sg8
V1996
p4404
sa(dp4405
g2
S'Regents-March'
p4406
sg4
Vhttp://hdl.handle.net/2027.42/89222
p4407
sg6
V.PDF file
p4408
sg8
V1991
p4409
sa(dp4410
g2
S'Regional Learning Ecologies - A Technology Roadmapping Exercise'
p4411
sg4
Vhttp://hdl.handle.net/2027.42/89223
p4412
sg6
V.PDF file
p4413
sg8
V2003
p4414
sa(dp4415
g2
S'Regional Learning Ecologies - A Technology Roadmapping Exercise'
p4416
sg4
Vhttp://hdl.handle.net/2027.42/89224
p4417
sg6
V.PDF file
p4418
sg8
V2004
p4419
sa(dp4420
g2
S'Reinventing 2.0'
p4421
sg4
Vhttp://hdl.handle.net/2027.42/89225
p4422
sg6
V.PDF file
p4423
sg8
V1991
p4424
sa(dp4425
g2
S'Reinventing the Research University'
p4426
sg4
Vhttp://hdl.handle.net/2027.42/57291
p4427
sg6
V.PDF file
p4428
sg8
V2004-04
p4429
sa(dp4430
g2
S'Reinventing the Research University: An American perspective'
p4431
sg4
Vhttp://hdl.handle.net/2027.42/89226
p4432
sg6
V.PDF file
p4433
sg8
V2003
p4434
sa(dp4435
g2
S'Reinventing the Research University: An American perspective (Canadian Provosts)'
p4436
sg4
Vhttp://hdl.handle.net/2027.42/89228
p4437
sg6
V.PDF file
p4438
sg8
V2003-06-22
p4439
sa(dp4440
g2
S'Reinventing the Research University: An American perspective (Glion)'
p4441
sg4
Vhttp://hdl.handle.net/2027.42/89227
p4442
sg6
V.PDF file
p4443
sg8
V2003-06-22
p4444
sa(dp4445
g2
S'Reinventing the University Glion IV'
p4446
sg4
Vhttp://hdl.handle.net/2027.42/89229
p4447
sg6
V.PDF file
p4448
sg8
V2004
p4449
sa(dp4450
g2
S'Remarks by James J Duderstadt at the Inauguration of Dr. Maureen Hartford as President of Meredith College'
p4451
sg4
Vhttp://hdl.handle.net/2027.42/89230
p4452
sg6
V.PDF file
p4453
sg8
V2000-04-15
p4454
sa(dp4455
g2
S'Remarks on the Anniversary of the Merit Computer Network'
p4456
sg4
Vhttp://hdl.handle.net/2027.42/89231
p4457
sg6
V.PDF file
p4458
sg8
V2006-11-16
p4459
sa(dp4460
g2
S'Remarks to NSF Strategic Planning Group'
p4461
sg4
Vhttp://hdl.handle.net/2027.42/89233
p4462
sg6
V.PDF file
p4463
sg8
V2009-12-01
p4464
sa(dp4465
g2
S'Remarks to the NSF Strategic Planning Group'
p4466
sg4
Vhttp://hdl.handle.net/2027.42/89234
p4467
sg6
V.PDF file
p4468
sg8
V2009-12-01
p4469
sa(dp4470
g2
S'Reponses of JJD to follow-up questions from the Committee on Science, Subcommittee on Energy and Environment'
p4471
sg4
Vhttp://hdl.handle.net/2027.42/89235
p4472
sg6
V.PDF file
p4473
sg8
V2001
p4474
sa(dp4475
g2
S'Report of the University-College Partnership Study Committee'
p4476
sg4
Vhttp://hdl.handle.net/2027.42/89236
p4477
sg6
V.PDF file
p4478
sg8
V1999-07-01
p4479
sa(dp4480
g2
S'Report of the WASC Visiting Team, Preparatory Review'
p4481
sg4
Vhttp://hdl.handle.net/2027.42/89237
p4482
sg6
V.PDF file
p4483
sg8
V2004-02-04
p4484
sa(dp4485
g2
S'Research U Speech'
p4486
sg4
Vhttp://hdl.handle.net/2027.42/89238
p4487
sg6
V.PDF file
p4488
sg8
V1995
p4489
sa(dp4490
g2
S'Research Universities and the Future of America: A Study by the National Academies of the United States'
p4491
sg4
Vhttp://hdl.handle.net/2027.42/115474
p4492
sg6
V.PDF file
p4493
sg8
V2013-06-05
p4494
sa(dp4495
g2
S'Resident Talk'
p4496
sg4
Vhttp://hdl.handle.net/2027.42/89239
p4497
sg6
V.PDF file
p4498
sg8
V1988
p4499
sa(dp4500
g2
S'Resources'
p4501
sg4
Vhttp://hdl.handle.net/2027.42/89241
p4502
sg6
V.PDF file
p4503
sg8
V1995
p4504
sa(dp4505
g2
S'Resources Update 2'
p4506
sg4
Vhttp://hdl.handle.net/2027.42/89245
p4507
sg6
V.PDF file
p4508
sg8
V1995
p4509
sa(dp4510
g2
S'Resources Update 2 (1.1)'
p4511
sg4
Vhttp://hdl.handle.net/2027.42/89246
p4512
sg6
V.PDF file
p4513
sg8
V1995
p4514
sa(dp4515
g2
S"Resources for the 1990's"
p4516
sg4
Vhttp://hdl.handle.net/2027.42/89242
p4517
sg6
V.PDF file
p4518
sg8
V1991
p4519
sa(dp4520
g2
S'Resources for the 1990s 1'
p4521
sg4
Vhttp://hdl.handle.net/2027.42/89244
p4522
sg6
V.PDF file
p4523
sg8
V1991
p4524
sa(dp4525
g2
S'Response to Governor Attack'
p4526
sg4
Vhttp://hdl.handle.net/2027.42/89247
p4527
sg6
V.PDF file
p4528
sg8
V1989
p4529
sa(dp4530
g2
S'Response to questions relating to proposal to develop a transportable model of summer institute'
p4531
sg4
Vhttp://hdl.handle.net/2027.42/89248
p4532
sg6
V.PDF file
p4533
sg8
V2001
p4534
sa(dp4535
g2
S'Review of "Transforming Undergraduate Education in Science, Mathematics, Engineering, and Technology"'
p4536
sg4
Vhttp://hdl.handle.net/2027.42/89249
p4537
sg6
V.PDF file
p4538
sg8
V1998
p4539
sa(dp4540
g2
S'Review of the University of Texas Report on Gas Shale Fracking'
p4541
sg4
Vhttp://hdl.handle.net/2027.42/115481
p4542
sg6
V.PDF file
p4543
sg8
V2012-11-26
p4544
sa(dp4545
g2
S'Rose Bowl (89-90)'
p4546
sg4
Vhttp://hdl.handle.net/2027.42/89250
p4547
sg6
V.PDF file
p4548
sg8
V1989
p4549
sa(dp4550
g2
S'Rose Bowl 92'
p4551
sg4
Vhttp://hdl.handle.net/2027.42/89251
p4552
sg6
V.PDF file
p4553
sg8
V1992
p4554
sa(dp4555
g2
S'Rose Bowl Band Rehearsal'
p4556
sg4
Vhttp://hdl.handle.net/2027.42/89252
p4557
sg6
V.PDF file
p4558
sg8
V1989
p4559
sa(dp4560
g2
S'Rose Bowl Follow-up'
p4561
sg4
Vhttp://hdl.handle.net/2027.42/89253
p4562
sg6
V.PDF file
p4563
sg8
V1989
p4564
sa(dp4565
g2
S'Rose Bowl Welcome 1986'
p4566
sg4
Vhttp://hdl.handle.net/2027.42/89255
p4567
sg6
V.PDF file
p4568
sg8
V1986
p4569
sa(dp4570
g2
S'Rose Bowl Welcome Home'
p4571
sg4
Vhttp://hdl.handle.net/2027.42/89256
p4572
sg6
V.PDF file
p4573
sg8
V1989
p4574
sa(dp4575
g2
S'Rose Bowl-1989'
p4576
sg4
Vhttp://hdl.handle.net/2027.42/89257
p4577
sg6
V.PDF file
p4578
sg8
V1989
p4579
sa(dp4580
g2
S'Rotary'
p4581
sg4
Vhttp://hdl.handle.net/2027.42/89258
p4582
sg6
V.PDF file
p4583
sg8
V1989
p4584
sa(dp4585
g2
S'Rotary Club'
p4586
sg4
Vhttp://hdl.handle.net/2027.42/89259
p4587
sg6
V.PDF file
p4588
sg8
V1992
p4589
sa(dp4590
g2
S'Rotary sports speech'
p4591
sg4
Vhttp://hdl.handle.net/2027.42/89260
p4592
sg6
V.PDF file
p4593
sg8
V2005
p4594
sa(dp4595
g2
S'SAC 16'
p4596
sg4
Vhttp://hdl.handle.net/2027.42/89261
p4597
sg6
V.PDF file
p4598
sg8
V1996
p4599
sa(dp4600
g2
S'SAC 26'
p4601
sg4
Vhttp://hdl.handle.net/2027.42/89262
p4602
sg6
V.PDF file
p4603
sg8
V1996
p4604
sa(dp4605
g2
S'SAC Meeting'
p4606
sg4
Vhttp://hdl.handle.net/2027.42/89263
p4607
sg6
V.PDF file
p4608
sg8
V1991
p4609
sa(dp4610
g2
S'SILS Symposium'
p4611
sg4
Vhttp://hdl.handle.net/2027.42/89299
p4612
sg6
V.PDF file
p4613
sg8
V1991
p4614
sa(dp4615
g2
S'SS Report Card'
p4616
sg4
Vhttp://hdl.handle.net/2027.42/89335
p4617
sg6
V.PDF file
p4618
sg8
V1991
p4619
sa(dp4620
g2
S'SSC Testimony'
p4621
sg4
Vhttp://hdl.handle.net/2027.42/89336
p4622
sg6
V.PDF file
p4623
sg8
V1988
p4624
sa(dp4625
g2
S'STPP Next Steps'
p4626
sg4
Vhttp://hdl.handle.net/2027.42/89356
p4627
sg6
V.PDF file
p4628
sg8
V2004
p4629
sa(dp4630
g2
S'STPP Task Team Report'
p4631
sg4
Vhttp://hdl.handle.net/2027.42/89357
p4632
sg6
V.PDF file
p4633
sg8
V2003-05-30
p4634
sa(dp4635
g2
S'Santa Cruz Remarks'
p4636
sg4
Vhttp://hdl.handle.net/2027.42/89264
p4637
sg6
V.PDF file
p4638
sg8
V2005
p4639
sa(dp4640
g2
S'Santa Fe Institute 1.0'
p4641
sg4
Vhttp://hdl.handle.net/2027.42/89266
p4642
sg6
V.PDF file
p4643
sg8
V1990
p4644
sa(dp4645
g2
S'Sasakawa Foundation'
p4646
sg4
Vhttp://hdl.handle.net/2027.42/89267
p4647
sg6
V.PDF file
p4648
sg8
V1991
p4649
sa(dp4650
g2
S'Schembechler Hall'
p4651
sg4
Vhttp://hdl.handle.net/2027.42/89268
p4652
sg6
V.PDF file
p4653
sg8
V1991
p4654
sa(dp4655
g2
S'Schembechler Hall Dinner'
p4656
sg4
Vhttp://hdl.handle.net/2027.42/89269
p4657
sg6
V.PDF file
p4658
sg8
V1991
p4659
sa(dp4660
g2
S'School of Music Commencement'
p4661
sg4
Vhttp://hdl.handle.net/2027.42/89270
p4662
sg6
V.PDF file
p4663
sg8
V2000-05
p4664
sa(dp4665
g2
S'Science Awards'
p4666
sg4
Vhttp://hdl.handle.net/2027.42/89271
p4667
sg6
V.PDF file
p4668
sg8
V1990
p4669
sa(dp4670
g2
S'Science Com Testimony'
p4671
sg4
Vhttp://hdl.handle.net/2027.42/89272
p4672
sg6
V.PDF file
p4673
sg8
V1993
p4674
sa(dp4675
g2
S'Science Education'
p4676
sg4
Vhttp://hdl.handle.net/2027.42/89273
p4677
sg6
V.PDF file
p4678
sg8
V1989
p4679
sa(dp4680
g2
S'Science Education'
p4681
sg4
Vhttp://hdl.handle.net/2027.42/89274
p4682
sg6
V.PDF file
p4683
sg8
V1990
p4684
sa(dp4685
g2
S'Science Education 1.4'
p4686
sg4
Vhttp://hdl.handle.net/2027.42/89275
p4687
sg6
V.PDF file
p4688
sg8
V1990
p4689
sa(dp4690
g2
S'Science Education 2.0'
p4691
sg4
Vhttp://hdl.handle.net/2027.42/89277
p4692
sg6
V.PDF file
p4693
sg8
V1990
p4694
sa(dp4695
g2
S'Science Policy for the Next 50 Years - From Guns to Pills to Brains\xe2\x80\xa6'
p4696
sg4
Vhttp://hdl.handle.net/2027.42/89278
p4697
sg6
V.PDF file
p4698
sg8
V2001-02-18
p4699
sa(dp4700
g2
S'Science Policy for the Next 50 Years - From Guns to Pills to Brains\xe2\x80\xa6 (1.0)'
p4701
sg4
Vhttp://hdl.handle.net/2027.42/89279
p4702
sg6
V.PDF file
p4703
sg8
V2001-02-18
p4704
sa(dp4705
g2
S'Science Policy for the Next 50 Years - From Guns to Pills to Brains\xe2\x80\xa6 (2)'
p4706
sg4
Vhttp://hdl.handle.net/2027.42/89280
p4707
sg6
V.PDF file
p4708
sg8
V2001-02-18
p4709
sa(dp4710
g2
S'Scientific Integrity'
p4711
sg4
Vhttp://hdl.handle.net/2027.42/89281
p4712
sg6
V.PDF file
p4713
sg8
V1993
p4714
sa(dp4715
g2
S'Scientific Integrity and the University'
p4716
sg4
Vhttp://hdl.handle.net/2027.42/79538
p4717
sg6
V.PDF file
p4718
sg8
V1993
p4719
sa(dp4720
g2
S'Scripps-Howard'
p4721
sg4
Vhttp://hdl.handle.net/2027.42/89282
p4722
sg6
V.PDF file
p4723
sg8
V1988
p4724
sa(dp4725
g2
S'Semiconductor Conference'
p4726
sg4
Vhttp://hdl.handle.net/2027.42/89283
p4727
sg6
V.PDF file
p4728
sg8
V1989
p4729
sa(dp4730
g2
S'Senate Assembly'
p4731
sg4
Vhttp://hdl.handle.net/2027.42/89284
p4732
sg6
V.PDF file
p4733
sg8
V1995
p4734
sa(dp4735
g2
S'Senate Assembly'
p4736
sg4
Vhttp://hdl.handle.net/2027.42/89285
p4737
sg6
V.PDF file
p4738
sg8
V1996
p4739
sa(dp4740
g2
S'Senate Assembly  1.3'
p4741
sg4
Vhttp://hdl.handle.net/2027.42/89286
p4742
sg6
V.PDF file
p4743
sg8
V1990
p4744
sa(dp4745
g2
S'Senate Assembly Address'
p4746
sg4
Vhttp://hdl.handle.net/2027.42/89288
p4747
sg6
V.PDF file
p4748
sg8
V2008
p4749
sa(dp4750
g2
S'Senate Assembly Address'
p4751
sg4
Vhttp://hdl.handle.net/2027.42/89289
p4752
sg6
V.PDF file
p4753
sg8
V2009
p4754
sa(dp4755
g2
S'Senate Assembly Slides 3-14-96.pdf'
p4756
sg4
Vhttp://hdl.handle.net/2027.42/89290
p4757
sg6
V.PDF file
p4758
sg8
V1996
p4759
sa(dp4760
g2
S'Senate Republican Caucus'
p4761
sg4
Vhttp://hdl.handle.net/2027.42/89291
p4762
sg6
V.PDF file
p4763
sg8
V1989
p4764
sa(dp4765
g2
S'Senate Test Text 2'
p4766
sg4
Vhttp://hdl.handle.net/2027.42/89292
p4767
sg6
V.PDF file
p4768
sg8
V1996
p4769
sa(dp4770
g2
S'Senate Testimony'
p4771
sg4
Vhttp://hdl.handle.net/2027.42/89293
p4772
sg6
V.PDF file
p4773
sg8
V1995
p4774
sa(dp4775
g2
S'Senate Testimony'
p4776
sg4
Vhttp://hdl.handle.net/2027.42/89294
p4777
sg6
V.PDF file
p4778
sg8
V1996
p4779
sa(dp4780
g2
S'Service Awards'
p4781
sg4
Vhttp://hdl.handle.net/2027.42/89295
p4782
sg6
V.PDF file
p4783
sg8
V1990
p4784
sa(dp4785
g2
S'Shapiro Farewell Dinner'
p4786
sg4
Vhttp://hdl.handle.net/2027.42/89296
p4787
sg6
V.PDF file
p4788
sg8
V1987
p4789
sa(dp4790
g2
S'Sigma Xi Forum Notes'
p4791
sg4
Vhttp://hdl.handle.net/2027.42/89297
p4792
sg6
V.PDF file
p4793
sg8
V2001
p4794
sa(dp4795
g2
S'Simulator Site Visit'
p4796
sg4
Vhttp://hdl.handle.net/2027.42/89300
p4797
sg6
V.PDF file
p4798
sg8
V1991
p4799
sa(dp4800
g2
S'Solar Car'
p4801
sg4
Vhttp://hdl.handle.net/2027.42/89301
p4802
sg6
V.PDF file
p4803
sg8
V1990
p4804
sa(dp4805
g2
S'Solid State Lab Dedication'
p4806
sg4
Vhttp://hdl.handle.net/2027.42/89302
p4807
sg6
V.PDF file
p4808
sg8
V1987
p4809
sa(dp4810
g2
S'Some (Belated) Observations on the Information Technology Strategic Plan'
p4811
sg4
Vhttp://hdl.handle.net/2027.42/115476
p4812
sg6
V.PDF file
p4813
sg8
V2013-07-01
p4814
sa(dp4815
g2
S'Some Informal Notes on Compensation Programs for Faculty and Senior Academic Leadership'
p4816
sg4
Vhttp://hdl.handle.net/2027.42/89304
p4817
sg6
V.PDF file
p4818
sg8
V2006
p4819
sa(dp4820
g2
S'Some Informal Notes on Compensation Programs for Faculty and Senior Academic Leadership'
p4821
sg4
Vhttp://hdl.handle.net/2027.42/89305
p4822
sg6
V.PDF file
p4823
sg8
V2007
p4824
sa(dp4825
g2
S'Some Notes of NSF "Tutorial" on Technology and Learning'
p4826
sg4
Vhttp://hdl.handle.net/2027.42/89306
p4827
sg6
V.PDF file
p4828
sg8
V2003-10-29
p4829
sa(dp4830
g2
S'Some Observations Concerning A Possible National Science Board Study of Graduate Education in Science and Engineering (1)'
p4831
sg4
Vhttp://hdl.handle.net/2027.42/89308
p4832
sg6
V.PDF file
p4833
sg8
V1997-08-20
p4834
sa(dp4835
g2
S'Some Observations Concerning A Possible National Science Board Study of Graduate Education in Science and Engineering (2)'
p4836
sg4
Vhttp://hdl.handle.net/2027.42/89307
p4837
sg6
V.PDF file
p4838
sg8
V1997-08-20
p4839
sa(dp4840
g2
S'Some Observations Concerning The Changing Nature of Funding of the American Research University'
p4841
sg4
Vhttp://hdl.handle.net/2027.42/89311
p4842
sg6
V.PDF file
p4843
sg8
V1998-10-28
p4844
sa(dp4845
g2
S'Some Observations Concerning The Changing Nature of Funding of the American Research University (1.01)'
p4846
sg4
Vhttp://hdl.handle.net/2027.42/89312
p4847
sg6
V.PDF file
p4848
sg8
V1998-10-28
p4849
sa(dp4850
g2
S'Some Observations Concerning the FY2001 Federal R&D Budget'
p4851
sg4
Vhttp://hdl.handle.net/2027.42/89314
p4852
sg6
V.PDF file
p4853
sg8
V2000
p4854
sa(dp4855
g2
S'Some Observations Concerning the Future of the Public Research University'
p4856
sg4
Vhttp://hdl.handle.net/2027.42/89313
p4857
sg6
V.PDF file
p4858
sg8
V1996-03-28
p4859
sa(dp4860
g2
S'Some Observations on the Current State And the Future of Intercollegiate Athletics (1)'
p4861
sg4
Vhttp://hdl.handle.net/2027.42/89315
p4862
sg6
V.PDF file
p4863
sg8
V2000-10-18
p4864
sa(dp4865
g2
S'Some Observations on the Current State And the Future of Intercollegiate Athletics (2)'
p4866
sg4
Vhttp://hdl.handle.net/2027.42/89316
p4867
sg6
V.PDF file
p4868
sg8
V2000-10-18
p4869
sa(dp4870
g2
S'Some Observations on the Current State And the Future of Intercollegiate Athletics (3)'
p4871
sg4
Vhttp://hdl.handle.net/2027.42/89317
p4872
sg6
V.PDF file
p4873
sg8
V2001-10-18
p4874
sa(dp4875
g2
S"Some Observations on the SOE's Task Force on Higher Ed"
p4876
sg4
Vhttp://hdl.handle.net/2027.42/89318
p4877
sg6
V.PDF file
p4878
sg8
V2006
p4879
sa(dp4880
g2
S'Some Odds and Ends'
p4881
sg4
Vhttp://hdl.handle.net/2027.42/89319
p4882
sg6
V.PDF file
p4883
sg8
V1998
p4884
sa(dp4885
g2
S'Some Reflections on the Future of the American Academic Research Enterprise'
p4886
sg4
Vhttp://hdl.handle.net/2027.42/79561
p4887
sg6
V.PDF file
p4888
sg8
V1992
p4889
sa(dp4890
g2
S'Some Thoughts about Your Future as a Michigan Engineering Student'
p4891
sg4
Vhttp://hdl.handle.net/2027.42/89320
p4892
sg6
V.PDF file
p4893
sg8
V2004
p4894
sa(dp4895
g2
S'Some Thoughts on Framing the Work of the Commission and the National Dialog'
p4896
sg4
Vhttp://hdl.handle.net/2027.42/89322
p4897
sg6
V.PDF file
p4898
sg8
V2006
p4899
sa(dp4900
g2
S'Some Thoughts on Framing the Work on the Commission and the National Dialog (1)'
p4901
sg4
Vhttp://hdl.handle.net/2027.42/89323
p4902
sg6
V.PDF file
p4903
sg8
V2005
p4904
sa(dp4905
g2
S'Some Thoughts on Framing the Work on the Commission and the National Dialog (2)'
p4906
sg4
Vhttp://hdl.handle.net/2027.42/89324
p4907
sg6
V.PDF file
p4908
sg8
V2005
p4909
sa(dp4910
g2
S'Some ideas concerning academic budgeting models for a time of change'
p4911
sg4
Vhttp://hdl.handle.net/2027.42/89303
p4912
sg6
V.PDF file
p4913
sg8
V2000
p4914
sa(dp4915
g2
S'Space Application'
p4916
sg4
Vhttp://hdl.handle.net/2027.42/89325
p4917
sg6
V.PDF file
p4918
sg8
V2004
p4919
sa(dp4920
g2
S'Space Physics Research Lab'
p4921
sg4
Vhttp://hdl.handle.net/2027.42/89326
p4922
sg6
V.PDF file
p4923
sg8
V1987
p4924
sa(dp4925
g2
S'Spectral representations for the memory kernel characterizing self-diffusion'
p4926
sg4
Vhttp://hdl.handle.net/2027.42/45130
p4927
sg6
V.PDF file
p4928
sg8
V1974-11
p4929
sa(dp4930
g2
S'Speculating about the Future of the University of the 21st Century\xe2\x80\xa6for a 21st Century University'
p4931
sg4
Vhttp://hdl.handle.net/2027.42/89328
p4932
sg6
V.PDF file
p4933
sg8
V2002-10-18
p4934
sa(dp4935
g2
S'Speculating about the Future of the University of the 21st Century\xe2\x80\xa6for a 21st Century University (2.0)'
p4936
sg4
Vhttp://hdl.handle.net/2027.42/89327
p4937
sg6
V.PDF file
p4938
sg8
V2002-10-18
p4939
sa(dp4940
g2
S'Speech Outlines--1991-92'
p4941
sg4
Vhttp://hdl.handle.net/2027.42/89329
p4942
sg6
V.PDF file
p4943
sg8
V1991
p4944
sa(dp4945
g2
S'Speech Topics'
p4946
sg4
Vhttp://hdl.handle.net/2027.42/89330
p4947
sg6
V.PDF file
p4948
sg8
V1988
p4949
sa(dp4950
g2
S'Speech Topics'
p4951
sg4
Vhttp://hdl.handle.net/2027.42/89331
p4952
sg6
V.PDF file
p4953
sg8
V1991
p4954
sa(dp4955
g2
S'Sports Course outline'
p4956
sg4
Vhttp://hdl.handle.net/2027.42/89333
p4957
sg6
V.PDF file
p4958
sg8
V1999
p4959
sa(dp4960
g2
S'Spring Commencement Script'
p4961
sg4
Vhttp://hdl.handle.net/2027.42/89334
p4962
sg6
V.PDF file
p4963
sg8
V1991
p4964
sa(dp4965
g2
S'State Appropriations Test'
p4966
sg4
Vhttp://hdl.handle.net/2027.42/89337
p4967
sg6
V.PDF file
p4968
sg8
V1988
p4969
sa(dp4970
g2
S'State Budget Request Narrative'
p4971
sg4
Vhttp://hdl.handle.net/2027.42/89338
p4972
sg6
V.PDF file
p4973
sg8
V1987
p4974
sa(dp4975
g2
S'State Legislature Briefings 1986'
p4976
sg4
Vhttp://hdl.handle.net/2027.42/89339
p4977
sg6
V.PDF file
p4978
sg8
V1986
p4979
sa(dp4980
g2
S'State Legislature Testimony'
p4981
sg4
Vhttp://hdl.handle.net/2027.42/89340
p4982
sg6
V.PDF file
p4983
sg8
V1995
p4984
sa(dp4985
g2
S'State Plan'
p4986
sg4
Vhttp://hdl.handle.net/2027.42/89347
p4987
sg6
V.PDF file
p4988
sg8
V1989
p4989
sa(dp4990
g2
S'State Strategy 2'
p4991
sg4
Vhttp://hdl.handle.net/2027.42/89348
p4992
sg6
V.PDF file
p4993
sg8
V1989
p4994
sa(dp4995
g2
S'State Strategy-89'
p4996
sg4
Vhttp://hdl.handle.net/2027.42/89349
p4997
sg6
V.PDF file
p4998
sg8
V1989
p4999
sa(dp5000
g2
S'State Support'
p5001
sg4
Vhttp://hdl.handle.net/2027.42/89350
p5002
sg6
V.PDF file
p5003
sg8
V1989
p5004
sa(dp5005
g2
S'State Support Outline'
p5006
sg4
Vhttp://hdl.handle.net/2027.42/89351
p5007
sg6
V.PDF file
p5008
sg8
V1995
p5009
sa(dp5010
g2
S'State of University Speech'
p5011
sg4
Vhttp://hdl.handle.net/2027.42/89346
p5012
sg6
V.PDF file
p5013
sg8
V1989
p5014
sa(dp5015
g2
S'State of the UM: College of Engineering'
p5016
sg4
Vhttp://hdl.handle.net/2027.42/79564
p5017
sg6
V.PDF file
p5018
sg8
V1985
p5019
sa(dp5020
g2
S'State of the University'
p5021
sg4
Vhttp://hdl.handle.net/2027.42/89341
p5022
sg6
V.PDF file
p5023
sg8
V1988
p5024
sa(dp5025
g2
S'State of the University'
p5026
sg4
Vhttp://hdl.handle.net/2027.42/89342
p5027
sg6
V.PDF file
p5028
sg8
V1990
p5029
sa(dp5030
g2
S'State of the University 1995'
p5031
sg4
Vhttp://hdl.handle.net/2027.42/89344
p5032
sg6
V.PDF file
p5033
sg8
V1995
p5034
sa(dp5035
g2
S'State of the University Address, 1988'
p5036
sg4
Vhttp://hdl.handle.net/2027.42/79517
p5037
sg6
V.PDF file
p5038
sg8
V1988
p5039
sa(dp5040
g2
S'State of the University Address, 1989'
p5041
sg4
Vhttp://hdl.handle.net/2027.42/79508
p5042
sg6
V.PDF file
p5043
sg8
V1989
p5044
sa(dp5045
g2
S'State of the University Address, 1990'
p5046
sg4
Vhttp://hdl.handle.net/2027.42/79525
p5047
sg6
V.PDF file
p5048
sg8
V1990
p5049
sa(dp5050
g2
S'State of the University Address, 1995'
p5051
sg4
Vhttp://hdl.handle.net/2027.42/79507
p5052
sg6
V.PDF file
p5053
sg8
V1995
p5054
sa(dp5055
g2
S'State of the University Text'
p5056
sg4
Vhttp://hdl.handle.net/2027.42/89345
p5057
sg6
V.PDF file
p5058
sg8
V1989
p5059
sa(dp5060
g2
S'Statement of JJD before the Subcommittee on Energy and Environment Committee on Science, U.S. House of Representatives'
p5061
sg4
Vhttp://hdl.handle.net/2027.42/89352
p5062
sg6
V.PDF file
p5063
sg8
V2000-07-25
p5064
sa(dp5065
g2
S'Statement of JJD before the Subcommittee on Energy and Environment Committee on Science, U.S. House of Representatives (1.1)'
p5066
sg4
Vhttp://hdl.handle.net/2027.42/89353
p5067
sg6
V.PDF file
p5068
sg8
V2000-07-25
p5069
sa(dp5070
g2
S'Steering Committee'
p5071
sg4
Vhttp://hdl.handle.net/2027.42/89355
p5072
sg6
V.PDF file
p5073
sg8
V1991
p5074
sa(dp5075
g2
S'Strategic Marketing Plan'
p5076
sg4
Vhttp://hdl.handle.net/2027.42/89358
p5077
sg6
V.PDF file
p5078
sg8
V1991
p5079
sa(dp5080
g2
S'Strategic Planning Update'
p5081
sg4
Vhttp://hdl.handle.net/2027.42/89360
p5082
sg6
V.PDF file
p5083
sg8
V1992
p5084
sa(dp5085
g2
S'Strategic Planning for 1990s'
p5086
sg4
Vhttp://hdl.handle.net/2027.42/89359
p5087
sg6
V.PDF file
p5088
sg8
V1992
p5089
sa(dp5090
g2
S'Strawman Document for Workshop'
p5091
sg4
Vhttp://hdl.handle.net/2027.42/89361
p5092
sg6
V.PDF file
p5093
sg8
V2001
p5094
sa(dp5095
g2
S'Strengths, Weaknesses, Opportunities, and Threats (SWOT) Analysis for The Office of Science of the Department on Energy (DOE-SC)'
p5096
sg4
Vhttp://hdl.handle.net/2027.42/89362
p5097
sg6
V.PDF file
p5098
sg8
V2003
p5099
sa(dp5100
g2
S'Student Inaugural Address'
p5101
sg4
Vhttp://hdl.handle.net/2027.42/89363
p5102
sg6
V.PDF file
p5103
sg8
V1988
p5104
sa(dp5105
g2
S'Student Inaugural Address 1.1'
p5106
sg4
Vhttp://hdl.handle.net/2027.42/89364
p5107
sg6
V.PDF file
p5108
sg8
V1988
p5109
sa(dp5110
g2
S'Student Inaugural Address 1.5'
p5111
sg4
Vhttp://hdl.handle.net/2027.42/89366
p5112
sg6
V.PDF file
p5113
sg8
V1988
p5114
sa(dp5115
g2
S'Student Leadership'
p5116
sg4
Vhttp://hdl.handle.net/2027.42/89367
p5117
sg6
V.PDF file
p5118
sg8
V1990
p5119
sa(dp5120
g2
S'Student Recognition Award'
p5121
sg4
Vhttp://hdl.handle.net/2027.42/89368
p5122
sg6
V.PDF file
p5123
sg8
V1989
p5124
sa(dp5125
g2
S'Student Services Review'
p5126
sg4
Vhttp://hdl.handle.net/2027.42/89369
p5127
sg6
V.PDF file
p5128
sg8
V1991
p5129
sa(dp5130
g2
S'Student Welcome 1986'
p5131
sg4
Vhttp://hdl.handle.net/2027.42/89370
p5132
sg6
V.PDF file
p5133
sg8
V1986
p5134
sa(dp5135
g2
S'Student-Athlete Reception'
p5136
sg4
Vhttp://hdl.handle.net/2027.42/89371
p5137
sg6
V.PDF file
p5138
sg8
V1987
p5139
sa(dp5140
g2
S'Studies in Religion'
p5141
sg4
Vhttp://hdl.handle.net/2027.42/89372
p5142
sg6
V.PDF file
p5143
sg8
V1989
p5144
sa(dp5145
g2
S'Stump Speech 1.2'
p5146
sg4
Vhttp://hdl.handle.net/2027.42/89373
p5147
sg6
V.PDF file
p5148
sg8
V1996
p5149
sa(dp5150
g2
S'Submitting the final report of the University-College Partnership Study Committee'
p5151
sg4
Vhttp://hdl.handle.net/2027.42/89374
p5152
sg6
V.PDF file
p5153
sg8
V1999-08-14
p5154
sa(dp5155
g2
S'Summary 1989-90'
p5156
sg4
Vhttp://hdl.handle.net/2027.42/89375
p5157
sg6
V.PDF file
p5158
sg8
V1990
p5159
sa(dp5160
g2
S'Summary 1990-91'
p5161
sg4
Vhttp://hdl.handle.net/2027.42/89377
p5162
sg6
V.PDF file
p5163
sg8
V1991
p5164
sa(dp5165
g2
S'Summary of Meeting'
p5166
sg4
Vhttp://hdl.handle.net/2027.42/89378
p5167
sg6
V.PDF file
p5168
sg8
V1998
p5169
sa(dp5170
g2
S'Summary of Planned Testimony of James J. Duderstadt'
p5171
sg4
Vhttp://hdl.handle.net/2027.42/89379
p5172
sg6
V.PDF file
p5173
sg8
V2000
p5174
sa(dp5175
g2
S'Summary of recommendations from NERACT'
p5176
sg4
Vhttp://hdl.handle.net/2027.42/89380
p5177
sg6
V.PDF file
p5178
sg8
V2000
p5179
sa(dp5180
g2
S"Support for Bentley as a site for archiving Governor's papers"
p5181
sg4
Vhttp://hdl.handle.net/2027.42/89381
p5182
sg6
V.PDF file
p5183
sg8
V2000
p5184
sa(dp5185
g2
S'Switzerland conference summary'
p5186
sg4
Vhttp://hdl.handle.net/2027.42/89382
p5187
sg6
V.PDF file
p5188
sg8
V1998
p5189
sa(dp5190
g2
S'Table S-2, Roadmapping Neutron Sources'
p5191
sg4
Vhttp://hdl.handle.net/2027.42/89383
p5192
sg6
V.PDF file
p5193
sg8
V2000
p5194
sa(dp5195
g2
S'Table S-2, Roadmapping Neutron Sources (Draft, rev. 1)'
p5196
sg4
Vhttp://hdl.handle.net/2027.42/89384
p5197
sg6
V.PDF file
p5198
sg8
V2000
p5199
sa(dp5200
g2
S'Table S-3, Roadmap Gap Analysis Needs that Cannot be Met with Operating Facilities'
p5201
sg4
Vhttp://hdl.handle.net/2027.42/89385
p5202
sg6
V.PDF file
p5203
sg8
V2000
p5204
sa(dp5205
g2
S'Table S-3, Roadmap Gap Analysis Needs that Cannot be Met with Operating Facilities (Draft, rev. 1)'
p5206
sg4
Vhttp://hdl.handle.net/2027.42/89386
p5207
sg6
V.PDF file
p5208
sg8
V2000
p5209
sa(dp5210
g2
S'Tanner Lecture'
p5211
sg4
Vhttp://hdl.handle.net/2027.42/89388
p5212
sg6
V.PDF file
p5213
sg8
V1990
p5214
sa(dp5215
g2
S'Tanner Meeting'
p5216
sg4
Vhttp://hdl.handle.net/2027.42/89389
p5217
sg6
V.PDF file
p5218
sg8
V1991
p5219
sa(dp5220
g2
S'Task Force on UC Compensation, Accountability, and Transparency'
p5221
sg4
Vhttp://hdl.handle.net/2027.42/89391
p5222
sg6
V.PDF file
p5223
sg8
V2006-04
p5224
sa(dp5225
g2
S'Task Force on the Future of Science Programs at the Department of Energy'
p5226
sg4
Vhttp://hdl.handle.net/2027.42/89390
p5227
sg6
V.PDF file
p5228
sg8
V2003-01-22
p5229
sa(dp5230
g2
S'Taubman Conference'
p5231
sg4
Vhttp://hdl.handle.net/2027.42/89392
p5232
sg6
V.PDF file
p5233
sg8
V1989
p5234
sa(dp5235
g2
S'Taxonomy for MilProj - DRAFT 1'
p5236
sg4
Vhttp://hdl.handle.net/2027.42/89393
p5237
sg6
V.PDF file
p5238
sg8
V2002-06-27
p5239
sa(dp5240
g2
S'Teaching AND Research 2.1'
p5241
sg4
Vhttp://hdl.handle.net/2027.42/89394
p5242
sg6
V.PDF file
p5243
sg8
V1991
p5244
sa(dp5245
g2
S'Teaching v Research Notes'
p5246
sg4
Vhttp://hdl.handle.net/2027.42/89395
p5247
sg6
V.PDF file
p5248
sg8
V1990
p5249
sa(dp5250
g2
S'Tech Transfer 1.1'
p5251
sg4
Vhttp://hdl.handle.net/2027.42/89396
p5252
sg6
V.PDF file
p5253
sg8
V1993
p5254
sa(dp5255
g2
S'Technological Singularities'
p5256
sg4
Vhttp://hdl.handle.net/2027.42/89397
p5257
sg6
V.PDF file
p5258
sg8
V2003
p5259
sa(dp5260
g2
S'Technology Policy Text'
p5261
sg4
Vhttp://hdl.handle.net/2027.42/89399
p5262
sg6
V.PDF file
p5263
sg8
V1992
p5264
sa(dp5265
g2
S'Tentative Speech Topics'
p5266
sg4
Vhttp://hdl.handle.net/2027.42/89400
p5267
sg6
V.PDF file
p5268
sg8
V1989
p5269
sa(dp5270
g2
S'Testimony Support'
p5271
sg4
Vhttp://hdl.handle.net/2027.42/89402
p5272
sg6
V.PDF file
p5273
sg8
V1995
p5274
sa(dp5275
g2
S'Testimony of NERA'
p5276
sg4
Vhttp://hdl.handle.net/2027.42/89401
p5277
sg6
V.PDF file
p5278
sg8
V2000
p5279
sa(dp5280
g2
S'Thanks for the naming of the Duderstadt Center'
p5281
sg4
Vhttp://hdl.handle.net/2027.42/89403
p5282
sg6
V.PDF file
p5283
sg8
V2005
p5284
sa(dp5285
g2
S'The 21st Century University - A Tale of Two Futures'
p5286
sg4
Vhttp://hdl.handle.net/2027.42/89404
p5287
sg6
V.PDF file
p5288
sg8
V1998
p5289
sa(dp5290
g2
S'The 21st Century University - A Tale of Two Futures'
p5291
sg4
Vhttp://hdl.handle.net/2027.42/89405
p5292
sg6
V.PDF file
p5293
sg8
V1998-02-23
p5294
sa(dp5295
g2
S'The 21st Century University - A Tale of Two Futures'
p5296
sg4
Vhttp://hdl.handle.net/2027.42/89406
p5297
sg6
V.PDF file
p5298
sg8
V1998-05-13
p5299
sa(dp5300
g2
S'The 21st Century University - A Tale of Two Futures'
p5301
sg4
Vhttp://hdl.handle.net/2027.42/89407
p5302
sg6
V.PDF file
p5303
sg8
V1998-06-22
p5304
sa(dp5305
g2
S'The Age of Knowledge'
p5306
sg4
Vhttp://hdl.handle.net/2027.42/89408
p5307
sg6
V.PDF file
p5308
sg8
V1990
p5309
sa(dp5310
g2
S'The American University - Challenges for the 21st Century'
p5311
sg4
Vhttp://hdl.handle.net/2027.42/89410
p5312
sg6
V.PDF file
p5313
sg8
V2006
p5314
sa(dp5315
g2
S'The American University in the Digital Age'
p5316
sg4
Vhttp://hdl.handle.net/2027.42/89411
p5317
sg6
V.PDF file
p5318
sg8
V1996-11-01
p5319
sa(dp5320
g2
S'The American University in the Digital Age'
p5321
sg4
Vhttp://hdl.handle.net/2027.42/89412
p5322
sg6
V.PDF file
p5323
sg8
V1996-11-13
p5324
sa(dp5325
g2
S'The American University in the Digital Age'
p5326
sg4
Vhttp://hdl.handle.net/2027.42/89413
p5327
sg6
V.PDF file
p5328
sg8
V1996-11-14
p5329
sa(dp5330
g2
S'The American University in the Digital Age (2.1)'
p5331
sg4
Vhttp://hdl.handle.net/2027.42/89414
p5332
sg6
V.PDF file
p5333
sg8
V1996-11-01
p5334
sa(dp5335
g2
S'The Calculation of Current Correlations in Classical Fluids via Modeled Kinetic Equations'
p5336
sg4
Vhttp://hdl.handle.net/2027.42/86141
p5337
sg6
V.PDF file
p5338
sg8
V1970-09
p5339
sa(dp5340
g2
S'The Challenge and Opportunity of Change: An Action Agenda to Prepare Higher Education for the 21st Century'
p5341
sg4
Vhttp://hdl.handle.net/2027.42/89415
p5342
sg6
V.PDF file
p5343
sg8
V1998
p5344
sa(dp5345
g2
S'The Challenge for the 1990s: Transforming the University (Draft 1.5)'
p5346
sg4
Vhttp://hdl.handle.net/2027.42/79557
p5347
sg6
V.PDF file
p5348
sg8
V1994
p5349
sa(dp5350
g2
S'The Challenge for the 1990s: Transforming the University to Serve a Changing World The Strategic Plan'
p5351
sg4
Vhttp://hdl.handle.net/2027.42/79515
p5352
sg6
V.PDF file
p5353
sg8
V1995
p5354
sa(dp5355
g2
S'The Challenge of Change: Inaugural Address'
p5356
sg4
Vhttp://hdl.handle.net/2027.42/79494
p5357
sg6
V.PDF file
p5358
sg8
V1988
p5359
sa(dp5360
g2
S'The Challenges and Hazards of Leading The University Transformations Demanded by a Learning Society'
p5361
sg4
Vhttp://hdl.handle.net/2027.42/89416
p5362
sg6
V.PDF file
p5363
sg8
V2001-06-11
p5364
sa(dp5365
g2
S'The Challenges and Opportunities of the Digital  Age for Higher Education 2.2'
p5366
sg4
Vhttp://hdl.handle.net/2027.42/89417
p5367
sg6
V.PDF file
p5368
sg8
V1997-08-04
p5369
sa(dp5370
g2
S'The Challenges and Opportunities of the Digital Age for Higher Education'
p5371
sg4
Vhttp://hdl.handle.net/2027.42/89418
p5372
sg6
V.PDF file
p5373
sg8
V1997-10-21
p5374
sa(dp5375
g2
S'The Challenges and Opportunities of the Digital Age for Higher Education - Snowmass'
p5376
sg4
Vhttp://hdl.handle.net/2027.42/89419
p5377
sg6
V.PDF file
p5378
sg8
V1997-08-04
p5379
sa(dp5380
g2
S'The Changing Nature of Research and the Future of the Research University'
p5381
sg4
Vhttp://hdl.handle.net/2027.42/88219
p5382
sg6
V.PDF file
p5383
sg8
V2003-10-01
p5384
sa(dp5385
g2
S'The Changing Nature of Research and the Future of the Research University - Glion IV'
p5386
sg4
Vhttp://hdl.handle.net/2027.42/88220
p5387
sg6
V.PDF file
p5388
sg8
V2003-06-22
p5389
sa(dp5390
g2
S'The Changing Nature of Research and the Future of the Research University - Powerpoint'
p5391
sg4
Vhttp://hdl.handle.net/2027.42/88221
p5392
sg6
V.PDF file
p5393
sg8
V2003
p5394
sa(dp5395
g2
S'The Changing Nature of Research and the Future of the Research University - Texas'
p5396
sg4
Vhttp://hdl.handle.net/2027.42/88222
p5397
sg6
V.PDF file
p5398
sg8
V2003-10-07
p5399
sa(dp5400
g2
S'The Changing nature of the American Research University Ecosystem'
p5401
sg4
Vhttp://hdl.handle.net/2027.42/88223
p5402
sg6
V.PDF file
p5403
sg8
V2009
p5404
sa(dp5405
g2
S'The China Odyssey, A University of Michigan Expedition to China and Tibet'
p5406
sg4
Vhttp://hdl.handle.net/2027.42/88224
p5407
sg6
V.PDF file
p5408
sg8
V1993
p5409
sa(dp5410
g2
S'The College of Engineering Status and Future Planning Document Update'
p5411
sg4
Vhttp://hdl.handle.net/2027.42/79548
p5412
sg6
V.PDF file
p5413
sg8
V1981
p5414
sa(dp5415
g2
S'The College of Engineering: Status and Future A Presentation for the Executive Officers'
p5416
sg4
Vhttp://hdl.handle.net/2027.42/79543
p5417
sg6
V.PDF file
p5418
sg8
V1981
p5419
sa(dp5420
g2
S'The Committee to Assess the Capacity of The U.S. Engineering Research Enterprise'
p5421
sg4
Vhttp://hdl.handle.net/2027.42/88225
p5422
sg6
V.PDF file
p5423
sg8
V2004-06-16
p5424
sa(dp5425
g2
S'The Cost Price, and Value of a College Education'
p5426
sg4
Vhttp://hdl.handle.net/2027.42/79562
p5427
sg6
V.PDF file
p5428
sg8
V1996
p5429
sa(dp5430
g2
S'The Costs and Values of a College Education'
p5431
sg4
Vhttp://hdl.handle.net/2027.42/88226
p5432
sg6
V.PDF file
p5433
sg8
V1996
p5434
sa(dp5435
g2
S'The Crisis Facing Engineering Education in Michigan: A Call for Action'
p5436
sg4
Vhttp://hdl.handle.net/2027.42/79496
p5437
sg6
V.PDF file
p5438
sg8
V1985
p5439
sa(dp5440
g2
S'The Crisis in Financing Public Higher Education - and a Possible Solution: A 21st C Learn Grant Act'
p5441
sg4
Vhttp://hdl.handle.net/2027.42/88227
p5442
sg6
V.PDF file
p5443
sg8
V2005
p5444
sa(dp5445
g2
S'The Crisis in Financing Public Higher Education - and a Possible Solution: A 21st C Learn Grant Act'
p5446
sg4
Vhttp://hdl.handle.net/2027.42/88228
p5447
sg6
V.PDF file
p5448
sg8
V2007
p5449
sa(dp5450
g2
S'The Crisis in Financing Public Higher Education - and a Possible Solution: A 21st C Learn Grant Act (2)'
p5451
sg4
Vhttp://hdl.handle.net/2027.42/88230
p5452
sg6
V.PDF file
p5453
sg8
V2005
p5454
sa(dp5455
g2
S'The Development on a Undergraduate Minor Concentration in Nuclear Fission Power Engineering'
p5456
sg4
Vhttp://hdl.handle.net/2027.42/88231
p5457
sg6
V.PDF file
p5458
sg8
V2002
p5459
sa(dp5460
g2
S'The Duderstadt Decade (Peckham Chapter)'
p5461
sg4
Vhttp://hdl.handle.net/2027.42/88232
p5462
sg6
V.PDF file
p5463
sg8
V1996
p5464
sa(dp5465
g2
S'The Economics of Higher Education'
p5466
sg4
Vhttp://hdl.handle.net/2027.42/88233
p5467
sg6
V.PDF file
p5468
sg8
V1990
p5469
sa(dp5470
g2
S'The Energy Wars: Some Lessons Learned'
p5471
sg4
Vhttp://hdl.handle.net/2027.42/88234
p5472
sg6
V.PDF file
p5473
sg8
V2007
p5474
sa(dp5475
g2
S'The Evolution of Information Technology'
p5476
sg4
Vhttp://hdl.handle.net/2027.42/88235
p5477
sg6
V.PDF file
p5478
sg8
V2000
p5479
sa(dp5480
g2
S'The Evolution of Information Technology'
p5481
sg4
Vhttp://hdl.handle.net/2027.42/88236
p5482
sg6
V.PDF file
p5483
sg8
V2003
p5484
sa(dp5485
g2
S'The Evolution of Information Technology'
p5486
sg4
Vhttp://hdl.handle.net/2027.42/88237
p5487
sg6
V.PDF file
p5488
sg8
V2005
p5489
sa(dp5490
g2
S'The External Environment of the University'
p5491
sg4
Vhttp://hdl.handle.net/2027.42/79514
p5492
sg6
V.PDF file
p5493
sg8
V1991
p5494
sa(dp5495
g2
S'The Federal Science and Technology Budget - Observations on the Impact of Changes in Mission Agency Budgets on Key Fields'
p5496
sg4
Vhttp://hdl.handle.net/2027.42/88238
p5497
sg6
V.PDF file
p5498
sg8
V1998
p5499
sa(dp5500
g2
S"The Federal Science and Technology Budget: An Investments in Our Nation's Future"
p5501
sg4
Vhttp://hdl.handle.net/2027.42/88239
p5502
sg6
V.PDF file
p5503
sg8
V2000
p5504
sa(dp5505
g2
S'The Future - Engineering Education for the 21st Century'
p5506
sg4
Vhttp://hdl.handle.net/2027.42/88241
p5507
sg6
V.PDF file
p5508
sg8
V2003
p5509
sa(dp5510
g2
S'The Future is Not What It Used To Be'
p5511
sg4
Vhttp://hdl.handle.net/2027.42/88242
p5512
sg6
V.PDF file
p5513
sg8
V1996-03-24
p5514
sa(dp5515
g2
S'The Future of Higher Education in the Knowledge-Driven, Global Economy of the 21st Century'
p5516
sg4
Vhttp://hdl.handle.net/2027.42/88247
p5517
sg6
V.PDF file
p5518
sg8
V2002-10-31
p5519
sa(dp5520
g2
S'The Future of Higher Education in the Knowledge-Driven, Global Economy of the 21st Century (1.2)'
p5521
sg4
Vhttp://hdl.handle.net/2027.42/88244
p5522
sg6
V.PDF file
p5523
sg8
V2002-10-31
p5524
sa(dp5525
g2
S'The Future of Higher Education in the Knowledge-Driven, Global Economy of the 21st Century (1.4)'
p5526
sg4
Vhttp://hdl.handle.net/2027.42/88245
p5527
sg6
V.PDF file
p5528
sg8
V2002-10-31
p5529
sa(dp5530
g2
S'The Future of Higher Education in the Knowledge-Driven, Global Economy of the 21st Century (2)'
p5531
sg4
Vhttp://hdl.handle.net/2027.42/88243
p5532
sg6
V.PDF file
p5533
sg8
V2002-10-31
p5534
sa(dp5535
g2
S'The Future of Higher Education in the Knowledge-Driven, Global Economy of the 21st Century (redline)'
p5536
sg4
Vhttp://hdl.handle.net/2027.42/88246
p5537
sg6
V.PDF file
p5538
sg8
V2002-10-31
p5539
sa(dp5540
g2
S'The Future of Higher Education in the United States'
p5541
sg4
Vhttp://hdl.handle.net/2027.42/88248
p5542
sg6
V.PDF file
p5543
sg8
V2006
p5544
sa(dp5545
g2
S'The Future of Higher Education, New Roles for the 21st-Century University'
p5546
sg4
Vhttp://hdl.handle.net/2027.42/88249
p5547
sg6
V.PDF file
p5548
sg8
V1999
p5549
sa(dp5550
g2
S'The Future of Nuclear Power'
p5551
sg4
Vhttp://hdl.handle.net/2027.42/88250
p5552
sg6
V.PDF file
p5553
sg8
V2004
p5554
sa(dp5555
g2
S'The Future of the American Research University'
p5556
sg4
Vhttp://hdl.handle.net/2027.42/88252
p5557
sg6
V.PDF file
p5558
sg8
V2003-10-07
p5559
sa(dp5560
g2
S'The Future of the American Research University'
p5561
sg4
Vhttp://hdl.handle.net/2027.42/88253
p5562
sg6
V.PDF file
p5563
sg8
V2011-03-17
p5564
sa(dp5565
g2
S'The Future of the Public Research University'
p5566
sg4
Vhttp://hdl.handle.net/2027.42/88254
p5567
sg6
V.PDF file
p5568
sg8
V1996-10-07
p5569
sa(dp5570
g2
S'The Future of the Public Research University'
p5571
sg4
Vhttp://hdl.handle.net/2027.42/88255
p5572
sg6
V.PDF file
p5573
sg8
V1997-03-17
p5574
sa(dp5575
g2
S'The Future of the Research University in the Digital Age'
p5576
sg4
Vhttp://hdl.handle.net/2027.42/88256
p5577
sg6
V.PDF file
p5578
sg8
V2000-01-29
p5579
sa(dp5580
g2
S'The Future of the Research University in the Digital Age'
p5581
sg4
Vhttp://hdl.handle.net/2027.42/88258
p5582
sg6
V.PDF file
p5583
sg8
V2000-05-09
p5584
sa(dp5585
g2
S'The Future of the Research University in the Digital Age'
p5586
sg4
Vhttp://hdl.handle.net/2027.42/88259
p5587
sg6
V.PDF file
p5588
sg8
V2000-11-13
p5589
sa(dp5590
g2
S'The Future of the Research University in the Digital Age (1.0)'
p5591
sg4
Vhttp://hdl.handle.net/2027.42/88257
p5592
sg6
V.PDF file
p5593
sg8
V2000-05-09
p5594
sa(dp5595
g2
S'The Future of the University'
p5596
sg4
Vhttp://hdl.handle.net/2027.42/88260
p5597
sg6
V.PDF file
p5598
sg8
V2010
p5599
sa(dp5600
g2
S'The Future of the University in an Age of Knowledge'
p5601
sg4
Vhttp://hdl.handle.net/2027.42/88261
p5602
sg6
V.PDF file
p5603
sg8
V1997
p5604
sa(dp5605
g2
S'The Future of the University in an Age of Knowledge'
p5606
sg4
Vhttp://hdl.handle.net/2027.42/88263
p5607
sg6
V.PDF file
p5608
sg8
V1997-03-31
p5609
sa(dp5610
g2
S'The Future of the University in an Age of Knowledge'
p5611
sg4
Vhttp://hdl.handle.net/2027.42/88264
p5612
sg6
V.PDF file
p5613
sg8
V1997-08
p5614
sa(dp5615
g2
S'The Future of the University in an Era of Change'
p5616
sg4
Vhttp://hdl.handle.net/2027.42/88265
p5617
sg6
V.PDF file
p5618
sg8
V1997-03-07
p5619
sa(dp5620
g2
S'The Future of the University in an Era of Change (1.7)'
p5621
sg4
Vhttp://hdl.handle.net/2027.42/88266
p5622
sg6
V.PDF file
p5623
sg8
V1997-03-07
p5624
sa(dp5625
g2
S'The Future of the University in the Digital Age'
p5626
sg4
Vhttp://hdl.handle.net/2027.42/88270
p5627
sg6
V.PDF file
p5628
sg8
V2001-04-22
p5629
sa(dp5630
g2
S'The Future of the University in the Digital Age'
p5631
sg4
Vhttp://hdl.handle.net/2027.42/88271
p5632
sg6
V.PDF file
p5633
sg8
V2001-05-31
p5634
sa(dp5635
g2
S'The Future of the University in the Digital Age'
p5636
sg4
Vhttp://hdl.handle.net/2027.42/88272
p5637
sg6
V.PDF file
p5638
sg8
V2001-05-31
p5639
sa(dp5640
g2
S'The Future of the University in the Digital Age'
p5641
sg4
Vhttp://hdl.handle.net/2027.42/88274
p5642
sg6
V.PDF file
p5643
sg8
V2001-12-04
p5644
sa(dp5645
g2
S'The Future of the University in the Digital Age (1.1)'
p5646
sg4
Vhttp://hdl.handle.net/2027.42/88267
p5647
sg6
V.PDF file
p5648
sg8
V1997-03-20
p5649
sa(dp5650
g2
S'The Future of the University in the Digital Age (1.4)'
p5651
sg4
Vhttp://hdl.handle.net/2027.42/88268
p5652
sg6
V.PDF file
p5653
sg8
V1997-03-20
p5654
sa(dp5655
g2
S'The Future of the University in the Digital Age (1.5)'
p5656
sg4
Vhttp://hdl.handle.net/2027.42/88269
p5657
sg6
V.PDF file
p5658
sg8
V1997-03-20
p5659
sa(dp5660
g2
S'The Future of the University: A Perspective from the Oort Cloud'
p5661
sg4
Vhttp://hdl.handle.net/2027.42/88275
p5662
sg6
V.PDF file
p5663
sg8
V2005-03-08
p5664
sa(dp5665
g2
S'The Future of the University: A Perspective from the Oort Cloud'
p5666
sg4
Vhttp://hdl.handle.net/2027.42/88276
p5667
sg6
V.PDF file
p5668
sg8
V2007-02
p5669
sa(dp5670
g2
S'The Future\xe2\x80\xa6The Near Term'
p5671
sg4
Vhttp://hdl.handle.net/2027.42/88278
p5672
sg6
V.PDF file
p5673
sg8
V2006
p5674
sa(dp5675
g2
S'The Future\xe2\x80\xa6the Near Term'
p5676
sg4
Vhttp://hdl.handle.net/2027.42/88277
p5677
sg6
V.PDF file
p5678
sg8
V2004
p5679
sa(dp5680
g2
S'The Gateway Campus'
p5681
sg4
Vhttp://hdl.handle.net/2027.42/88279
p5682
sg6
V.PDF file
p5683
sg8
V1998
p5684
sa(dp5685
g2
S'The George H.W. Bush  "Lifetime of Leadership" Awards, Acceptance remarks'
p5686
sg4
Vhttp://hdl.handle.net/2027.42/88280
p5687
sg6
V.PDF file
p5688
sg8
V2003
p5689
sa(dp5690
g2
S'The George H.W. Bush  "Lifetime of Leadership" Awards, Acceptance remarks'
p5691
sg4
Vhttp://hdl.handle.net/2027.42/88281
p5692
sg6
V.PDF file
p5693
sg8
V2003-11-21
p5694
sa(dp5695
g2
S'The Government-University Research Partnership Beyond the Endless Frontier'
p5696
sg4
Vhttp://hdl.handle.net/2027.42/79526
p5697
sg6
V.PDF file
p5698
sg8
V1992
p5699
sa(dp5700
g2
S'The Great Lakes Region and the Knowledge Economy - A Roadmap to the Future (Fireside Chat)'
p5701
sg4
Vhttp://hdl.handle.net/2027.42/88282
p5702
sg6
V.PDF file
p5703
sg8
V2005-11-02
p5704
sa(dp5705
g2
S'The Great Lakes Region and the Knowledge Economy, A Roadmap to the Future (Fed. Reserve Chicago)'
p5706
sg4
Vhttp://hdl.handle.net/2027.42/88283
p5707
sg6
V.PDF file
p5708
sg8
V2005-11-02
p5709
sa(dp5710
g2
S'The Human and Intellectual Capital Investments Necessary for a Sustainable Nuclear Energy Future'
p5711
sg4
Vhttp://hdl.handle.net/2027.42/88285
p5712
sg6
V.PDF file
p5713
sg8
V2000-11-13
p5714
sa(dp5715
g2
S'The IT Forum: Preparing for the Revolution Redux'
p5716
sg4
Vhttp://hdl.handle.net/2027.42/88292
p5717
sg6
V.PDF file
p5718
sg8
V2005
p5719
sa(dp5720
g2
S'The IT Forum: Preparing for the Revolution Redux (Summary)'
p5721
sg4
Vhttp://hdl.handle.net/2027.42/88291
p5722
sg6
V.PDF file
p5723
sg8
V2005
p5724
sa(dp5725
g2
S'The Impact of Information Technology on the Future of the Research University - An Update on a National Academies Study'
p5726
sg4
Vhttp://hdl.handle.net/2027.42/88286
p5727
sg6
V.PDF file
p5728
sg8
V2003-11-16
p5729
sa(dp5730
g2
S'The Impact of Technology on Discovery and Learning in Research Universities'
p5731
sg4
Vhttp://hdl.handle.net/2027.42/115475
p5732
sg6
V.PDF file
p5733
sg8
V2013-06-05
p5734
sa(dp5735
g2
S'The Importance of Liberal Learning for an Increasingly Technological World'
p5736
sg4
Vhttp://hdl.handle.net/2027.42/88287
p5737
sg6
V.PDF file
p5738
sg8
V2001-03-15
p5739
sa(dp5740
g2
S'The Inglis House Estate, at the University of Michigan'
p5741
sg4
Vhttp://hdl.handle.net/2027.42/88288
p5742
sg6
V.PDF file
p5743
sg8
V2000
p5744
sa(dp5745
g2
S'The Inglis House Estate, at the University of Michigan'
p5746
sg4
Vhttp://hdl.handle.net/2027.42/88289
p5747
sg6
V.PDF file
p5748
sg8
V2001
p5749
sa(dp5750
g2
S'The Integrated Technology Instructional Center'
p5751
sg4
Vhttp://hdl.handle.net/2027.42/79539
p5752
sg6
V.PDF file
p5753
sg8
V1995
p5754
sa(dp5755
g2
S'The Interaction between Public and Private Higher Education'
p5756
sg4
Vhttp://hdl.handle.net/2027.42/88290
p5757
sg6
V.PDF file
p5758
sg8
V2002
p5759
sa(dp5760
g2
S"The Keys to Michigan's Future: Learning and Innovation"
p5761
sg4
Vhttp://hdl.handle.net/2027.42/88293
p5762
sg6
V.PDF file
p5763
sg8
V2010
p5764
sa(dp5765
g2
S'The Leadership Imperative'
p5766
sg4
Vhttp://hdl.handle.net/2027.42/88297
p5767
sg6
V.PDF file
p5768
sg8
V2006-09-25
p5769
sa(dp5770
g2
S'The Leadership Imperative (1)'
p5771
sg4
Vhttp://hdl.handle.net/2027.42/88294
p5772
sg6
V.PDF file
p5773
sg8
V2006-09-20
p5774
sa(dp5775
g2
S'The Leadership Imperative (3)'
p5776
sg4
Vhttp://hdl.handle.net/2027.42/88296
p5777
sg6
V.PDF file
p5778
sg8
V2006-09-20
p5779
sa(dp5780
g2
S'The Leadership Plan'
p5781
sg4
Vhttp://hdl.handle.net/2027.42/88298
p5782
sg6
V.PDF file
p5783
sg8
V1991
p5784
sa(dp5785
g2
S'The Making of the University of Michigan'
p5786
sg4
Vhttp://hdl.handle.net/2027.42/88299
p5787
sg6
V.PDF file
p5788
sg8
V1998
p5789
sa(dp5790
g2
S'The Michigan Agenda for Women'
p5791
sg4
Vhttp://hdl.handle.net/2027.42/79519
p5792
sg6
V.PDF file
p5793
sg8
V1996
p5794
sa(dp5795
g2
S'The Michigan Knowledge and Learning Network'
p5796
sg4
Vhttp://hdl.handle.net/2027.42/88300
p5797
sg6
V.PDF file
p5798
sg8
V1998
p5799
sa(dp5800
g2
S'The Michigan Mandate A Strategic Linking of Academic Excellence and Social Diversity'
p5801
sg4
Vhttp://hdl.handle.net/2027.42/79501
p5802
sg6
V.PDF file
p5803
sg8
V1990
p5804
sa(dp5805
g2
S'The Michigan Mandate, A Seven-Year Progress Report'
p5806
sg4
Vhttp://hdl.handle.net/2027.42/88301
p5807
sg6
V.PDF file
p5808
sg8
V1995
p5809
sa(dp5810
g2
S'The Michigan Mandate: A Four Year Progress Report'
p5811
sg4
Vhttp://hdl.handle.net/2027.42/79551
p5812
sg6
V.PDF file
p5813
sg8
V1992
p5814
sa(dp5815
g2
S'The Michigan Mandate: A Seven Year Progress Report, 1987-1994'
p5816
sg4
Vhttp://hdl.handle.net/2027.42/79555
p5817
sg6
V.PDF file
p5818
sg8
V1995
p5819
sa(dp5820
g2
S'The Michigan Mandate: A Strategic Linking of Academic Excellence and Social Diversity'
p5821
sg4
Vhttp://hdl.handle.net/2027.42/58612
p5822
sg6
V.PDF file
p5823
sg8
V1990-03
p5824
sa(dp5825
g2
S'The Michigan Mandate: A Strategic Linking of Excellence and Diversity'
p5826
sg4
Vhttp://hdl.handle.net/2027.42/79547
p5827
sg6
V.PDF file
p5828
sg8
V1988
p5829
sa(dp5830
g2
S'The Michigan Mandate: Bridge to Opportunity - Opening of the UM Detroit Admission Office'
p5831
sg4
Vhttp://hdl.handle.net/2027.42/79513
p5832
sg6
V.PDF file
p5833
sg8
V1990
p5834
sa(dp5835
g2
S'The Michigan Mandate: Looking Back and Looking Forward'
p5836
sg4
Vhttp://hdl.handle.net/2027.42/88302
p5837
sg6
V.PDF file
p5838
sg8
V2007-02-14
p5839
sa(dp5840
g2
S'The Michigan Roadmap Redux - A Call for Leadership'
p5841
sg4
Vhttp://hdl.handle.net/2027.42/88303
p5842
sg6
V.PDF file
p5843
sg8
V2008
p5844
sa(dp5845
g2
S'The Michigan Roadmap Redux, A Call for Leadership'
p5846
sg4
Vhttp://hdl.handle.net/2027.42/88304
p5847
sg6
V.PDF file
p5848
sg8
V2008
p5849
sa(dp5850
g2
S'The Michigan Saga'
p5851
sg4
Vhttp://hdl.handle.net/2027.42/88305
p5852
sg6
V.PDF file
p5853
sg8
V2006
p5854
sa(dp5855
g2
S'The Michigan Virtual Automobile College'
p5856
sg4
Vhttp://hdl.handle.net/2027.42/88307
p5857
sg6
V.PDF file
p5858
sg8
V1998-02-01
p5859
sa(dp5860
g2
S'The Michigan Virtual Automotive College'
p5861
sg4
Vhttp://hdl.handle.net/2027.42/88308
p5862
sg6
V.PDF file
p5863
sg8
V1998-03-09
p5864
sa(dp5865
g2
S'The Michigan-Oberlin-Kalamazoo Project, A Partnership between Liberal Arcs Colleges and Research Universities'
p5866
sg4
Vhttp://hdl.handle.net/2027.42/88309
p5867
sg6
V.PDF file
p5868
sg8
V2002
p5869
sa(dp5870
g2
S'The Midwest Region and the Knowledge Economy - A Roadmap to the Future'
p5871
sg4
Vhttp://hdl.handle.net/2027.42/88311
p5872
sg6
V.PDF file
p5873
sg8
V2007-05-15
p5874
sa(dp5875
g2
S'The Midwest Region and the Knowledge Economy - A Roadmap to the Future (Midwest Media Project)'
p5876
sg4
Vhttp://hdl.handle.net/2027.42/88310
p5877
sg6
V.PDF file
p5878
sg8
V2007-05-15
p5879
sa(dp5880
g2
S'The Millenium Project'
p5881
sg4
Vhttp://hdl.handle.net/2027.42/79567
p5882
sg6
V.PDF file
p5883
sg8
V1997
p5884
sa(dp5885
g2
S"The National Academies' Project on the Impact of Information Technology on the Future of the Research University"
p5886
sg4
Vhttp://hdl.handle.net/2027.42/88312
p5887
sg6
V.PDF file
p5888
sg8
V2001
p5889
sa(dp5890
g2
S'The Navigation of Universities Through a Flat World (EAU trimmed)'
p5891
sg4
Vhttp://hdl.handle.net/2027.42/88313
p5892
sg6
V.PDF file
p5893
sg8
V2008-03-25
p5894
sa(dp5895
g2
S'The Navigation of Universities through a Flat World (EAU)'
p5896
sg4
Vhttp://hdl.handle.net/2027.42/88315
p5897
sg6
V.PDF file
p5898
sg8
V2008-03-25
p5899
sa(dp5900
g2
S'The Navigation of Universities through a Flat World (Flexner)'
p5901
sg4
Vhttp://hdl.handle.net/2027.42/88314
p5902
sg6
V.PDF file
p5903
sg8
V2008-03-25
p5904
sa(dp5905
g2
S'The New Engineering - Challenges for the 21st Century'
p5906
sg4
Vhttp://hdl.handle.net/2027.42/88316
p5907
sg6
V.PDF file
p5908
sg8
V2004
p5909
sa(dp5910
g2
S'The North Woods Master Plan'
p5911
sg4
Vhttp://hdl.handle.net/2027.42/88318
p5912
sg6
V.PDF file
p5913
sg8
V2004
p5914
sa(dp5915
g2
S"The Nuclear Energy Research Advisory Committee (NERAC) of the Dept. of Energy, and the Future of the DOE's Nuclear Energy Research Programs"
p5916
sg4
Vhttp://hdl.handle.net/2027.42/88319
p5917
sg6
V.PDF file
p5918
sg8
V2002
p5919
sa(dp5920
g2
S'The Past'
p5921
sg4
Vhttp://hdl.handle.net/2027.42/88320
p5922
sg6
V.PDF file
p5923
sg8
V2003
p5924
sa(dp5925
g2
S'The Plan Itself 1.1'
p5926
sg4
Vhttp://hdl.handle.net/2027.42/88321
p5927
sg6
V.PDF file
p5928
sg8
V1991
p5929
sa(dp5930
g2
S'The Plug and Play Generation - See How They Learn\xe2\x80\xa6'
p5931
sg4
Vhttp://hdl.handle.net/2027.42/88322
p5932
sg6
V.PDF file
p5933
sg8
V2000
p5934
sa(dp5935
g2
S'The Political Correctness Debate: Achieving a Balance Between Academics and Social Responsibility'
p5936
sg4
Vhttp://hdl.handle.net/2027.42/79568
p5937
sg6
V.PDF file
p5938
sg8
V1991
p5939
sa(dp5940
g2
S'The Present - and a bit of "personal" history'
p5941
sg4
Vhttp://hdl.handle.net/2027.42/88323
p5942
sg6
V.PDF file
p5943
sg8
V2003
p5944
sa(dp5945
g2
S"The President's House at the University of Michigan"
p5946
sg4
Vhttp://hdl.handle.net/2027.42/88324
p5947
sg6
V.PDF file
p5948
sg8
V1999
p5949
sa(dp5950
g2
S"The President's House at the University of Michigan"
p5951
sg4
Vhttp://hdl.handle.net/2027.42/88325
p5952
sg6
V.PDF file
p5953
sg8
V2000
p5954
sa(dp5955
g2
S'The Privately Financed Public University: A Case Study of the University of Michigan-Ann Arbor'
p5956
sg4
Vhttp://hdl.handle.net/2027.42/88326
p5957
sg6
V.PDF file
p5958
sg8
V2005-11-01
p5959
sa(dp5960
g2
S'The Remarkable Resiliance of U.S. Colleges and Universities'
p5961
sg4
Vhttp://hdl.handle.net/2027.42/88327
p5962
sg6
V.PDF file
p5963
sg8
V2000
p5964
sa(dp5965
g2
S'The Report of the AGB Task Force on the State of the Presidency in American Higher Education'
p5966
sg4
Vhttp://hdl.handle.net/2027.42/88330
p5967
sg6
V.PDF file
p5968
sg8
V2006-09-25
p5969
sa(dp5970
g2
S'The Road Ahead'
p5971
sg4
Vhttp://hdl.handle.net/2027.42/88331
p5972
sg6
V.PDF file
p5973
sg8
V1996-03
p5974
sa(dp5975
g2
S'The Role of the Research University in Undergraduate Education'
p5976
sg4
Vhttp://hdl.handle.net/2027.42/79509
p5977
sg6
V.PDF file
p5978
sg8
V1989
p5979
sa(dp5980
g2
S'The Role of the University in an Era of Change'
p5981
sg4
Vhttp://hdl.handle.net/2027.42/79500
p5982
sg6
V.PDF file
p5983
sg8
V1991
p5984
sa(dp5985
g2
S'The Spellings Commission'
p5986
sg4
Vhttp://hdl.handle.net/2027.42/88332
p5987
sg6
V.PDF file
p5988
sg8
V2007
p5989
sa(dp5990
g2
S'The Status and Involvement of University Emeritus Presidents in the Life of the University'
p5991
sg4
Vhttp://hdl.handle.net/2027.42/88333
p5992
sg6
V.PDF file
p5993
sg8
V1991-10-09
p5994
sa(dp5995
g2
S'The Theory of Neutron Wave Propagation'
p5996
sg4
Vhttp://hdl.handle.net/2027.42/77502
p5997
sg6
V.PDF file
p5998
sg8
V1968
p5999
sa(dp6000
g2
S'The Theory of Neutron Wave Propagation'
p6001
sg4
Vhttp://hdl.handle.net/2027.42/88334
p6002
sg6
V.PDF file
p6003
sg8
V1968
p6004
sa(dp6005
g2
S'The Third Century'
p6006
sg4
Vhttp://hdl.handle.net/2027.42/88335
p6007
sg6
V.PDF file
p6008
sg8
V2011
p6009
sa(dp6010
g2
S"The Third Century: A Roadmap to the University of Michigan's Future"
p6011
sg4
Vhttp://hdl.handle.net/2027.42/114393
p6012
sg6
V.PDF file
p6013
sg8
V2014-10-01
p6014
sa(dp6015
g2
S'The Thrill of Victory\xe2\x80\xa6The Agony of Defeat\xe2\x80\xa6And the Gnashing of Teeth\xe2\x80\xa6As College Presidents Attempt to Reform Intercollegiate Athletics'
p6016
sg4
Vhttp://hdl.handle.net/2027.42/88336
p6017
sg6
V.PDF file
p6018
sg8
V1996
p6019
sa(dp6020
g2
S'The Top Ten'
p6021
sg4
Vhttp://hdl.handle.net/2027.42/88337
p6022
sg6
V.PDF file
p6023
sg8
V1992
p6024
sa(dp6025
g2
S'The Top Ten Objectives'
p6026
sg4
Vhttp://hdl.handle.net/2027.42/88338
p6027
sg6
V.PDF file
p6028
sg8
V1992
p6029
sa(dp6030
g2
S'The Twenty-first Century University: A Tale of Two Futures'
p6031
sg4
Vhttp://hdl.handle.net/2027.42/57290
p6032
sg6
V.PDF file
p6033
sg8
V1999-08
p6034
sa(dp6035
g2
S'The UM College of Engineering'
p6036
sg4
Vhttp://hdl.handle.net/2027.42/88341
p6037
sg6
V.PDF file
p6038
sg8
V2002
p6039
sa(dp6040
g2
S'The Ultimate Intelligent Platform: The American Research University'
p6041
sg4
Vhttp://hdl.handle.net/2027.42/88339
p6042
sg6
V.PDF file
p6043
sg8
V2002
p6044
sa(dp6045
g2
S'The University of Michigan'
p6046
sg4
Vhttp://hdl.handle.net/2027.42/79493
p6047
sg6
V.PDF file
p6048
sg8
V1990
p6049
sa(dp6050
g2
S'The University of Michigan'
p6051
sg4
Vhttp://hdl.handle.net/2027.42/88342
p6052
sg6
V.PDF file
p6053
sg8
V2006
p6054
sa(dp6055
g2
S'The University of Michigan Media Union Reunion - Dreams of the Past; Challenges of the Present; Opportunities of the Future'
p6056
sg4
Vhttp://hdl.handle.net/2027.42/88343
p6057
sg6
V.PDF file
p6058
sg8
V2002-08-11
p6059
sa(dp6060
g2
S'The University of Michigan Media Union: Open to All Those Who Dare to Invent the Future'
p6061
sg4
Vhttp://hdl.handle.net/2027.42/79506
p6062
sg6
V.PDF file
p6063
sg8
V1996
p6064
sa(dp6065
g2
S'The University of Michigans Media Union'
p6066
sg4
Vhttp://hdl.handle.net/2027.42/79553
p6067
sg6
V.PDF file
p6068
sg8
V1996
p6069
sa(dp6070
g2
S'The University of the 21st Century'
p6071
sg4
Vhttp://hdl.handle.net/2027.42/79540
p6072
sg6
V.PDF file
p6073
sg8
V1994
p6074
sa(dp6075
g2
S'The Use of Undergraduate Minors to Meet National Need in Nuclear Fission Power Engineering'
p6076
sg4
Vhttp://hdl.handle.net/2027.42/88344
p6077
sg6
V.PDF file
p6078
sg8
V2003
p6079
sa(dp6080
g2
S'The View from Year Five'
p6081
sg4
Vhttp://hdl.handle.net/2027.42/88347
p6082
sg6
V.PDF file
p6083
sg8
V2009
p6084
sa(dp6085
g2
S'The View from the Helm, Leading the American University During an Era of Change'
p6086
sg4
Vhttp://hdl.handle.net/2027.42/88345
p6087
sg6
V.PDF file
p6088
sg8
V2007
p6089
sa(dp6090
g2
S'The View from the Helm, Leading the American University During an Era of Change (Illustrated)'
p6091
sg4
Vhttp://hdl.handle.net/2027.42/88346
p6092
sg6
V.PDF file
p6093
sg8
V2007
p6094
sa(dp6095
g2
S'The Visitors 9-95'
p6096
sg4
Vhttp://hdl.handle.net/2027.42/88348
p6097
sg6
V.PDF file
p6098
sg8
V1995
p6099
sa(dp6100
g2
S'The Vital Connection: Reclaiming Great Lakes Economic Leadership in the Bi-National US-Canadian Region'
p6101
sg4
Vhttp://hdl.handle.net/2027.42/88349
p6102
sg6
V.PDF file
p6103
sg8
V2008-03
p6104
sa(dp6105
g2
S'The Year Past'
p6106
sg4
Vhttp://hdl.handle.net/2027.42/88350
p6107
sg6
V.PDF file
p6108
sg8
V1993
p6109
sa(dp6110
g2
S'Themes for 175th'
p6111
sg4
Vhttp://hdl.handle.net/2027.42/88352
p6112
sg6
V.PDF file
p6113
sg8
V1992
p6114
sa(dp6115
g2
S'Themes for 1991'
p6116
sg4
Vhttp://hdl.handle.net/2027.42/88353
p6117
sg6
V.PDF file
p6118
sg8
V1991
p6119
sa(dp6120
g2
S'Theory of Self\xe2\x80\x90Diffusion in Classical Fluids: The Van Hove Self\xe2\x80\x90Correlation Function G8(r,t)G8(r,t)'
p6121
sg4
Vhttp://hdl.handle.net/2027.42/70831
p6122
sg6
V.PDF file
p6123
sg8
V1970-09
p6124
sa(dp6125
g2
S'Theory of light scattering from dense plasmas'
p6126
sg4
Vhttp://hdl.handle.net/2027.42/70755
p6127
sg6
V.PDF file
p6128
sg8
V1973-05
p6129
sa(dp6130
g2
S'There are powerful forces driving an increasing societal demand for the services of the university\xe2\x80\xa6'
p6131
sg4
Vhttp://hdl.handle.net/2027.42/88354
p6132
sg6
V.PDF file
p6133
sg8
V1998
p6134
sa(dp6135
g2
S'Tilting at the Windmills: Policy Battles Won, Lost, or Long Since Forgotten'
p6136
sg4
Vhttp://hdl.handle.net/2027.42/114394
p6137
sg6
V.PDF file
p6138
sg8
V2015-05-01
p6139
sa(dp6140
g2
S'Time to Get it Right - A Strategy for Higher Education in Kansas City'
p6141
sg4
Vhttp://hdl.handle.net/2027.42/88355
p6142
sg6
V.PDF file
p6143
sg8
V2005
p6144
sa(dp6145
g2
S'Time to Get it Right: Staying Competitive in the New Economy - The View From Year Five'
p6146
sg4
Vhttp://hdl.handle.net/2027.42/88356
p6147
sg6
V.PDF file
p6148
sg8
V2009
p6149
sa(dp6150
g2
S'Title List'
p6151
sg4
Vhttp://hdl.handle.net/2027.42/88357
p6152
sg6
V.PDF file
p6153
sg8
V1990
p6154
sa(dp6155
g2
S'To Do-1991'
p6156
sg4
Vhttp://hdl.handle.net/2027.42/88358
p6157
sg6
V.PDF file
p6158
sg8
V1990
p6159
sa(dp6160
g2
S'To: Members of the Original "dream team" for the Media Union'
p6161
sg4
Vhttp://hdl.handle.net/2027.42/88359
p6162
sg6
V.PDF file
p6163
sg8
V2002
p6164
sa(dp6165
g2
S'Top 20 Ranking Undergrad'
p6166
sg4
Vhttp://hdl.handle.net/2027.42/88360
p6167
sg6
V.PDF file
p6168
sg8
V1991
p6169
sa(dp6170
g2
S'Toward an Educational Transformation'
p6171
sg4
Vhttp://hdl.handle.net/2027.42/79528
p6172
sg6
V.PDF file
p6173
sg8
V1996
p6174
sa(dp6175
g2
S'Toward an Educational Transformation'
p6176
sg4
Vhttp://hdl.handle.net/2027.42/88361
p6177
sg6
V.PDF file
p6178
sg8
V1996
p6179
sa(dp6180
g2
S'Transformation Course'
p6181
sg4
Vhttp://hdl.handle.net/2027.42/88363
p6182
sg6
V.PDF file
p6183
sg8
V1994
p6184
sa(dp6185
g2
S'Transformation Course 2'
p6186
sg4
Vhttp://hdl.handle.net/2027.42/88364
p6187
sg6
V.PDF file
p6188
sg8
V1994
p6189
sa(dp6190
g2
S'Transformation Talk 1.2'
p6191
sg4
Vhttp://hdl.handle.net/2027.42/88365
p6192
sg6
V.PDF file
p6193
sg8
V1994
p6194
sa(dp6195
g2
S'Transforming the University'
p6196
sg4
Vhttp://hdl.handle.net/2027.42/79542
p6197
sg6
V.PDF file
p6198
sg8
V1994
p6199
sa(dp6200
g2
S'Transforming the University: A Short Course'
p6201
sg4
Vhttp://hdl.handle.net/2027.42/88366
p6202
sg6
V.PDF file
p6203
sg8
V1996
p6204
sa(dp6205
g2
S'Traverse City Talk'
p6206
sg4
Vhttp://hdl.handle.net/2027.42/88367
p6207
sg6
V.PDF file
p6208
sg8
V1990
p6209
sa(dp6210
g2
S'Traxler 7-17-91'
p6211
sg4
Vhttp://hdl.handle.net/2027.42/88368
p6212
sg6
V.PDF file
p6213
sg8
V1991
p6214
sa(dp6215
g2
S'Traxler-Bloch'
p6216
sg4
Vhttp://hdl.handle.net/2027.42/88369
p6217
sg6
V.PDF file
p6218
sg8
V1988
p6219
sa(dp6220
g2
S'Tuition Retreat'
p6221
sg4
Vhttp://hdl.handle.net/2027.42/88370
p6222
sg6
V.PDF file
p6223
sg8
V1989
p6224
sa(dp6225
g2
S'U. of Florida, President Machen inauguration'
p6226
sg4
Vhttp://hdl.handle.net/2027.42/88371
p6227
sg6
V.PDF file
p6228
sg8
V2004
p6229
sa(dp6230
g2
S'UC Santa Cruz Precatory Review'
p6231
sg4
Vhttp://hdl.handle.net/2027.42/88372
p6232
sg6
V.PDF file
p6233
sg8
V2004
p6234
sa(dp6235
g2
S'UG Ed 1.8'
p6236
sg4
Vhttp://hdl.handle.net/2027.42/88374
p6237
sg6
V.PDF file
p6238
sg8
V1991
p6239
sa(dp6240
g2
S'UG Notes'
p6241
sg4
Vhttp://hdl.handle.net/2027.42/88375
p6242
sg6
V.PDF file
p6243
sg8
V1990
p6244
sa(dp6245
g2
S'UG Notes'
p6246
sg4
Vhttp://hdl.handle.net/2027.42/88376
p6247
sg6
V.PDF file
p6248
sg8
V1991
p6249
sa(dp6250
g2
S'UGLI Dedication'
p6251
sg4
Vhttp://hdl.handle.net/2027.42/88377
p6252
sg6
V.PDF file
p6253
sg8
V1989
p6254
sa(dp6255
g2
S'UM Dearborn'
p6256
sg4
Vhttp://hdl.handle.net/2027.42/88378
p6257
sg6
V.PDF file
p6258
sg8
V1990
p6259
sa(dp6260
g2
S'UM Dearborn Dedication'
p6261
sg4
Vhttp://hdl.handle.net/2027.42/88379
p6262
sg6
V.PDF file
p6263
sg8
V1990
p6264
sa(dp6265
g2
S'UM Flint Dedication'
p6266
sg4
Vhttp://hdl.handle.net/2027.42/88380
p6267
sg6
V.PDF file
p6268
sg8
V1988
p6269
sa(dp6270
g2
S'UM Future Speech'
p6271
sg4
Vhttp://hdl.handle.net/2027.42/88381
p6272
sg6
V.PDF file
p6273
sg8
V1995
p6274
sa(dp6275
g2
S'UM Inputs and Outputs'
p6276
sg4
Vhttp://hdl.handle.net/2027.42/88382
p6277
sg6
V.PDF file
p6278
sg8
V1990
p6279
sa(dp6280
g2
S'UM Inputs-Outputs'
p6281
sg4
Vhttp://hdl.handle.net/2027.42/88383
p6282
sg6
V.PDF file
p6283
sg8
V1991
p6284
sa(dp6285
g2
S'UM Organization'
p6286
sg4
Vhttp://hdl.handle.net/2027.42/88385
p6287
sg6
V.PDF file
p6288
sg8
V1990
p6289
sa(dp6290
g2
S'UM Press-60th'
p6291
sg4
Vhttp://hdl.handle.net/2027.42/88386
p6292
sg6
V.PDF file
p6293
sg8
V1991
p6294
sa(dp6295
g2
S'UM Research Firsts'
p6296
sg4
Vhttp://hdl.handle.net/2027.42/88387
p6297
sg6
V.PDF file
p6298
sg8
V1992
p6299
sa(dp6300
g2
S'UM-Flint'
p6301
sg4
Vhttp://hdl.handle.net/2027.42/88388
p6302
sg6
V.PDF file
p6303
sg8
V1996
p6304
sa(dp6305
g2
S'UM-MSU Statistics'
p6306
sg4
Vhttp://hdl.handle.net/2027.42/88389
p6307
sg6
V.PDF file
p6308
sg8
V1995
p6309
sa(dp6310
g2
S'UM-WCC Alliance'
p6311
sg4
Vhttp://hdl.handle.net/2027.42/88390
p6312
sg6
V.PDF file
p6313
sg8
V1991
p6314
sa(dp6315
g2
S'UMF Commencement'
p6316
sg4
Vhttp://hdl.handle.net/2027.42/88391
p6317
sg6
V.PDF file
p6318
sg8
V1988
p6319
sa(dp6320
g2
S'UNC Chapel Hill Discussion'
p6321
sg4
Vhttp://hdl.handle.net/2027.42/88392
p6322
sg6
V.PDF file
p6323
sg8
V2003
p6324
sa(dp6325
g2
S'UNC-Chapel Hill Briefing'
p6326
sg4
Vhttp://hdl.handle.net/2027.42/88393
p6327
sg6
V.PDF file
p6328
sg8
V2004-07-20
p6329
sa(dp6330
g2
S'UROP Speech'
p6331
sg4
Vhttp://hdl.handle.net/2027.42/88408
p6332
sg6
V.PDF file
p6333
sg8
V1995
p6334
sa(dp6335
g2
S'US-Japan Conference'
p6336
sg4
Vhttp://hdl.handle.net/2027.42/88409
p6337
sg6
V.PDF file
p6338
sg8
V1987
p6339
sa(dp6340
g2
S'UTEP Talk'
p6341
sg4
Vhttp://hdl.handle.net/2027.42/88410
p6342
sg6
V.PDF file
p6343
sg8
V2008
p6344
sa(dp6345
g2
S'Undergraduate'
p6346
sg4
Vhttp://hdl.handle.net/2027.42/88394
p6347
sg6
V.PDF file
p6348
sg8
V1990
p6349
sa(dp6350
g2
S'Undergraduate Education'
p6351
sg4
Vhttp://hdl.handle.net/2027.42/88396
p6352
sg6
V.PDF file
p6353
sg8
V1988
p6354
sa(dp6355
g2
S'United Way'
p6356
sg4
Vhttp://hdl.handle.net/2027.42/88397
p6357
sg6
V.PDF file
p6358
sg8
V1990
p6359
sa(dp6360
g2
S'Universal Access to Lifelong Learning'
p6361
sg4
Vhttp://hdl.handle.net/2027.42/88398
p6362
sg6
V.PDF file
p6363
sg8
V2006
p6364
sa(dp6365
g2
S'Universities And Business: Partnering for the Knowledge Society'
p6366
sg4
Vhttp://hdl.handle.net/2027.42/57289
p6367
sg6
V.PDF file
p6368
sg8
V2006-02
p6369
sa(dp6370
g2
S'Universities and Business Glion V'
p6371
sg4
Vhttp://hdl.handle.net/2027.42/88399
p6372
sg6
V.PDF file
p6373
sg8
V2005
p6374
sa(dp6375
g2
S'Universities and Innovation'
p6376
sg4
Vhttp://hdl.handle.net/2027.42/88400
p6377
sg6
V.PDF file
p6378
sg8
V2009
p6379
sa(dp6380
g2
S'Universities of the World and in the World'
p6381
sg4
Vhttp://hdl.handle.net/2027.42/88401
p6382
sg6
V.PDF file
p6383
sg8
V2005
p6384
sa(dp6385
g2
S'University Decision Making During an Era of Rapid Change'
p6386
sg4
Vhttp://hdl.handle.net/2027.42/88402
p6387
sg6
V.PDF file
p6388
sg8
V2000
p6389
sa(dp6390
g2
S'University Tribute to President Robben Fleming'
p6391
sg4
Vhttp://hdl.handle.net/2027.42/88407
p6392
sg6
V.PDF file
p6393
sg8
V2010
p6394
sa(dp6395
g2
S'University of Georgia Address'
p6396
sg4
Vhttp://hdl.handle.net/2027.42/88403
p6397
sg6
V.PDF file
p6398
sg8
V2009-02-09
p6399
sa(dp6400
g2
S'University of Michgan FY85-86 State Budget Request: College of Engineering'
p6401
sg4
Vhttp://hdl.handle.net/2027.42/79536
p6402
sg6
V.PDF file
p6403
sg8
V1985
p6404
sa(dp6405
g2
S'University of Michigan Energy Research - Yesterday, Today, and Tomorrow'
p6406
sg4
Vhttp://hdl.handle.net/2027.42/88404
p6407
sg6
V.PDF file
p6408
sg8
V2006
p6409
sa(dp6410
g2
S'University of Michigan Photographic Saga'
p6411
sg4
Vhttp://hdl.handle.net/2027.42/88405
p6412
sg6
V.PDF file
p6413
sg8
V2003
p6414
sa(dp6415
g2
S'Varsity Night'
p6416
sg4
Vhttp://hdl.handle.net/2027.42/88411
p6417
sg6
V.PDF file
p6418
sg8
V1994
p6419
sa(dp6420
g2
S'Vest Inaugural Lunch'
p6421
sg4
Vhttp://hdl.handle.net/2027.42/88412
p6422
sg6
V.PDF file
p6423
sg8
V1991
p6424
sa(dp6425
g2
S'Vest Letter'
p6426
sg4
Vhttp://hdl.handle.net/2027.42/88413
p6427
sg6
V.PDF file
p6428
sg8
V1997
p6429
sa(dp6430
g2
S'Views from the Media Union Pioneers'
p6431
sg4
Vhttp://hdl.handle.net/2027.42/88414
p6432
sg6
V.PDF file
p6433
sg8
V2002
p6434
sa(dp6435
g2
S'Vision 2000: The Leaders and Best'
p6436
sg4
Vhttp://hdl.handle.net/2027.42/79535
p6437
sg6
V.PDF file
p6438
sg8
V1994
p6439
sa(dp6440
g2
S'Vision 2010 Talk'
p6441
sg4
Vhttp://hdl.handle.net/2027.42/88415
p6442
sg6
V.PDF file
p6443
sg8
V1994
p6444
sa(dp6445
g2
S'Vision 2017'
p6446
sg4
Vhttp://hdl.handle.net/2027.42/88416
p6447
sg6
V.PDF file
p6448
sg8
V1993
p6449
sa(dp6450
g2
S'Vision 2017 Pres. 1.0'
p6451
sg4
Vhttp://hdl.handle.net/2027.42/88418
p6452
sg6
V.PDF file
p6453
sg8
V1993
p6454
sa(dp6455
g2
S'Vision 2017 The Third Century (Draft 22)'
p6456
sg4
Vhttp://hdl.handle.net/2027.42/79511
p6457
sg6
V.PDF file
p6458
sg8
V1994
p6459
sa(dp6460
g2
S'Vision 2017: The Third Century'
p6461
sg4
Vhttp://hdl.handle.net/2027.42/79524
p6462
sg6
V.PDF file
p6463
sg8
V1993
p6464
sa(dp6465
g2
S'Visitors 11-94'
p6466
sg4
Vhttp://hdl.handle.net/2027.42/88419
p6467
sg6
V.PDF file
p6468
sg8
V1994
p6469
sa(dp6470
g2
S'Volunteer Leadership'
p6471
sg4
Vhttp://hdl.handle.net/2027.42/88420
p6472
sg6
V.PDF file
p6473
sg8
V1988
p6474
sa(dp6475
g2
S'Wallenberg Lecture'
p6476
sg4
Vhttp://hdl.handle.net/2027.42/88421
p6477
sg6
V.PDF file
p6478
sg8
V1990
p6479
sa(dp6480
g2
S'Wallenberg Lecture'
p6481
sg4
Vhttp://hdl.handle.net/2027.42/88422
p6482
sg6
V.PDF file
p6483
sg8
V1992
p6484
sa(dp6485
g2
S'Warning Redux'
p6486
sg4
Vhttp://hdl.handle.net/2027.42/88423
p6487
sg6
V.PDF file
p6488
sg8
V2010-06-15
p6489
sa(dp6490
g2
S'Welcome and Opening Comments, Plenary Session'
p6491
sg4
Vhttp://hdl.handle.net/2027.42/88424
p6492
sg6
V.PDF file
p6493
sg8
V1997-02-26
p6494
sa(dp6495
g2
S"What's In A Name Basic vs Applied vs Strategic Research"
p6496
sg4
Vhttp://hdl.handle.net/2027.42/79530
p6497
sg6
V.PDF file
p6498
sg8
V1994
p6499
sa(dp6500
g2
S'Wiesner Conference'
p6501
sg4
Vhttp://hdl.handle.net/2027.42/88425
p6502
sg6
V.PDF file
p6503
sg8
V1996
p6504
sa(dp6505
g2
S'Wings  Over the Nile'
p6506
sg4
Vhttp://hdl.handle.net/2027.42/88426
p6507
sg6
V.PDF file
p6508
sg8
V1999-10
p6509
sa(dp6510
g2
S'Women of Color Awards'
p6511
sg4
Vhttp://hdl.handle.net/2027.42/88427
p6512
sg6
V.PDF file
p6513
sg8
V1991
p6514
sa(dp6515
g2
S'Women of Color intro'
p6516
sg4
Vhttp://hdl.handle.net/2027.42/88429
p6517
sg6
V.PDF file
p6518
sg8
V1996
p6519
sa(dp6520
g2
S"Women's Issue"
p6521
sg4
Vhttp://hdl.handle.net/2027.42/88430
p6522
sg6
V.PDF file
p6523
sg8
V1989
p6524
sa(dp6525
g2
S"Women's Issues: An Agenda For Action"
p6526
sg4
Vhttp://hdl.handle.net/2027.42/79522
p6527
sg6
V.PDF file
p6528
sg8
V1989
p6529
sa(dp6530
g2
S'Working Dinner Agenda: The Future of the Research University'
p6531
sg4
Vhttp://hdl.handle.net/2027.42/88431
p6532
sg6
V.PDF file
p6533
sg8
V1998-06-10
p6534
sa(dp6535
g2
S"Working Draft of the Quality Subcommittee of the Secretary of Education's Commission on the Future of Higher Education"
p6536
sg4
Vhttp://hdl.handle.net/2027.42/88432
p6537
sg6
V.PDF file
p6538
sg8
V2006-03-14
p6539
sa(dp6540
g2
S"Working Draft of the Quality Subcommittee of the Secretary of Education's Commission on the Future of Higher Education (Report)"
p6541
sg4
Vhttp://hdl.handle.net/2027.42/88433
p6542
sg6
V.PDF file
p6543
sg8
V2006-03-14
p6544
sa(dp6545
g2
S'Written Testimony of JJD to the Senate Finance Committee'
p6546
sg4
Vhttp://hdl.handle.net/2027.42/88434
p6547
sg6
V.PDF file
p6548
sg8
V2006-12-05
p6549
sa(dp6550
g2
S'YNH Projects'
p6551
sg4
Vhttp://hdl.handle.net/2027.42/88442
p6552
sg6
V.PDF file
p6553
sg8
V1991
p6554
sa(dp6555
g2
S'Yale Alumni Talk'
p6556
sg4
Vhttp://hdl.handle.net/2027.42/88435
p6557
sg6
V.PDF file
p6558
sg8
V1988
p6559
sa(dp6560
g2
S'Yale Science & Engineering'
p6561
sg4
Vhttp://hdl.handle.net/2027.42/88436
p6562
sg6
V.PDF file
p6563
sg8
V1988
p6564
sa(dp6565
g2
S'Yale Talk'
p6566
sg4
Vhttp://hdl.handle.net/2027.42/88437
p6567
sg6
V.PDF file
p6568
sg8
V1987
p6569
sa(dp6570
g2
S"Year, roles, activity, methods, and tools of JJD's academic life"
p6571
sg4
Vhttp://hdl.handle.net/2027.42/88438
p6572
sg6
V.PDF file
p6573
sg8
V2002
p6574
sa(dp6575
g2
S"Year, roles, activity, methods, and tools of JJD's academic life"
p6576
sg4
Vhttp://hdl.handle.net/2027.42/88441
p6577
sg6
V.PDF file
p6578
sg8
V2010
p6579
sa(dp6580
g2
S'Your Name Here Project'
p6581
sg4
Vhttp://hdl.handle.net/2027.42/88443
p6582
sg6
V.PDF file
p6583
sg8
V1991
p6584
sa.