(dp1
S'"Z:\\unprocessed\\9811_0003\\data\\Speeches\\JJDS5c\\jjd1252.pdf"'
p2
S'"Z:\\unprocessed\\9811_0003\\data\\Speeches\\JJDS5c\\jjd1252_bhl-4f7ed6c5.pdf"'
p3
sS'"Z:\\unprocessed\\9811_0003\\data\\Speeches\\JJDS9a\\jjd1554.pdf"'
p4
S'"Z:\\unprocessed\\9811_0003\\data\\Speeches\\JJDS9a\\jjd1554_bhl-c438a8cb.pdf"'
p5
sS'"Z:\\unprocessed\\9811_0003\\data\\Speeches\\JJDS9a\\jjd1549.pdf"'
p6
S'"Z:\\unprocessed\\9811_0003\\data\\Speeches\\JJDS9a\\jjd1549_bhl-7b59ae9e.pdf"'
p7
sS'"Z:\\unprocessed\\9811_0003\\data\\Speeches\\JJDS9b\\jjd1541.pdf"'
p8
S'"Z:\\unprocessed\\9811_0003\\data\\Speeches\\JJDS9b\\jjd1541_bhl-4b6a1219.pdf"'
p9
sS'"Z:\\unprocessed\\9811_0003\\data\\Speeches\\JJDS9a\\jjd1441.doc"'
p10
S'Z:\\unprocessed\\9811_0003\\data\\Speeches\\JJDS9a\\jjd1441_bhl-7a4d6f83.docx'
p11
sS'"Z:\\unprocessed\\9811_0003\\data\\Speeches\\JJDS9b\\jjd1431.doc"'
p12
S'Z:\\unprocessed\\9811_0003\\data\\Speeches\\JJDS9b\\jjd1431_bhl-6c77827a.docx'
p13
sS'"Z:\\unprocessed\\9811_0003\\data\\Speeches\\JJDS9b\\jjd1563.pdf"'
p14
S'"Z:\\unprocessed\\9811_0003\\data\\Speeches\\JJDS9b\\jjd1563_bhl-926719c6.pdf"'
p15
sS'"Z:\\unprocessed\\9811_0003\\data\\Speeches\\JJDS5c\\jjd1273.pdf"'
p16
S'"Z:\\unprocessed\\9811_0003\\data\\Speeches\\JJDS5c\\jjd1273_bhl-04dab577.pdf"'
p17
sS'"Z:\\unprocessed\\9811_0003\\data\\Presentations\\JJDPR\\jjd2281.pdf"'
p18
S'"Z:\\unprocessed\\9811_0003\\data\\Presentations\\JJDPR\\jjd2281_bhl-6a939ae6.pdf"'
p19
sS'"Z:\\unprocessed\\9811_0003\\data\\Speeches\\JJDS5c\\jjd1258.pdf"'
p20
S'"Z:\\unprocessed\\9811_0003\\data\\Speeches\\JJDS5c\\jjd1258_bhl-5ba629a5.pdf"'
p21
sS'"Z:\\unprocessed\\9811_0003\\data\\Speeches\\JJDS9a\\jjd1562.doc"'
p22
S'Z:\\unprocessed\\9811_0003\\data\\Speeches\\JJDS9a\\jjd1562_bhl-6cee6961.docx'
p23
sS'"Z:\\unprocessed\\9811_0003\\data\\Presentations\\JJDPR\\jjd566.pdf"'
p24
S'"Z:\\unprocessed\\9811_0003\\data\\Presentations\\JJDPR\\jjd566_bhl-bd590f6f.pdf"'
p25
sS'"Z:\\unprocessed\\9811_0003\\data\\Presentations\\JJDPR\\jjd536.pdf"'
p26
S'"Z:\\unprocessed\\9811_0003\\data\\Presentations\\JJDPR\\jjd536_bhl-2b1bedd4.pdf"'
p27
sS'"Z:\\unprocessed\\9811_0003\\data\\Legacy\\JJDLE1\\jjd7.doc"'
p28
S'Z:\\unprocessed\\9811_0003\\data\\Legacy\\JJDLE1\\jjd7_bhl-69f1d758.docx'
p29
sS'"Z:\\unprocessed\\9811_0003\\data\\Speeches\\JJDS9a\\jjd1533.pdf"'
p30
S'"Z:\\unprocessed\\9811_0003\\data\\Speeches\\JJDS9a\\jjd1533_bhl-453498cf.pdf"'
p31
sS'"Z:\\unprocessed\\9811_0003\\data\\Presentations\\JJDPR\\jjd581.pdf"'
p32
S'"Z:\\unprocessed\\9811_0003\\data\\Presentations\\JJDPR\\jjd581_bhl-402d4405.pdf"'
p33
sS'"Z:\\unprocessed\\9811_0003\\data\\Speeches\\JJDS9a\\jjd1469.pdf"'
p34
S'"Z:\\unprocessed\\9811_0003\\data\\Speeches\\JJDS9a\\jjd1469_bhl-6b19463b.pdf"'
p35
sS'"Z:\\unprocessed\\9811_0003\\data\\Presentations\\JJDPR\\jjd554.pdf"'
p36
S'"Z:\\unprocessed\\9811_0003\\data\\Presentations\\JJDPR\\jjd554_bhl-96060ad4.pdf"'
p37
sS'"Z:\\unprocessed\\9811_0003\\data\\Speeches\\JJDS9a\\jjd1437.doc"'
p38
S'Z:\\unprocessed\\9811_0003\\data\\Speeches\\JJDS9a\\jjd1437_bhl-7a1c5c38.docx'
p39
sS'"Z:\\unprocessed\\9811_0003\\data\\Speeches\\JJDS9a\\jjd1469.doc"'
p40
S'Z:\\unprocessed\\9811_0003\\data\\Speeches\\JJDS9a\\jjd1469_bhl-4ff5d232.docx'
p41
sS'"Z:\\unprocessed\\9811_0003\\data\\Speeches\\JJDS9b\\jjd1456.doc"'
p42
S'Z:\\unprocessed\\9811_0003\\data\\Speeches\\JJDS9b\\jjd1456_bhl-e703a0c5.docx'
p43
sS'"Z:\\unprocessed\\9811_0003\\data\\Presentations\\JJDPR\\jjd552.pdf"'
p44
S'"Z:\\unprocessed\\9811_0003\\data\\Presentations\\JJDPR\\jjd552_bhl-d8067eee.pdf"'
p45
sS'"Z:\\unprocessed\\9811_0003\\data\\Speeches\\JJDS9b\\jjd1459.doc"'
p46
S'Z:\\unprocessed\\9811_0003\\data\\Speeches\\JJDS9b\\jjd1459_bhl-edd9061b.docx'
p47
sS'"Z:\\unprocessed\\9811_0003\\data\\Speeches\\JJDS9b\\jjd1515.xls"'
p48
S'Z:\\unprocessed\\9811_0003\\data\\Speeches\\JJDS9b\\jjd1515_bhl-1692afea.xlsx'
p49
sS'"Z:\\unprocessed\\9811_0003\\data\\Speeches\\JJDS5c\\jjd1287.pdf"'
p50
S'"Z:\\unprocessed\\9811_0003\\data\\Speeches\\JJDS5c\\jjd1287_bhl-6ad56711.pdf"'
p51
sS'"Z:\\unprocessed\\9811_0003\\data\\Speeches\\JJDS5c\\jjd1227.pdf"'
p52
S'"Z:\\unprocessed\\9811_0003\\data\\Speeches\\JJDS5c\\jjd1227_bhl-7d83bd1a.pdf"'
p53
sS'"Z:\\unprocessed\\9811_0003\\data\\Speeches\\JJDS9b\\jjd1435.doc"'
p54
S'Z:\\unprocessed\\9811_0003\\data\\Speeches\\JJDS9b\\jjd1435_bhl-017de9ce.docx'
p55
sS'"Z:\\unprocessed\\9811_0003\\data\\Presentations\\JJDPR\\jjd560.pdf"'
p56
S'"Z:\\unprocessed\\9811_0003\\data\\Presentations\\JJDPR\\jjd560_bhl-5c7167c4.pdf"'
p57
sS'"Z:\\unprocessed\\9811_0003\\data\\Presentations\\JJDPR\\jjd543.pdf"'
p58
S'"Z:\\unprocessed\\9811_0003\\data\\Presentations\\JJDPR\\jjd543_bhl-7e8f74ee.pdf"'
p59
sS'"Z:\\unprocessed\\9811_0003\\data\\Speeches\\JJDS9a\\jjd1465.doc"'
p60
S'Z:\\unprocessed\\9811_0003\\data\\Speeches\\JJDS9a\\jjd1465_bhl-f008a3c7.docx'
p61
sS'"Z:\\unprocessed\\9811_0003\\data\\Speeches\\JJDS5c\\S5restricted\\jjd1219.doc"'
p62
S'Z:\\unprocessed\\9811_0003\\data\\Speeches\\JJDS5c\\S5restricted\\jjd1219_bhl-4dc8988d.docx'
p63
sS'"Z:\\unprocessed\\9811_0003\\data\\Speeches\\JJDS5c\\S5restricted\\jjd1180.pdf"'
p64
S'"Z:\\unprocessed\\9811_0003\\data\\Speeches\\JJDS5c\\S5restricted\\jjd1180_bhl-e590e2d5.pdf"'
p65
sS'"Z:\\unprocessed\\9811_0003\\data\\Speeches\\JJDS9a\\jjd1430.doc"'
p66
S'Z:\\unprocessed\\9811_0003\\data\\Speeches\\JJDS9a\\jjd1430_bhl-ea5cd80e.docx'
p67
sS'"Z:\\unprocessed\\9811_0003\\data\\Speeches\\JJDS9b\\jjd1543.pdf"'
p68
S'"Z:\\unprocessed\\9811_0003\\data\\Speeches\\JJDS9b\\jjd1543_bhl-3c21e44f.pdf"'
p69
sS'"Z:\\unprocessed\\9811_0003\\data\\Speeches\\JJDS5c\\jjd1257.pdf"'
p70
S'"Z:\\unprocessed\\9811_0003\\data\\Speeches\\JJDS5c\\jjd1257_bhl-37aa40f6.pdf"'
p71
sS'"Z:\\unprocessed\\9811_0003\\data\\Presentations\\JJDPR\\jjd592.pdf"'
p72
S'"Z:\\unprocessed\\9811_0003\\data\\Presentations\\JJDPR\\jjd592_bhl-4c7db8c6.pdf"'
p73
sS'"Z:\\unprocessed\\9811_0003\\data\\Presentations\\JJDPR\\jjd572.pdf"'
p74
S'"Z:\\unprocessed\\9811_0003\\data\\Presentations\\JJDPR\\jjd572_bhl-639bf54c.pdf"'
p75
sS'"Z:\\unprocessed\\9811_0003\\data\\Presentations\\JJDPR\\jjd585.pdf"'
p76
S'"Z:\\unprocessed\\9811_0003\\data\\Presentations\\JJDPR\\jjd585_bhl-ca970b19.pdf"'
p77
sS'"Z:\\unprocessed\\9811_0003\\data\\Presentations\\JJDPR\\jjd561.pdf"'
p78
S'"Z:\\unprocessed\\9811_0003\\data\\Presentations\\JJDPR\\jjd561_bhl-8712bd21.pdf"'
p79
sS'"Z:\\unprocessed\\9811_0003\\data\\Speeches\\JJDS5c\\jjd1269.pdf"'
p80
S'"Z:\\unprocessed\\9811_0003\\data\\Speeches\\JJDS5c\\jjd1269_bhl-a861042d.pdf"'
p81
sS'"Z:\\unprocessed\\9811_0003\\data\\Presentations\\JJDPR\\jjd593.pdf"'
p82
S'"Z:\\unprocessed\\9811_0003\\data\\Presentations\\JJDPR\\jjd593_bhl-d8eeb92a.pdf"'
p83
sS'"Z:\\unprocessed\\9811_0003\\data\\Presentations\\JJDPR\\jjd567.pdf"'
p84
S'"Z:\\unprocessed\\9811_0003\\data\\Presentations\\JJDPR\\jjd567_bhl-2759663f.pdf"'
p85
sS'"Z:\\unprocessed\\9811_0003\\data\\Speeches\\JJDS9b\\jjd1544.doc"'
p86
S'Z:\\unprocessed\\9811_0003\\data\\Speeches\\JJDS9b\\jjd1544_bhl-163afbcc.docx'
p87
sS'"Z:\\unprocessed\\9811_0003\\data\\Presentations\\JJDPR\\jjd2280.pdf"'
p88
S'"Z:\\unprocessed\\9811_0003\\data\\Presentations\\JJDPR\\jjd2280_bhl-5eaf4b21.pdf"'
p89
sS'"Z:\\unprocessed\\9811_0003\\data\\Presentations\\JJDPR\\jjd594.pdf"'
p90
S'"Z:\\unprocessed\\9811_0003\\data\\Presentations\\JJDPR\\jjd594_bhl-67ec9608.pdf"'
p91
sS'"Z:\\unprocessed\\9811_0003\\data\\Speeches\\JJDS5c\\jjd1242.pdf"'
p92
S'"Z:\\unprocessed\\9811_0003\\data\\Speeches\\JJDS5c\\jjd1242_bhl-1662fd46.pdf"'
p93
sS'"Z:\\unprocessed\\9811_0003\\data\\Presentations\\JJDPR\\jjd577.pdf"'
p94
S'"Z:\\unprocessed\\9811_0003\\data\\Presentations\\JJDPR\\jjd577_bhl-8d8e7a9d.pdf"'
p95
sS'"Z:\\unprocessed\\9811_0003\\data\\Speeches\\JJDS9a\\jjd1467.doc"'
p96
S'Z:\\unprocessed\\9811_0003\\data\\Speeches\\JJDS9a\\jjd1467_bhl-91fd520c.docx'
p97
sS'"Z:\\unprocessed\\9811_0003\\data\\Speeches\\JJDS9a\\jjd1553.pdf"'
p98
S'"Z:\\unprocessed\\9811_0003\\data\\Speeches\\JJDS9a\\jjd1553_bhl-4590a145.pdf"'
p99
sS'"Z:\\unprocessed\\9811_0003\\data\\Speeches\\JJDS9a\\jjd1552.pdf"'
p100
S'"Z:\\unprocessed\\9811_0003\\data\\Speeches\\JJDS9a\\jjd1552_bhl-c978d17f.pdf"'
p101
sS'"Z:\\unprocessed\\9811_0003\\data\\Presentations\\JJDPR\\jjd550.pdf"'
p102
S'"Z:\\unprocessed\\9811_0003\\data\\Presentations\\JJDPR\\jjd550_bhl-e2dcf9ae.pdf"'
p103
sS'"Z:\\unprocessed\\9811_0003\\data\\Presentations\\JJDPR\\jjd564.pdf"'
p104
S'"Z:\\unprocessed\\9811_0003\\data\\Presentations\\JJDPR\\jjd564_bhl-cd1e7299.pdf"'
p105
sS'"Z:\\unprocessed\\9811_0003\\data\\Speeches\\JJDS5c\\jjd1225.pdf"'
p106
S'"Z:\\unprocessed\\9811_0003\\data\\Speeches\\JJDS5c\\jjd1225_bhl-fffe23a6.pdf"'
p107
sS'"Z:\\unprocessed\\9811_0003\\data\\Speeches\\JJDS5c\\jjd1272.pdf"'
p108
S'"Z:\\unprocessed\\9811_0003\\data\\Speeches\\JJDS5c\\jjd1272_bhl-c9f29a7b.pdf"'
p109
sS'"Z:\\unprocessed\\9811_0003\\data\\Presentations\\JJDPR\\jjd540.pdf"'
p110
S'"Z:\\unprocessed\\9811_0003\\data\\Presentations\\JJDPR\\jjd540_bhl-a9fc6fdb.pdf"'
p111
sS'"Z:\\unprocessed\\9811_0003\\data\\Speeches\\JJDS9b\\jjd1472.doc"'
p112
S'Z:\\unprocessed\\9811_0003\\data\\Speeches\\JJDS9b\\jjd1472_bhl-40f03a01.docx'
p113
sS'"Z:\\unprocessed\\9811_0003\\data\\Speeches\\JJDS5c\\jjd1296.pdf"'
p114
S'"Z:\\unprocessed\\9811_0003\\data\\Speeches\\JJDS5c\\jjd1296_bhl-7ce94324.pdf"'
p115
sS'"Z:\\unprocessed\\9811_0003\\data\\Speeches\\JJDS7\\S7restricted\\jjd1361.doc"'
p116
S'Z:\\unprocessed\\9811_0003\\data\\Speeches\\JJDS7\\S7restricted\\jjd1361_bhl-03f8ee0a.docx'
p117
sS'"Z:\\unprocessed\\9811_0003\\data\\Speeches\\JJDS5c\\jjd1297.pdf"'
p118
S'"Z:\\unprocessed\\9811_0003\\data\\Speeches\\JJDS5c\\jjd1297_bhl-1b2029a8.pdf"'
p119
sS'"Z:\\unprocessed\\9811_0003\\data\\Presentations\\JJDPR\\jjd596.pdf"'
p120
S'"Z:\\unprocessed\\9811_0003\\data\\Presentations\\JJDPR\\jjd596_bhl-2e7cd3ca.pdf"'
p121
sS'"Z:\\unprocessed\\9811_0003\\data\\Presentations\\JJDPR\\jjd535.pdf"'
p122
S'"Z:\\unprocessed\\9811_0003\\data\\Presentations\\JJDPR\\jjd535_bhl-a65c34b3.pdf"'
p123
sS'"Z:\\unprocessed\\9811_0003\\data\\Presentations\\JJDPR\\jjd589.xls"'
p124
S'Z:\\unprocessed\\9811_0003\\data\\Presentations\\JJDPR\\jjd589_bhl-e44818bd.xlsx'
p125
sS'"Z:\\unprocessed\\9811_0003\\data\\Presentations\\JJDPR\\jjd571.pdf"'
p126
S'"Z:\\unprocessed\\9811_0003\\data\\Presentations\\JJDPR\\jjd571_bhl-1d0844de.pdf"'
p127
sS'"Z:\\unprocessed\\9811_0003\\data\\Speeches\\JJDS5c\\jjd1224.pdf"'
p128
S'"Z:\\unprocessed\\9811_0003\\data\\Speeches\\JJDS5c\\jjd1224_bhl-dce86ddd.pdf"'
p129
sS'"Z:\\unprocessed\\9811_0003\\data\\Speeches\\JJDS5c\\jjd1285.pdf"'
p130
S'"Z:\\unprocessed\\9811_0003\\data\\Speeches\\JJDS5c\\jjd1285_bhl-39dc295f.pdf"'
p131
sS'"Z:\\unprocessed\\9811_0003\\data\\Speeches\\JJDS9b\\jjd1436.doc"'
p132
S'Z:\\unprocessed\\9811_0003\\data\\Speeches\\JJDS9b\\jjd1436_bhl-7c49d574.docx'
p133
sS'"Z:\\unprocessed\\9811_0003\\data\\Speeches\\JJDS5c\\jjd1241.pdf"'
p134
S'"Z:\\unprocessed\\9811_0003\\data\\Speeches\\JJDS5c\\jjd1241_bhl-09d117e8.pdf"'
p135
sS'"Z:\\unprocessed\\9811_0003\\data\\Presentations\\JJDPR\\jjd557.pdf"'
p136
S'"Z:\\unprocessed\\9811_0003\\data\\Presentations\\JJDPR\\jjd557_bhl-0641d2d7.pdf"'
p137
sS'"Z:\\unprocessed\\9811_0003\\data\\Speeches\\JJDS9a\\jjd1540.pdf"'
p138
S'"Z:\\unprocessed\\9811_0003\\data\\Speeches\\JJDS9a\\jjd1540_bhl-662907d0.pdf"'
p139
sS'"Z:\\unprocessed\\9811_0003\\data\\Presentations\\JJDPR\\jjd584.pdf"'
p140
S'"Z:\\unprocessed\\9811_0003\\data\\Presentations\\JJDPR\\jjd584_bhl-3389c4da.pdf"'
p141
sS'"Z:\\unprocessed\\9811_0003\\data\\Presentations\\JJDPR\\jjd546.pdf"'
p142
S'"Z:\\unprocessed\\9811_0003\\data\\Presentations\\JJDPR\\jjd546_bhl-159aa41d.pdf"'
p143
sS'"Z:\\unprocessed\\9811_0003\\data\\Presentations\\JJDPR\\jjd538.pdf"'
p144
S'"Z:\\unprocessed\\9811_0003\\data\\Presentations\\JJDPR\\jjd538_bhl-0f785621.pdf"'
p145
sS'"Z:\\unprocessed\\9811_0003\\data\\Speeches\\JJDS9b\\jjd1463.doc"'
p146
S'Z:\\unprocessed\\9811_0003\\data\\Speeches\\JJDS9b\\jjd1463_bhl-957f880e.docx'
p147
sS'"Z:\\unprocessed\\9811_0003\\data\\Speeches\\JJDS5c\\jjd1247.pdf"'
p148
S'"Z:\\unprocessed\\9811_0003\\data\\Speeches\\JJDS5c\\jjd1247_bhl-5e56fcdd.pdf"'
p149
sS'"Z:\\unprocessed\\9811_0003\\data\\Presentations\\JJDPR\\jjd574.pdf"'
p150
S'"Z:\\unprocessed\\9811_0003\\data\\Presentations\\JJDPR\\jjd574_bhl-5936fedd.pdf"'
p151
sS'"Z:\\unprocessed\\9811_0003\\data\\Speeches\\JJDS9a\\jjd1433.doc"'
p152
S'Z:\\unprocessed\\9811_0003\\data\\Speeches\\JJDS9a\\jjd1433_bhl-df999146.docx'
p153
sS'"Z:\\unprocessed\\9811_0003\\data\\Presentations\\JJDPR\\jjd539.pdf"'
p154
S'"Z:\\unprocessed\\9811_0003\\data\\Presentations\\JJDPR\\jjd539_bhl-c888b9c8.pdf"'
p155
sS'"Z:\\unprocessed\\9811_0003\\data\\Speeches\\JJDS5c\\jjd1275.pdf"'
p156
S'"Z:\\unprocessed\\9811_0003\\data\\Speeches\\JJDS5c\\jjd1275_bhl-0221c5ba.pdf"'
p157
sS'"Z:\\unprocessed\\9811_0003\\data\\Speeches\\JJDS9b\\jjd1539.doc"'
p158
S'Z:\\unprocessed\\9811_0003\\data\\Speeches\\JJDS9b\\jjd1539_bhl-64d26c6e.docx'
p159
sS'"Z:\\unprocessed\\9811_0003\\data\\Presentations\\JJDPR\\jjd565.pdf"'
p160
S'"Z:\\unprocessed\\9811_0003\\data\\Presentations\\JJDPR\\jjd565_bhl-e1cc5996.pdf"'
p161
sS'"Z:\\unprocessed\\9811_0003\\data\\Speeches\\JJDS5c\\jjd1304.pdf"'
p162
S'"Z:\\unprocessed\\9811_0003\\data\\Speeches\\JJDS5c\\jjd1304_bhl-9f2beb7b.pdf"'
p163
sS'"Z:\\unprocessed\\9811_0003\\data\\Speeches\\JJDS9b\\jjd1509.xls"'
p164
S'Z:\\unprocessed\\9811_0003\\data\\Speeches\\JJDS9b\\jjd1509_bhl-8fe35ac3.xlsx'
p165
sS'"Z:\\unprocessed\\9811_0003\\data\\Presentations\\JJDPR\\jjd547.pdf"'
p166
S'"Z:\\unprocessed\\9811_0003\\data\\Presentations\\JJDPR\\jjd547_bhl-8956df96.pdf"'
p167
sS'"Z:\\unprocessed\\9811_0003\\data\\Presentations\\JJDPR\\jjd541.pdf"'
p168
S'"Z:\\unprocessed\\9811_0003\\data\\Presentations\\JJDPR\\jjd541_bhl-a38232d9.pdf"'
p169
sS'"Z:\\unprocessed\\9811_0003\\data\\Speeches\\JJDS9a\\jjd1546.pdf"'
p170
S'"Z:\\unprocessed\\9811_0003\\data\\Speeches\\JJDS9a\\jjd1546_bhl-ce91ff65.pdf"'
p171
sS'"Z:\\unprocessed\\9811_0003\\data\\Speeches\\JJDS5c\\jjd1302.pdf"'
p172
S'"Z:\\unprocessed\\9811_0003\\data\\Speeches\\JJDS5c\\jjd1302_bhl-f13e584f.pdf"'
p173
sS'"Z:\\unprocessed\\9811_0003\\data\\Presentations\\JJDPR\\jjd588.pdf"'
p174
S'"Z:\\unprocessed\\9811_0003\\data\\Presentations\\JJDPR\\jjd588_bhl-3fb77815.pdf"'
p175
sS'"Z:\\unprocessed\\9811_0003\\data\\Speeches\\JJDS5c\\jjd1274.pdf"'
p176
S'"Z:\\unprocessed\\9811_0003\\data\\Speeches\\JJDS5c\\jjd1274_bhl-5cc24ff0.pdf"'
p177
sS'"Z:\\unprocessed\\9811_0003\\data\\Presentations\\JJDPR\\jjd595.pdf"'
p178
S'"Z:\\unprocessed\\9811_0003\\data\\Presentations\\JJDPR\\jjd595_bhl-e060df51.pdf"'
p179
sS'"Z:\\unprocessed\\9811_0003\\data\\Legacy\\JJDLE1\\jjd12.pdf"'
p180
S'"Z:\\unprocessed\\9811_0003\\data\\Legacy\\JJDLE1\\jjd12_bhl-51fc5789.pdf"'
p181
sS'"Z:\\unprocessed\\9811_0003\\data\\Speeches\\JJDS9a\\jjd1562.pdf"'
p182
S'"Z:\\unprocessed\\9811_0003\\data\\Speeches\\JJDS9a\\jjd1562_bhl-f5dcf347.pdf"'
p183
sS'"Z:\\unprocessed\\9811_0003\\data\\Speeches\\JJDS9b\\jjd1455.doc"'
p184
S'Z:\\unprocessed\\9811_0003\\data\\Speeches\\JJDS9b\\jjd1455_bhl-6db4e63a.docx'
p185
sS'"Z:\\unprocessed\\9811_0003\\data\\Speeches\\JJDS9a\\jjd1551.pdf"'
p186
S'"Z:\\unprocessed\\9811_0003\\data\\Speeches\\JJDS9a\\jjd1551_bhl-061cc3b8.pdf"'
p187
sS'"Z:\\unprocessed\\9811_0003\\data\\Presentations\\JJDPR\\jjd555.pdf"'
p188
S'"Z:\\unprocessed\\9811_0003\\data\\Presentations\\JJDPR\\jjd555_bhl-241ea278.pdf"'
p189
sS'"Z:\\unprocessed\\9811_0003\\data\\Speeches\\JJDS5c\\jjd1244.pdf"'
p190
S'"Z:\\unprocessed\\9811_0003\\data\\Speeches\\JJDS5c\\jjd1244_bhl-0138e194.pdf"'
p191
sS'"Z:\\unprocessed\\9811_0003\\data\\Presentations\\JJDPR\\jjd542.pdf"'
p192
S'"Z:\\unprocessed\\9811_0003\\data\\Presentations\\JJDPR\\jjd542_bhl-f9609478.pdf"'
p193
sS'"Z:\\unprocessed\\9811_0003\\data\\Speeches\\JJDS5c\\jjd1301.pdf"'
p194
S'"Z:\\unprocessed\\9811_0003\\data\\Speeches\\JJDS5c\\jjd1301_bhl-96c78861.pdf"'
p195
sS'"Z:\\unprocessed\\9811_0003\\data\\Speeches\\JJDS9a\\jjd1548.doc"'
p196
S'Z:\\unprocessed\\9811_0003\\data\\Speeches\\JJDS9a\\jjd1548_bhl-51b66ae6.docx'
p197
sS'"Z:\\unprocessed\\9811_0003\\data\\Speeches\\JJDS9a\\jjd1533.doc"'
p198
S'Z:\\unprocessed\\9811_0003\\data\\Speeches\\JJDS9a\\jjd1533_bhl-5d6d0ff7.docx'
p199
sS'"Z:\\unprocessed\\9811_0003\\data\\Speeches\\JJDS5c\\jjd1284.pdf"'
p200
S'"Z:\\unprocessed\\9811_0003\\data\\Speeches\\JJDS5c\\jjd1284_bhl-fa5cd5e3.pdf"'
p201
sS'"Z:\\unprocessed\\9811_0003\\data\\Speeches\\JJDS9a\\jjd1426.doc"'
p202
S'Z:\\unprocessed\\9811_0003\\data\\Speeches\\JJDS9a\\jjd1426_bhl-4deee62b.docx'
p203
sS'"Z:\\unprocessed\\9811_0003\\data\\Legacy\\JJDLE1\\jjd7.pdf"'
p204
S'"Z:\\unprocessed\\9811_0003\\data\\Legacy\\JJDLE1\\jjd7_bhl-87aa971e.pdf"'
p205
sS'"Z:\\unprocessed\\9811_0003\\data\\Speeches\\JJDS9b\\jjd1536.pdf"'
p206
S'"Z:\\unprocessed\\9811_0003\\data\\Speeches\\JJDS9b\\jjd1536_bhl-2551d4be.pdf"'
p207
sS'"Z:\\unprocessed\\9811_0003\\data\\Presentations\\JJDPR\\jjd576.pdf"'
p208
S'"Z:\\unprocessed\\9811_0003\\data\\Presentations\\JJDPR\\jjd576_bhl-b351088f.pdf"'
p209
sS'"Z:\\unprocessed\\9811_0003\\data\\Speeches\\JJDS9a\\jjd1560.pdf"'
p210
S'"Z:\\unprocessed\\9811_0003\\data\\Speeches\\JJDS9a\\jjd1560_bhl-733e1887.pdf"'
p211
sS'"Z:\\unprocessed\\9811_0003\\data\\Speeches\\JJDS9b\\jjd1548.pdf"'
p212
S'"Z:\\unprocessed\\9811_0003\\data\\Speeches\\JJDS9b\\jjd1548_bhl-a0e46ad1.pdf"'
p213
sS'"Z:\\unprocessed\\9811_0003\\data\\Presentations\\JJDPR\\jjd570.pdf"'
p214
S'"Z:\\unprocessed\\9811_0003\\data\\Presentations\\JJDPR\\jjd570_bhl-9ac4ebc0.pdf"'
p215
sS'"Z:\\unprocessed\\9811_0003\\data\\Presentations\\JJDPR\\jjd563.pdf"'
p216
S'"Z:\\unprocessed\\9811_0003\\data\\Presentations\\JJDPR\\jjd563_bhl-c7100690.pdf"'
p217
sS'"Z:\\unprocessed\\9811_0003\\data\\Presentations\\JJDPR\\jjd580.pdf"'
p218
S'"Z:\\unprocessed\\9811_0003\\data\\Presentations\\JJDPR\\jjd580_bhl-6748f528.pdf"'
p219
sS'"Z:\\unprocessed\\9811_0003\\data\\Speeches\\JJDS9b\\jjd1429.doc"'
p220
S'Z:\\unprocessed\\9811_0003\\data\\Speeches\\JJDS9b\\jjd1429_bhl-375d735d.docx'
p221
sS'"Z:\\unprocessed\\9811_0003\\data\\Speeches\\JJDS5c\\jjd1267.pdf"'
p222
S'"Z:\\unprocessed\\9811_0003\\data\\Speeches\\JJDS5c\\jjd1267_bhl-47279891.pdf"'
p223
sS'"Z:\\unprocessed\\9811_0003\\data\\Speeches\\JJDS9a\\jjd1547.pdf"'
p224
S'"Z:\\unprocessed\\9811_0003\\data\\Speeches\\JJDS9a\\jjd1547_bhl-9383cccc.pdf"'
p225
sS'"Z:\\unprocessed\\9811_0003\\data\\Presentations\\JJDPR\\jjd578.pdf"'
p226
S'"Z:\\unprocessed\\9811_0003\\data\\Presentations\\JJDPR\\jjd578_bhl-ebc94a6a.pdf"'
p227
sS'"Z:\\unprocessed\\9811_0003\\data\\Speeches\\JJDS9a\\jjd1535.pdf"'
p228
S'"Z:\\unprocessed\\9811_0003\\data\\Speeches\\JJDS9a\\jjd1535_bhl-b3d36185.pdf"'
p229
sS'"Z:\\unprocessed\\9811_0003\\data\\Presentations\\JJDPR\\jjd551.pdf"'
p230
S'"Z:\\unprocessed\\9811_0003\\data\\Presentations\\JJDPR\\jjd551_bhl-3fbdd4c8.pdf"'
p231
sS'"Z:\\unprocessed\\9811_0003\\data\\Speeches\\JJDS5c\\jjd1256.pdf"'
p232
S'"Z:\\unprocessed\\9811_0003\\data\\Speeches\\JJDS5c\\jjd1256_bhl-47c5e774.pdf"'
p233
sS'"Z:\\unprocessed\\9811_0003\\data\\Presentations\\JJDPR\\jjd558.pdf"'
p234
S'"Z:\\unprocessed\\9811_0003\\data\\Presentations\\JJDPR\\jjd558_bhl-99562c56.pdf"'
p235
sS'"Z:\\unprocessed\\9811_0003\\data\\Presentations\\JJDPR\\JJD591.pdf"'
p236
S'"Z:\\unprocessed\\9811_0003\\data\\Presentations\\JJDPR\\JJD591_bhl-e2312c59.pdf"'
p237
sS'"Z:\\unprocessed\\9811_0003\\data\\Speeches\\JJDS9b\\jjd1543.doc"'
p238
S'Z:\\unprocessed\\9811_0003\\data\\Speeches\\JJDS9b\\jjd1543_bhl-d4e5b053.docx'
p239
sS'"Z:\\unprocessed\\9811_0003\\data\\Speeches\\JJDS5c\\jjd1232.pdf"'
p240
S'"Z:\\unprocessed\\9811_0003\\data\\Speeches\\JJDS5c\\jjd1232_bhl-36b24ec5.pdf"'
p241
sS'"Z:\\unprocessed\\9811_0003\\data\\Presentations\\JJDPR\\jjd548.pdf"'
p242
S'"Z:\\unprocessed\\9811_0003\\data\\Presentations\\JJDPR\\jjd548_bhl-d0bcd91d.pdf"'
p243
sS'"Z:\\unprocessed\\9811_0003\\data\\Speeches\\JJDS9b\\jjd1452.doc"'
p244
S'Z:\\unprocessed\\9811_0003\\data\\Speeches\\JJDS9b\\jjd1452_bhl-acf4a721.docx'
p245
sS'"Z:\\unprocessed\\9811_0003\\data\\Speeches\\JJDS9a\\jjd1463.doc"'
p246
S'Z:\\unprocessed\\9811_0003\\data\\Speeches\\JJDS9a\\jjd1463_bhl-bf36ae7f.docx'
p247
sS'"Z:\\unprocessed\\9811_0003\\data\\Speeches\\JJDS5c\\jjd1282.pdf"'
p248
S'"Z:\\unprocessed\\9811_0003\\data\\Speeches\\JJDS5c\\jjd1282_bhl-e9edb106.pdf"'
p249
sS'"Z:\\unprocessed\\9811_0003\\data\\Speeches\\JJDS9a\\jjd1559.pdf"'
p250
S'"Z:\\unprocessed\\9811_0003\\data\\Speeches\\JJDS9a\\jjd1559_bhl-27776bce.pdf"'
p251
sS'"Z:\\unprocessed\\9811_0003\\data\\Legacy\\JJDLE1\\jjd2.pdf"'
p252
S'"Z:\\unprocessed\\9811_0003\\data\\Legacy\\JJDLE1\\jjd2_bhl-70ded425.pdf"'
p253
sS'"Z:\\unprocessed\\9811_0003\\data\\Speeches\\JJDS9a\\jjd1450.doc"'
p254
S'Z:\\unprocessed\\9811_0003\\data\\Speeches\\JJDS9a\\jjd1450_bhl-cf0c8b98.docx'
p255
sS'"Z:\\unprocessed\\9811_0003\\data\\Speeches\\JJDS9a\\jjd1537.pdf"'
p256
S'"Z:\\unprocessed\\9811_0003\\data\\Speeches\\JJDS9a\\jjd1537_bhl-aaf9af35.pdf"'
p257
sS'"Z:\\unprocessed\\9811_0003\\data\\Speeches\\JJDS9a\\jjd1557.pdf"'
p258
S'"Z:\\unprocessed\\9811_0003\\data\\Speeches\\JJDS9a\\jjd1557_bhl-d537e226.pdf"'
p259
sS'"Z:\\unprocessed\\9811_0003\\data\\Speeches\\JJDS9a\\jjd1548.pdf"'
p260
S'"Z:\\unprocessed\\9811_0003\\data\\Speeches\\JJDS9a\\jjd1548_bhl-c1aeca27.pdf"'
p261
sS'"Z:\\unprocessed\\9811_0003\\data\\Presentations\\JJDPR\\jjd544.pdf"'
p262
S'"Z:\\unprocessed\\9811_0003\\data\\Presentations\\JJDPR\\jjd544_bhl-eb36c3fd.pdf"'
p263
sS'"Z:\\unprocessed\\9811_0003\\data\\Speeches\\JJDS9a\\jjd1561.pdf"'
p264
S'"Z:\\unprocessed\\9811_0003\\data\\Speeches\\JJDS9a\\jjd1561_bhl-bd5726f2.pdf"'
p265
sS'"Z:\\unprocessed\\9811_0003\\data\\Speeches\\JJDS9a\\jjd1532.doc"'
p266
S'Z:\\unprocessed\\9811_0003\\data\\Speeches\\JJDS9a\\jjd1532_bhl-9e688efc.docx'
p267
sS'"Z:\\unprocessed\\9811_0003\\data\\Speeches\\JJDS5c\\S5restricted\\jjd1219.pdf"'
p268
S'"Z:\\unprocessed\\9811_0003\\data\\Speeches\\JJDS5c\\S5restricted\\jjd1219_bhl-9844297e.pdf"'
p269
sS'"Z:\\unprocessed\\9811_0003\\data\\Speeches\\JJDS9a\\jjd1542.pdf"'
p270
S'"Z:\\unprocessed\\9811_0003\\data\\Speeches\\JJDS9a\\jjd1542_bhl-1d0d0161.pdf"'
p271
sS'"Z:\\unprocessed\\9811_0003\\data\\Speeches\\JJDS9a\\jjd1538.pdf"'
p272
S'"Z:\\unprocessed\\9811_0003\\data\\Speeches\\JJDS9a\\jjd1538_bhl-8ec24681.pdf"'
p273
sS'"Z:\\unprocessed\\9811_0003\\data\\Presentations\\JJDPR\\jjd583.pdf"'
p274
S'"Z:\\unprocessed\\9811_0003\\data\\Presentations\\JJDPR\\jjd583_bhl-f1d833fe.pdf"'
p275
sS'"Z:\\unprocessed\\9811_0003\\data\\Speeches\\JJDS9b\\jjd1508.xls"'
p276
S'Z:\\unprocessed\\9811_0003\\data\\Speeches\\JJDS9b\\jjd1508_bhl-6c465203.xlsx'
p277
sS'"Z:\\unprocessed\\9811_0003\\data\\Legacy\\JJDLE1\\jjd2.doc"'
p278
S'Z:\\unprocessed\\9811_0003\\data\\Legacy\\JJDLE1\\jjd2_bhl-a5090874.docx'
p279
sS'"Z:\\unprocessed\\9811_0003\\data\\Presentations\\JJDPR\\jjd537.pdf"'
p280
S'"Z:\\unprocessed\\9811_0003\\data\\Presentations\\JJDPR\\jjd537_bhl-e5110760.pdf"'
p281
sS'"Z:\\unprocessed\\9811_0003\\data\\Presentations\\JJDPR\\jjd549.pdf"'
p282
S'"Z:\\unprocessed\\9811_0003\\data\\Presentations\\JJDPR\\jjd549_bhl-0a956ca4.pdf"'
p283
sS'"Z:\\unprocessed\\9811_0003\\data\\Speeches\\JJDS9b\\jjd1539.pdf"'
p284
S'"Z:\\unprocessed\\9811_0003\\data\\Speeches\\JJDS9b\\jjd1539_bhl-ddfaa8ab.pdf"'
p285
sS'"Z:\\unprocessed\\9811_0003\\data\\Speeches\\JJDS9a\\jjd1542.doc"'
p286
S'Z:\\unprocessed\\9811_0003\\data\\Speeches\\JJDS9a\\jjd1542_bhl-11fd85a8.docx'
p287
sS'"Z:\\unprocessed\\9811_0003\\data\\Presentations\\JJDPR\\jjd579.pdf"'
p288
S'"Z:\\unprocessed\\9811_0003\\data\\Presentations\\JJDPR\\jjd579_bhl-3b3d0855.pdf"'
p289
sS'"Z:\\unprocessed\\9811_0003\\data\\Speeches\\JJDS5b\\jjd1231.pdf"'
p290
S'"Z:\\unprocessed\\9811_0003\\data\\Speeches\\JJDS5b\\jjd1231_bhl-deef7d29.pdf"'
p291
sS'"Z:\\unprocessed\\9811_0003\\data\\Speeches\\JJDS9b\\jjd1474.pdf"'
p292
S'"Z:\\unprocessed\\9811_0003\\data\\Speeches\\JJDS9b\\jjd1474_bhl-12da3101.pdf"'
p293
sS'"Z:\\unprocessed\\9811_0003\\data\\Speeches\\JJDS5c\\jjd1306.pdf"'
p294
S'"Z:\\unprocessed\\9811_0003\\data\\Speeches\\JJDS5c\\jjd1306_bhl-1644e71c.pdf"'
p295
sS'"Z:\\unprocessed\\9811_0003\\data\\Presentations\\JJDPR\\jjd568.pdf"'
p296
S'"Z:\\unprocessed\\9811_0003\\data\\Presentations\\JJDPR\\jjd568_bhl-44e6076f.pdf"'
p297
sS'"Z:\\unprocessed\\9811_0003\\data\\Presentations\\JJDPR\\jjd545.pdf"'
p298
S'"Z:\\unprocessed\\9811_0003\\data\\Presentations\\JJDPR\\jjd545_bhl-131f83f1.pdf"'
p299
sS'"Z:\\unprocessed\\9811_0003\\data\\Speeches\\JJDS9a\\jjd1561.doc"'
p300
S'Z:\\unprocessed\\9811_0003\\data\\Speeches\\JJDS9a\\jjd1561_bhl-46a6afbc.docx'
p301
sS'"Z:\\unprocessed\\9811_0003\\data\\Speeches\\JJDS9a\\jjd1451.doc"'
p302
S'Z:\\unprocessed\\9811_0003\\data\\Speeches\\JJDS9a\\jjd1451_bhl-57af4800.docx'
p303
sS'"Z:\\unprocessed\\9811_0003\\data\\Speeches\\JJDS9a\\jjd1558.pdf"'
p304
S'"Z:\\unprocessed\\9811_0003\\data\\Speeches\\JJDS9a\\jjd1558_bhl-2e34c732.pdf"'
p305
sS'"Z:\\unprocessed\\9811_0003\\data\\Speeches\\JJDS5c\\jjd1298.pdf"'
p306
S'"Z:\\unprocessed\\9811_0003\\data\\Speeches\\JJDS5c\\jjd1298_bhl-c2624000.pdf"'
p307
sS'"Z:\\unprocessed\\9811_0003\\data\\Speeches\\JJDS5c\\jjd1270.pdf"'
p308
S'"Z:\\unprocessed\\9811_0003\\data\\Speeches\\JJDS5c\\jjd1270_bhl-5e302a03.pdf"'
p309
sS'"Z:\\unprocessed\\9811_0003\\data\\Speeches\\JJDS5c\\jjd1271.pdf"'
p310
S'"Z:\\unprocessed\\9811_0003\\data\\Speeches\\JJDS5c\\jjd1271_bhl-e1cbe837.pdf"'
p311
sS'"Z:\\unprocessed\\9811_0003\\data\\Speeches\\JJDS5c\\jjd1260.pdf"'
p312
S'"Z:\\unprocessed\\9811_0003\\data\\Speeches\\JJDS5c\\jjd1260_bhl-adc19605.pdf"'
p313
sS'"Z:\\unprocessed\\9811_0003\\data\\Speeches\\JJDS9a\\jjd1560.doc"'
p314
S'Z:\\unprocessed\\9811_0003\\data\\Speeches\\JJDS9a\\jjd1560_bhl-92db3355.docx'
p315
sS'"Z:\\unprocessed\\9811_0003\\data\\Speeches\\JJDS9a\\jjd1556.pdf"'
p316
S'"Z:\\unprocessed\\9811_0003\\data\\Speeches\\JJDS9a\\jjd1556_bhl-417c5463.pdf"'
p317
sS'"Z:\\unprocessed\\9811_0003\\data\\Presentations\\JJDPR\\jjd553.pdf"'
p318
S'"Z:\\unprocessed\\9811_0003\\data\\Presentations\\JJDPR\\jjd553_bhl-ac5186d4.pdf"'
p319
sS'"Z:\\unprocessed\\9811_0003\\data\\Presentations\\JJDPR\\jjd590.pdf"'
p320
S'"Z:\\unprocessed\\9811_0003\\data\\Presentations\\JJDPR\\jjd590_bhl-d2da1823.pdf"'
p321
sS'"Z:\\unprocessed\\9811_0003\\data\\Presentations\\JJDPR\\jjd562.pdf"'
p322
S'"Z:\\unprocessed\\9811_0003\\data\\Presentations\\JJDPR\\jjd562_bhl-859360ba.pdf"'
p323
sS'"Z:\\unprocessed\\9811_0003\\data\\Presentations\\JJDPR\\jjd575.pdf"'
p324
S'"Z:\\unprocessed\\9811_0003\\data\\Presentations\\JJDPR\\jjd575_bhl-fb2efe41.pdf"'
p325
sS'"Z:\\unprocessed\\9811_0003\\data\\Speeches\\JJDS9a\\jjd1532.pdf"'
p326
S'"Z:\\unprocessed\\9811_0003\\data\\Speeches\\JJDS9a\\jjd1532_bhl-b93fe891.pdf"'
p327
sS'"Z:\\unprocessed\\9811_0003\\data\\Speeches\\JJDS5c\\jjd1254.pdf"'
p328
S'"Z:\\unprocessed\\9811_0003\\data\\Speeches\\JJDS5c\\jjd1254_bhl-8954e778.pdf"'
p329
sS'"Z:\\unprocessed\\9811_0003\\data\\Speeches\\JJDS9a\\jjd1545.pdf"'
p330
S'"Z:\\unprocessed\\9811_0003\\data\\Speeches\\JJDS9a\\jjd1545_bhl-0774263c.pdf"'
p331
sS'"Z:\\unprocessed\\9811_0003\\data\\Speeches\\JJDS5c\\jjd1299.pdf"'
p332
S'"Z:\\unprocessed\\9811_0003\\data\\Speeches\\JJDS5c\\jjd1299_bhl-8da60762.pdf"'
p333
sS'"Z:\\unprocessed\\9811_0003\\data\\Speeches\\JJDS9b\\jjd1458.doc"'
p334
S'Z:\\unprocessed\\9811_0003\\data\\Speeches\\JJDS9b\\jjd1458_bhl-34743234.docx'
p335
sS'"Z:\\unprocessed\\9811_0003\\data\\Speeches\\JJDS9b\\jjd1544.pdf"'
p336
S'"Z:\\unprocessed\\9811_0003\\data\\Speeches\\JJDS9b\\jjd1544_bhl-fc98076c.pdf"'
p337
sS'"Z:\\unprocessed\\9811_0003\\data\\Presentations\\JJDPR\\jjd556.pdf"'
p338
S'"Z:\\unprocessed\\9811_0003\\data\\Presentations\\JJDPR\\jjd556_bhl-dab06177.pdf"'
p339
sS'"Z:\\unprocessed\\9811_0003\\data\\Speeches\\JJDS4a\\jjd1045.pdf"'
p340
S'"Z:\\unprocessed\\9811_0003\\data\\Speeches\\JJDS4a\\jjd1045_bhl-b165834b.pdf"'
p341
sS'"Z:\\unprocessed\\9811_0003\\data\\Speeches\\JJDS9b\\jjd1548.doc"'
p342
S'Z:\\unprocessed\\9811_0003\\data\\Speeches\\JJDS9b\\jjd1548_bhl-e8301905.docx'
p343
sS'"Z:\\unprocessed\\9811_0003\\data\\Speeches\\JJDS5c\\S5restricted\\jjd1268.pdf"'
p344
S'"Z:\\unprocessed\\9811_0003\\data\\Speeches\\JJDS5c\\S5restricted\\jjd1268_bhl-6b39ed37.pdf"'
p345
sS'"Z:\\unprocessed\\9811_0003\\data\\Presentations\\JJDPR\\jjd582.pdf"'
p346
S'"Z:\\unprocessed\\9811_0003\\data\\Presentations\\JJDPR\\jjd582_bhl-a5f58206.pdf"'
p347
sS'"Z:\\unprocessed\\9811_0003\\data\\Presentations\\JJDPR\\jjd569.pdf"'
p348
S'"Z:\\unprocessed\\9811_0003\\data\\Presentations\\JJDPR\\jjd569_bhl-b04859b7.pdf"'
p349
s.