(lp0
(dp1
S'date'
p2
V8/25/85
p3
sS'href'
p4
S'../Ideas/JJDI1/jjd65.doc'
p5
sS'title'
p6
VPhysics-85
p7
sa(dp8
g2
V1/4/86
p9
sg4
S'../Ideas/JJDI1/jjd67.doc'
p10
sg6
VRotary
p11
sa(dp12
g2
V5/6/86
p13
sg4
S'../Ideas/JJDI1/jjd59.doc'
p14
sg6
VMedSch-4/6
p15
sa(dp16
g2
V5/18/86
p17
sg4
S'../Ideas/JJDI1/jjd70.doc'
p18
sg6
VStrFnd-5/19
p19
sa(dp20
g2
V5/21/86
p21
sg4
S'../Ideas/JJDI1/jjd42.doc'
p22
sg6
VASB-5/21
p23
sa(dp24
g2
V5/31/86
p25
sg4
S'../Ideas/JJDI1/jjd44.doc'
p26
sg6
VChallenge
p27
sa(dp28
g2
V6/26/86
p29
sg4
S'../Ideas/JJDI1/jjd43.doc'
p30
sg6
VBPC Talk
p31
sa(dp32
g2
V7/17/86
p33
sg4
S'../Ideas/JJDI1/jjd45.doc'
p34
sg6
VChinese
p35
sa(dp36
g2
V9/2/86
p37
sg4
S'../Ideas/JJDI1/jjd41.doc'
p38
sg6
VArt
p39
sa(dp40
g2
V9/6/86
p41
sg4
S'../Ideas/JJDI1/jjd46.doc'
p42
sg6
VCRLT
p43
sa(dp44
g2
V9/7/86
p45
sg4
S'../Ideas/JJDI1/jjd40.doc'
p46
sg6
VAlumni Talk
p47
sa(dp48
g2
V9/9/86
p49
sg4
S'../Ideas/JJDI1/jjd52.doc'
p50
sg6
VEXPRES
p51
sa(dp52
g2
V9/10/86
p53
sg4
S'../Ideas/JJDI1/jjd39.doc'
p54
sg6
VAAAC Stra
p55
sa(dp56
g2
V9/18/86
p57
sg4
S'../Ideas/JJDI1/jjd50.doc'
p58
sg6
VEngineering
p59
sa(dp60
g2
V9/21/86
p61
sg4
S'../Ideas/JJDI1/jjd64.doc'
p62
sg6
VObj & Pri
p63
sa(dp64
g2
V10/18/86
p65
sg4
S'../Ideas/JJDI1/jjd68.doc'
p66
sg6
VSenate Assembly
p67
sa(dp68
g2
V10/29/86
p69
sg4
S'../Ideas/JJDI1/jjd75.doc'
p70
sg6
VYale-10/30
p71
sa(dp72
g2
V11/10/86
p73
sg4
S'../Ideas/JJDI1/jjd55.doc'
p74
sg6
VHonor Society
p75
sa(dp76
g2
V11/10/86
p77
sg4
S'../Ideas/JJDI1/jjd49.doc'
p78
sg6
VEduc-Change
p79
sa(dp80
g2
V12/10/86
p81
sg4
S'../Ideas/JJDI1/jjd57.doc'
p82
sg6
VLegislators-86
p83
sa(dp84
g2
V12/20/86
p85
sg4
S'../Ideas/JJDI1/jjd72.doc'
p86
sg6
VUM Characteristics
p87
sa(dp88
g2
V12/20/86
p89
sg4
S'../Ideas/JJDI1/jjd56.doc'
p90
sg6
VLeadership
p91
sa(dp92
g2
V1/8/87
p93
sg4
S'../Ideas/JJDI1/jjd60.doc'
p94
sg6
VMITN
p95
sa(dp96
g2
V1/11/87
p97
sg4
S'../Ideas/JJDI1/jjd62.doc'
p98
sg6
VNiara Party
p99
sa(dp100
g2
V1/12/87
p101
sg4
S'../Ideas/JJDI1/jjd61.doc'
p102
sg6
VMLK Day
p103
sa(dp104
g2
V1/14/87
p105
sg4
S'../Ideas/JJDI1/jjd51.txt'
p106
sg6
VEnv Ass 5.0
p107
sa(dp108
g2
V2/13/87
p109
sg4
S'../Ideas/JJDI1/jjd69.doc'
p110
sg6
VSPRL
p111
sa(dp112
g2
V3/1/87
p113
sg4
S'../Ideas/JJDI1/jjd54.doc'
p114
sg6
VHigh Tech-3/87
p115
sa(dp116
g2
V3/5/87
p117
sg4
S'../Ideas/JJDI1/jjd53.doc'
p118
sg6
VGenetics
p119
sa(dp120
g2
S'3/22/87'
p121
sg4
S'../Ideas/JJDI1/jjd48.doc'
p122
sg6
S'Ed for Change'
p123
sa(dp124
g2
V4/7/87
p125
sg4
S'../Ideas/JJDI1/jjd74.doc'
p126
sg6
VYale Talk
p127
sa(dp128
g2
V4/13/87
p129
sg4
S'../Ideas/JJDI1/jjd73.doc'
p130
sg6
VUS-Japan Conference
p131
sa(dp132
g2
V5/30/87
p133
sg4
S'../Ideas/JJDI1/jjd71.doc'
p134
sg6
VUG-Big Ten
p135
sa(dp136
g2
S'6/11/87'
p137
sg4
S'../Ideas/JJDI1/jjd63.doc'
p138
sg6
S'Nursing'
p139
sa(dp140
g2
V6/16/87
p141
sg4
S'../Ideas/JJDI1/jjd66.doc'
p142
sg6
VPluralism
p143
sa(dp144
g2
V6/30/87
p145
sg4
S'../Ideas/JJDI1/jjd47.doc'
p146
sg6
VDevel-6/30
p147
sa(dp148
g2
V9/6/86
p149
sg4
S'../Ideas/JJDI2/jjd79.doc'
p150
sg6
VAcademic Affairs Picnic
p151
sa(dp152
g2
V12/26/86
p153
sg4
S'../Ideas/JJDI2/jjd98.doc'
p154
sg6
VRose Bowl
p155
sa(dp156
g2
V1/18/87
p157
sg4
S'../Ideas/JJDI2/jjd94.doc'
p158
sg6
VPhysics-87
p159
sa(dp160
g2
V2/16/87
p161
sg4
S'../Ideas/JJDI2/jjd83.doc'
p162
sg6
VCaltech
p163
sa(dp164
g2
V5/17/87
p165
sg4
S'../Ideas/JJDI2/jjd99.doc'
p166
sg6
VSen Assem - 5/87
p167
sa(dp168
g2
V6/6/87
p169
sg4
S'../Ideas/JJDI2/jjd86.doc'
p170
sg6
VEmeritus-6/87
p171
sa(dp172
g2
V6/6/87
p173
sg4
S'../Ideas/JJDI2/jjd97.doc'
p174
sg6
VReunion-6/87
p175
sa(dp176
g2
V7/20/87
p177
sg4
S'../Ideas/JJDI2/jjd78.doc'
p178
sg6
VAAAC-Min-II
p179
sa(dp180
g2
V8/25/87
p181
sg4
S'../Ideas/JJDI2/jjd82.doc'
p182
sg6
VBudget Questions
p183
sa(dp184
g2
V8/25/87
p185
sg4
S'../Ideas/JJDI2/jjd102.doc'
p186
sg6
VStrategic Planning 1.1
p187
sa(dp188
g2
V8/27/87
p189
sg4
S'../Ideas/JJDI2/jjd80.doc'
p190
sg6
VAPG Agenda
p191
sa(dp192
g2
V9/3/87
p193
sg4
S'../Ideas/JJDI2/jjd76.doc'
p194
sg6
Vaaac Agenda
p195
sa(dp196
g2
V9/3/87
p197
sg4
S'../Ideas/JJDI2/jjd81.doc'
p198
sg6
VBPC Agenda
p199
sa(dp200
g2
V9/8/87
p201
sg4
S'../Ideas/JJDI2/jjd96.doc'
p202
sg6
VRacism Retreat Followup
p203
sa(dp204
g2
V9/9/87
p205
sg4
S'../Ideas/JJDI2/jjd77.doc'
p206
sg6
VAAAC-9/9
p207
sa(dp208
g2
V10/3/87
p209
sg4
S'../Ideas/JJDI2/jjd88.doc'
p210
sg6
VFund Raising Priorities
p211
sa(dp212
g2
V10/14/87
p213
sg4
S'../Ideas/JJDI2/jjd95.doc'
p214
sg6
VPlan-5.0
p215
sa(dp216
g2
V11/2/87
p217
sg4
S'../Ideas/JJDI2/jjd100.doc'
p218
sg6
VShapiro 11/87
p219
sa(dp220
g2
V11/2/87
p221
sg4
S'../Ideas/JJDI2/jjd87.doc'
p222
sg6
VFleming 11/87
p223
sa(dp224
g2
V11/5/87
p225
sg4
S'../Ideas/JJDI2/jjd91.doc'
p226
sg6
VMedical Center Issues
p227
sa(dp228
g2
V11/6/87
p229
sg4
S'../Ideas/JJDI2/jjd85.doc'
p230
sg6
VDiversity Agenda
p231
sa(dp232
g2
V11/6/87
p233
sg4
S'../Ideas/JJDI2/jjd84.doc'
p234
sg6
VCrazy Ideas
p235
sa(dp236
g2
V11/21/87
p237
sg4
S'../Ideas/JJDI2/jjd103.doc'
p238
sg6
VStrategy & Tactics
p239
sa(dp240
g2
V12/13/87
p241
sg4
S'../Ideas/JJDI2/jjd90.doc'
p242
sg6
VLeadership Depth Chart
p243
sa(dp244
g2
V5/13/88
p245
sg4
S'../Ideas/JJDI2/jjd89.doc'
p246
sg6
VIntro
p247
sa(dp248
g2
V5/22/88
p249
sg4
S'../Ideas/JJDI2/jjd93.doc'
p250
sg6
VOAA Summary 1987-88
p251
sa(dp252
g2
V6/2/88
p253
sg4
S'../Ideas/JJDI2/jjd92.doc'
p254
sg6
VMore Map
p255
sa(dp256
g2
V3/6/87
p257
sg4
S'../Ideas/JJDI3/jjd114.doc'
p258
sg6
VE&V Conf
p259
sa(dp260
g2
V7/10/88
p261
sg4
S'../Ideas/JJDI3/jjd125.doc'
p262
sg6
VPresident To-Do List Summer-88
p263
sa(dp264
g2
V7/10/88
p265
sg4
S'../Ideas/JJDI3/jjd136.doc'
p266
sg6
VVirginia Nordby
p267
sa(dp268
g2
V7/30/88
p269
sg4
S'../Ideas/JJDI3/jjd108.doc'
p270
sg6
VBlanchard-Tuition
p271
sa(dp272
g2
V10/16/88
p273
sg4
S'../Ideas/JJDI3/jjd129.doc'
p274
sg6
VState Initiatives
p275
sa(dp276
g2
V10/27/88
p277
sg4
S'../Ideas/JJDI3/jjd130.doc'
p278
sg6
VState Strategy
p279
sa(dp280
g2
V10/28/88
p281
sg4
S'../Ideas/JJDI3/jjd132.doc'
p282
sg6
VTo Do (Strategic)
p283
sa(dp284
g2
V11/3/88
p285
sg4
S'../Ideas/JJDI3/jjd122.doc'
p286
sg6
VLeadership Network
p287
sa(dp288
g2
V11/14/88
p289
sg4
S'../Ideas/JJDI3/jjd119.doc'
p290
sg6
VInvitation List for Faculty Din
p291
sa(dp292
g2
V11/16/88
p293
sg4
S'../Ideas/JJDI3/jjd113.doc'
p294
sg6
VDMB Meeting-11/15
p295
sa(dp296
g2
V11/17/88
p297
sg4
S'../Ideas/JJDI3/jjd126.doc'
p298
sg6
VProvost Candidates
p299
sa(dp300
g2
V1/18/89
p301
sg4
S'../Ideas/JJDI3/jjd112.doc'
p302
sg6
VDinner -- Feb 6
p303
sa(dp304
g2
V1/19/89
p305
sg4
S'../Ideas/JJDI3/jjd127.doc'
p306
sg6
VRegents-Items-1/89
p307
sa(dp308
g2
V1/20/89
p309
sg4
S'../Ideas/JJDI3/jjd104.doc'
p310
sg6
VAdamany discussions
p311
sa(dp312
g2
V1/20/89
p313
sg4
S'../Ideas/JJDI3/jjd117.doc'
p314
sg6
VEO Issues-1/89
p315
sa(dp316
g2
V1/23/89
p317
sg4
S'../Ideas/JJDI3/jjd134.doc'
p318
sg6
VTo Do Win-89 Priorities
p319
sa(dp320
g2
V2/15/89
p321
sg4
S'../Ideas/JJDI3/jjd137.doc'
p322
sg6
VWeiss
p323
sa(dp324
g2
V3/27/89
p325
sg4
S'../Ideas/JJDI3/jjd124.doc'
p326
sg6
VPACMA
p327
sa(dp328
g2
V4/8/89
p329
sg4
S'../Ideas/JJDI3/jjd106.doc'
p330
sg6
VAlumni Satellite Program
p331
sa(dp332
g2
V5/4/89
p333
sg4
S'../Ideas/JJDI3/jjd135.doc'
p334
sg6
VTrips, Reservations, and Stuff
p335
sa(dp336
g2
V5/15/89
p337
sg4
S'../Ideas/JJDI3/jjd123.doc'
p338
sg6
VMission-Long
p339
sa(dp340
g2
S'5/16/89'
p341
sg4
S'../Ideas/JJDI3/jjd115.doc'
p342
sg6
S'Elements of Campaign'
p343
sa(dp344
g2
V5/16/89
p345
sg4
S'../Ideas/JJDI3/jjd109.doc'
p346
sg6
VCase State 1
p347
sa(dp348
g2
V5/16/89
p349
sg4
S'../Ideas/JJDI3/jjd111.doc'
p350
sg6
VCase Statement
p351
sa(dp352
g2
V5/16/89
p353
sg4
S'../Ideas/JJDI3/jjd110.doc'
p354
sg6
VCase State Short
p355
sa(dp356
g2
V5/19/89
p357
sg4
S'../Ideas/JJDI3/jjd107.doc'
p358
sg6
VBiography
p359
sa(dp360
g2
V5/26/89
p361
sg4
S'../Ideas/JJDI3/jjd133.doc'
p362
sg6
VTo Do Spring-89
p363
sa(dp364
g2
V5/27/89
p365
sg4
S'../Ideas/JJDI3/jjd131.doc'
p366
sg6
VStrategic Summary--May, 1989
p367
sa(dp368
g2
V6/11/89
p369
sg4
S'../Ideas/JJDI3/jjd118.doc'
p370
sg6
VHarvard Letters
p371
sa(dp372
g2
V6/12/89
p373
sg4
S'../Ideas/JJDI3/jjd116.doc'
p374
sg6
VEO Ideas
p375
sa(dp376
g2
V6/21/89
p377
sg4
S'../Ideas/JJDI3/jjd120.doc'
p378
sg6
VJJD/CMV/FWW/RLK-6/21
p379
sa(dp380
g2
V6/23/89
p381
sg4
S'../Ideas/JJDI3/jjd105.doc'
p382
sg6
VAdd-Ins
p383
sa(dp384
g2
V6/19/89
p385
sg4
S'../Ideas/JJDI4/jjd138.doc'
p386
sg6
VAdvisory Council
p387
sa(dp388
g2
V6/19/89
p389
sg4
S'../Ideas/JJDI4/jjd184.doc'
p390
sg6
VTo Do/Spring, 1989
p391
sa(dp392
g2
V7/9/89
p393
sg4
S'../Ideas/JJDI4/jjd179.doc'
p394
sg6
VSummary 1988-89II
p395
sa(dp396
g2
V7/11/89
p397
sg4
S'../Ideas/JJDI4/jjd169.doc'
p398
sg6
VPhoto Book
p399
sa(dp400
g2
V7/12/89
p401
sg4
S'../Ideas/JJDI4/jjd171.doc'
p402
sg6
VRegents Bay Valley
p403
sa(dp404
g2
V7/16/89
p405
sg4
S'../Ideas/JJDI4/jjd161.doc'
p406
sg6
VMisc Notes
p407
sa(dp408
g2
V7/20/89
p409
sg4
S'../Ideas/JJDI4/jjd167.doc'
p410
sg6
VOffice Situation
p411
sa(dp412
g2
V8/1/89
p413
sg4
S'../Ideas/JJDI4/jjd166.doc'
p414
sg6
VOFfice Assignments
p415
sa(dp416
g2
V8/2/89
p417
sg4
S'../Ideas/JJDI4/jjd150.doc'
p418
sg6
VHenry Johnson
p419
sa(dp420
g2
V8/9/89
p421
sg4
S'../Ideas/JJDI4/jjd158.doc'
p422
sg6
VMET-8/8/89
p423
sa(dp424
g2
V8/23/89
p425
sg4
S'../Ideas/JJDI4/jjd139.doc'
p426
sg6
VBlanchard-8/23
p427
sa(dp428
g2
V8/24/89
p429
sg4
S'../Ideas/JJDI4/jjd183.doc'
p430
sg6
VTo Do, Fall-1989
p431
sa(dp432
g2
V9/28/89
p433
sg4
S'../Ideas/JJDI4/jjd174.doc'
p434
sg6
VRLKOrganization
p435
sa(dp436
g2
V9/28/89
p437
sg4
S'../Ideas/JJDI4/jjd173.doc'
p438
sg6
VRLK Shop
p439
sa(dp440
g2
V10/3/89
p441
sg4
S'../Ideas/JJDI4/jjd146.doc'
p442
sg6
VDev Struc
p443
sa(dp444
g2
V11/7/89
p445
sg4
S'../Ideas/JJDI4/jjd170.doc'
p446
sg6
VPresident
p447
sa(dp448
g2
V11/15/89
p449
sg4
S'../Ideas/JJDI4/jjd141.doc'
p450
sg6
VBudget Issues
p451
sa(dp452
g2
V11/16/89
p453
sg4
S'../Ideas/JJDI4/jjd151.doc'
p454
sg6
VHigher Ed Task
p455
sa(dp456
g2
V11/16/89
p457
sg4
S'../Ideas/JJDI4/jjd157.doc'
p458
sg6
VMacroproject List
p459
sa(dp460
g2
V11/16/89
p461
sg4
S'../Ideas/JJDI4/jjd175.doc'
p462
sg6
VRMJ Replacement
p463
sa(dp464
g2
V12/3/89
p465
sg4
S'../Ideas/JJDI4/jjd180.doc'
p466
sg6
VTo Do Ideas-12/89
p467
sa(dp468
g2
V12/4/89
p469
sg4
S'../Ideas/JJDI4/jjd181.doc'
p470
sg6
VTo Do List-Calif
p471
sa(dp472
g2
V12/18/89
p473
sg4
S'../Ideas/JJDI4/jjd162.doc'
p474
sg6
VMonday Notes
p475
sa(dp476
g2
V1/3/90
p477
sg4
S'../Ideas/JJDI4/jjd140.doc'
p478
sg6
VBo Ideas
p479
sa(dp480
g2
V1/3/90
p481
sg4
S'../Ideas/JJDI4/jjd182.doc'
p482
sg6
VTo Do Winter-1990
p483
sa(dp484
g2
V1/8/90
p485
sg4
S'../Ideas/JJDI4/jjd153.doc'
p486
sg6
VHot Buttons
p487
sa(dp488
g2
V1/18/90
p489
sg4
S'../Ideas/JJDI4/jjd172.doc'
p490
sg6
VRegents-1/90
p491
sa(dp492
g2
V2/12/90
p493
sg4
S'../Ideas/JJDI4/jjd177.doc'
p494
sg6
VStrategic Planning
p495
sa(dp496
g2
V2/22/90
p497
sg4
S'../Ideas/JJDI4/jjd154.doc'
p498
sg6
VInputs/Outputs
p499
sa(dp500
g2
V3/14/90
p501
sg4
S'../Ideas/JJDI4/jjd156.doc'
p502
sg6
VITI Strategies
p503
sa(dp504
g2
V3/19/90
p505
sg4
S'../Ideas/JJDI4/jjd176.doc'
p506
sg6
VSenate Assembly-3/90
p507
sa(dp508
g2
V3/19/90
p509
sg4
S'../Ideas/JJDI4/jjd148.doc'
p510
sg6
VEthics in Higher
p511
sa(dp512
g2
V3/19/90
p513
sg4
S'../Ideas/JJDI4/jjd163.doc'
p514
sg6
VNASULCG Fed Legis
p515
sa(dp516
g2
V4/9/90
p517
sg4
S'../Ideas/JJDI4/jjd164.doc'
p518
sg6
VNotes-4/9/90
p519
sa(dp520
g2
V4/12/90
p521
sg4
S'../Ideas/JJDI4/jjd142.doc'
p522
sg6
VCampaign Objectives
p523
sa(dp524
g2
V4/13/90
p525
sg4
S'../Ideas/JJDI4/jjd178.doc'
p526
sg6
VStudent Leadership
p527
sa(dp528
g2
V4/16/90
p529
sg4
S'../Ideas/JJDI4/jjd168.doc'
p530
sg6
VOverarching Themes
p531
sa(dp532
g2
V4/16/90
p533
sg4
S'../Ideas/JJDI4/jjd187.doc'
p534
sg6
VUM Market Niche
p535
sa(dp536
g2
V4/24/90
p537
sg4
S'../Ideas/JJDI4/jjd185.doc'
p538
sg6
VTowsley Dinner
p539
sa(dp540
g2
V4/25/90
p541
sg4
S'../Ideas/JJDI4/jjd160.doc'
p542
sg6
VMichigan Roundtable
p543
sa(dp544
g2
V5/2/90
p545
sg4
S'../Ideas/JJDI4/jjd144.doc'
p546
sg6
VCommence-Spring-90
p547
sa(dp548
g2
V5/2/90
p549
sg4
S'../Ideas/JJDI4/jjd145.doc'
p550
sg6
VCommencement-LS&A
p551
sa(dp552
g2
V5/3/90
p553
sg4
S'../Ideas/JJDI4/jjd159.doc'
p554
sg6
VMichigan Mandate 3.0
p555
sa(dp556
g2
V5/4/90
p557
sg4
S'../Ideas/JJDI4/jjd152.doc'
p558
sg6
VHonorary Degree
p559
sa(dp560
g2
V5/7/90
p561
sg4
S'../Ideas/JJDI4/jjd149.doc'
p562
sg6
VEye on the Ball
p563
sa(dp564
g2
V6/10/90
p565
sg4
S'../Ideas/JJDI4/jjd165.doc'
p566
sg6
VNSF T&R 1.0
p567
sa(dp568
g2
V6/10/90
p569
sg4
S'../Ideas/JJDI4/jjd186.doc'
p570
sg6
VUG Notes
p571
sa(dp572
g2
V6/21/90
p573
sg4
S'../Ideas/JJDI5/jjd215.doc'
p574
sg6
VUM Admin
p575
sa(dp576
g2
V6/27/90
p577
sg4
S'../Ideas/JJDI5/jjd203.doc'
p578
sg6
VRegents Briefing-July
p579
sa(dp580
g2
V7/1/90
p581
sg4
S'../Ideas/JJDI5/jjd218.doc'
p582
sg6
VUtah List
p583
sa(dp584
g2
V7/5/90
p585
sg4
S'../Ideas/JJDI5/jjd210.doc'
p586
sg6
VTalking Points
p587
sa(dp588
g2
V7/19/90
p589
sg4
S'../Ideas/JJDI5/jjd189.doc'
p590
sg6
VChecklist
p591
sa(dp592
g2
V7/24/90
p593
sg4
S'../Ideas/JJDI5/jjd214.doc'
p594
sg6
VTown-Gown Strategies
p595
sa(dp596
g2
V7/27/90
p597
sg4
S'../Ideas/JJDI5/jjd208.doc'
p598
sg6
VResponse (MORE 3.0)
p599
sa(dp600
g2
V8/24/90
p601
sg4
S'../Ideas/JJDI5/jjd201.doc'
p602
sg6
VPhysics Notes
p603
sa(dp604
g2
V8/30/90
p605
sg4
S'../Ideas/JJDI5/jjd204.doc'
p606
sg6
VRegents-8/90 Report
p607
sa(dp608
g2
V10/15/90
p609
sg4
S'../Ideas/JJDI5/jjd216.doc'
p610
sg6
VUM Inputs and Outputs
p611
sa(dp612
g2
V11/8/90
p613
sg4
S'../Ideas/JJDI5/jjd197.doc'
p614
sg6
VLuther Williams
p615
sa(dp616
g2
V11/15/90
p617
sg4
S'../Ideas/JJDI5/jjd207.doc'
p618
sg6
VResource Issues
p619
sa(dp620
g2
V11/22/90
p621
sg4
S'../Ideas/JJDI5/jjd205.doc'
p622
sg6
VRegents-December
p623
sa(dp624
g2
V12/7/90
p625
sg4
S'../Ideas/JJDI5/jjd213.doc'
p626
sg6
VTo Do-1991
p627
sa(dp628
g2
V1/16/91
p629
sg4
S'../Ideas/JJDI5/jjd199.doc'
p630
sg6
VNAE Notes
p631
sa(dp632
g2
V1/20/91
p633
sg4
S'../Ideas/JJDI5/jjd202.doc'
p634
sg6
VPresident's House
p635
sa(dp636
g2
V1/27/91
p637
sg4
S'../Ideas/JJDI5/jjd211.doc'
p638
sg6
VTask Assignment
p639
sa(dp640
g2
V2/11/91
p641
sg4
S'../Ideas/JJDI5/jjd188.doc'
p642
sg6
VBHEF Odds and Ends
p643
sa(dp644
g2
V3/5/91
p645
sg4
S'../Ideas/JJDI5/jjd192.doc'
p646
sg6
VFutures Group
p647
sa(dp648
g2
V3/18/91
p649
sg4
S'../Ideas/JJDI5/jjd217.doc'
p650
sg6
VUniversity Events Meeting
p651
sa(dp652
g2
V3/23/91
p653
sg4
S'../Ideas/JJDI5/jjd206.doc'
p654
sg6
VRegents-March
p655
sa(dp656
g2
V3/29/91
p657
sg4
S'../Ideas/JJDI5/jjd196.doc'
p658
sg6
VHughes
p659
sa(dp660
g2
V4/13/91
p661
sg4
S'../Ideas/JJDI5/jjd212.doc'
p662
sg6
VThemes for 1991
p663
sa(dp664
g2
V4/18/91
p665
sg4
S'../Ideas/JJDI5/jjd191.doc'
p666
sg6
VFutures Bibliography
p667
sa(dp668
g2
V4/27/91
p669
sg4
S'../Ideas/JJDI5/jjd190.doc'
p670
sg6
VCommencement Notes
p671
sa(dp672
g2
V5/14/91
p673
sg4
S'../Ideas/JJDI5/jjd193.doc'
p674
sg6
VGormanRankings
p675
sa(dp676
g2
V5/19/91
p677
sg4
S'../Ideas/JJDI5/jjd209.doc'
p678
sg6
VSpring To Do
p679
sa(dp680
g2
V5/25/91
p681
sg4
S'../Ideas/JJDI5/jjd198.doc'
p682
sg6
VMandate History
p683
sa(dp684
g2
V6/10/91
p685
sg4
S'../Ideas/JJDI5/jjd219.doc'
p686
sg6
VVPGR
p687
sa(dp688
g2
V6/10/91
p689
sg4
S'../Ideas/JJDI5/jjd194.doc'
p690
sg6
VGTA Issues
p691
sa(dp692
g2
V7/1/91
p693
sg4
S'../Ideas/JJDI6/jjd230.doc'
p694
sg6
VRegents-June
p695
sa(dp696
g2
V7/1/91
p697
sg4
S'../Ideas/JJDI6/jjd224.doc'
p698
sg6
VFutures Notes
p699
sa(dp700
g2
V7/1/91
p701
sg4
S'../Ideas/JJDI6/jjd238.doc'
p702
sg6
VTanner Meeting
p703
sa(dp704
g2
V7/1/91
p705
sg4
S'../Ideas/JJDI6/jjd233.doc'
p706
sg6
VStudent Services Revie
p707
sa(dp708
g2
V7/18/91
p709
sg4
S'../Ideas/JJDI6/jjd220.doc'
p710
sg6
VAAU Notes
p711
sa(dp712
g2
V7/20/91
p713
sg4
S'../Ideas/JJDI6/jjd223.doc'
p714
sg6
VCUE Report
p715
sa(dp716
g2
V7/24/91
p717
sg4
S'../Ideas/JJDI6/jjd234.doc'
p718
sg6
Vsuggested improvements
p719
sa(dp720
g2
V7/26/91
p721
sg4
S'../Ideas/JJDI6/jjd231.doc'
p722
sg6
VSAC Meeting
p723
sa(dp724
g2
V7/26/91
p725
sg4
S'../Ideas/JJDI6/jjd235.doc'
p726
sg6
VSuggested Topics for Talks
p727
sa(dp728
g2
V7/26/91
p729
sg4
S'../Ideas/JJDI6/jjd222.doc'
p730
sg6
VCDM Meeting
p731
sa(dp732
g2
V11/11/91
p733
sg4
S'../Ideas/JJDI6/jjd232.doc'
p734
sg6
VStrategic Issues
p735
sa(dp736
g2
V11/11/91
p737
sg4
S'../Ideas/JJDI6/jjd226.doc'
p738
sg6
VKathy's CV
p739
sa(dp740
g2
V12/1/91
p741
sg4
S'../Ideas/JJDI6/jjd225.doc'
p742
sg6
VIntellectual Structures
p743
sa(dp744
g2
V12/1/91
p745
sg4
S'../Ideas/JJDI6/jjd228.doc'
p746
sg6
VProgress Talk
p747
sa(dp748
g2
V1/9/92
p749
sg4
S'../Ideas/JJDI6/jjd2291.doc'
p750
sg6
V1990s Challenges
p751
sa(dp752
g2
V2/3/92
p753
sg4
S'../Ideas/JJDI6/jjd2292.doc'
p754
sg6
V1992 Focus Areas
p755
sa(dp756
g2
V2/9/92
p757
sg4
S'../Ideas/JJDI6/jjd221.doc'
p758
sg6
VCampaign Reorganization
p759
sa(dp760
g2
V2/12/92
p761
sg4
S'../Ideas/JJDI6/jjd239.doc'
p762
sg6
VTrip Ideas
p763
sa(dp764
g2
V3/24/92
p765
sg4
S'../Ideas/JJDI6/jjd229.doc'
p766
sg6
VReality Test
p767
sa(dp768
g2
V5/25/92
p769
sg4
S'../Ideas/JJDI6/jjd236.doc'
p770
sg6
VSummer Projects 1.1
p771
sa(dp772
g2
V5/25/92
p773
sg4
S'../Ideas/JJDI6/jjd237.doc'
p774
sg6
VSummer Projects 1.2
p775
sa(dp776
g2
V5/31/92
p777
sg4
S'../Ideas/JJDI6/jjd227.doc'
p778
sg6
VLeadership Turnover
p779
sa(dp780
g2
V5/20/92
p781
sg4
S'../Ideas/JJDI7/jjd242.doc'
p782
sg6
VDBAttacks
p783
sa(dp784
g2
V7/24/92
p785
sg4
S'../Ideas/JJDI7/jjd261.doc'
p786
sg6
VSummary1991-92
p787
sa(dp788
g2
V7/24/92
p789
sg4
S'../Ideas/JJDI7/jjd256.doc'
p790
sg6
VNSBExCom-7/92
p791
sa(dp792
g2
V7/26/92
p793
sg4
S'../Ideas/JJDI7/jjd246.xls'
p794
sg6
VEssaySpreadsheet
p795
sa(dp796
g2
V8/4/92
p797
sg4
S'../Ideas/JJDI7/jjd265.doc'
p798
sg6
VTripBits
p799
sa(dp800
g2
V8/24/92
p801
sg4
S'../Ideas/JJDI7/jjd248.doc'
p802
sg6
VFiveYearSummary
p803
sa(dp804
g2
V8/25/92
p805
sg4
S'../Ideas/JJDI7/jjd241.doc'
p806
sg6
VCECAssignments
p807
sa(dp808
g2
V8/28/92
p809
sg4
S'../Ideas/JJDI7/jjd250.doc'
p810
sg6
VJJD-FWW-GRW-WLH
p811
sa(dp812
g2
V8/29/92
p813
sg4
S'../Ideas/JJDI7/jjd243.doc'
p814
sg6
VDefenses
p815
sa(dp816
g2
V9/7/92
p817
sg4
S'../Ideas/JJDI7/jjd247.doc'
p818
sg6
VFallIssues-92
p819
sa(dp820
g2
V11/3/92
p821
sg4
S'../Ideas/JJDI7/jjd266.doc'
p822
sg6
VTripNotes(11/92)
p823
sa(dp824
g2
V11/13/92
p825
sg4
S'../Ideas/JJDI7/jjd258.doc'
p826
sg6
VSomeIdeas
p827
sa(dp828
g2
V11/22/92
p829
sg4
S'../Ideas/JJDI7/jjd252.doc'
p830
sg6
VLS&AII
p831
sa(dp832
g2
V11/27/92
p833
sg4
S'../Ideas/JJDI7/jjd249.doc'
p834
sg6
VGoals
p835
sa(dp836
g2
V12/6/92
p837
sg4
S'../Ideas/JJDI7/jjd245.doc'
p838
sg6
VEORetreatOutline
p839
sa(dp840
g2
V12/7/92
p841
sg4
S'../Ideas/JJDI7/jjd269.doc'
p842
sg6
VWinterTermChangeEfforts
p843
sa(dp844
g2
V12/7/92
p845
sg4
S'../Ideas/JJDI7/jjd254.doc'
p846
sg6
VMoverandShakerList
p847
sa(dp848
g2
V3/22/93
p849
sg4
S'../Ideas/JJDI7/jjd263.doc'
p850
sg6
VTheYearPast
p851
sa(dp852
g2
V4/13/93
p853
sg4
S'../Ideas/JJDI7/jjd240.doc'
p854
sg6
VAlumniRemarks12.0
p855
sa(dp856
g2
V4/24/93
p857
sg4
S'../Ideas/JJDI7/jjd259.doc'
p858
sg6
VStrategicEfforts(1993-98)
p859
sa(dp860
g2
V5/2/93
p861
sg4
S'../Ideas/JJDI7/jjd262.doc'
p862
sg6
VSummary1992-93
p863
sa(dp864
g2
V6/16/93
p865
sg4
S'../Ideas/JJDI7/jjd257.doc'
p866
sg6
VRestructuring
p867
sa(dp868
g2
V8/9/93
p869
sg4
S'../Ideas/JJDI7/jjd251.doc'
p870
sg6
VJS
p871
sa(dp872
g2
V10/25/93
p873
sg4
S'../Ideas/JJDI7/jjd260.doc'
p874
sg6
VStrategicNotes
p875
sa(dp876
g2
V11/12/93
p877
sg4
S'../Ideas/JJDI7/jjd253.doc'
p878
sg6
VMajorIssues-Trip
p879
sa(dp880
g2
V11/14/93
p881
sg4
S'../Ideas/JJDI7/jjd268.doc'
p882
sg6
VWAMPreambleNotes
p883
sa(dp884
g2
V11/30/93
p885
sg4
S'../Ideas/JJDI7/jjd264.doc'
p886
sg6
VTransformationPlan0.9
p887
sa(dp888
g2
V11/30/93
p889
sg4
S'../Ideas/JJDI7/jjd267.doc'
p890
sg6
VVision2017Addins
p891
sa(dp892
g2
V12/3/93
p893
sg4
S'../Ideas/JJDI7/jjd255.doc'
p894
sg6
VNewParadigms
p895
sa(dp896
g2
V12/9/93
p897
sg4
S'../Ideas/JJDI7/jjd244.doc'
p898
sg6
VEngFutures
p899
sa(dp900
g2
V7/20/91
p901
sg4
S'../Ideas/JJDI8/jjd286.ppt'
p902
sg6
VFutures/Missions-ii
p903
sa(dp904
g2
V6/16/93
p905
sg4
S'../Ideas/JJDI8/jjd300.doc'
p906
sg6
VRestructuring 1.2
p907
sa(dp908
g2
V8/3/93
p909
sg4
S'../Ideas/JJDI8/jjd279.doc'
p910
sg6
VCrazy Ideas
p911
sa(dp912
g2
V8/4/93
p913
sg4
S'../Ideas/JJDI8/jjd276.doc'
p914
sg6
VChrismas Letter
p915
sa(dp916
g2
V8/6/93
p917
sg4
S'../Ideas/JJDI8/jjd324.doc'
p918
sg6
VVisions of the University
p919
sa(dp920
g2
V8/8/93
p921
sg4
S'../Ideas/JJDI8/jjd270.doc'
p922
sg6
VAD Search
p923
sa(dp924
g2
V8/11/93
p925
sg4
S'../Ideas/JJDI8/jjd292.doc'
p926
sg6
VNotes on Women's Agenda
p927
sa(dp928
g2
V8/17/93
p929
sg4
S'../Ideas/JJDI8/jjd328.doc'
p930
sg6
VWomen's Agenda Text
p931
sa(dp932
g2
V8/20/93
p933
sg4
S'../Ideas/JJDI8/jjd327.doc'
p934
sg6
VWomen at Michigan
p935
sa(dp936
g2
V8/23/93
p937
sg4
S'../Ideas/JJDI8/jjd274.doc'
p938
sg6
VAthena Project 1.0
p939
sa(dp940
g2
V9/5/93
p941
sg4
S'../Ideas/JJDI8/jjd271.doc'
p942
sg6
VAD Search--The End Game
p943
sa(dp944
g2
V9/27/93
p945
sg4
S'../Ideas/JJDI8/jjd306.doc'
p946
sg6
VThe Year Ahead-1993-94
p947
sa(dp948
g2
V9/27/93
p949
sg4
S'../Ideas/JJDI8/jjd320.doc'
p950
sg6
VUniversity Visions Talk 1.0
p951
sa(dp952
g2
V9/28/93
p953
sg4
S'../Ideas/JJDI8/jjd288.doc'
p954
sg6
VInternal Communications
p955
sa(dp956
g2
V10/16/93
p957
sg4
S'../Ideas/JJDI8/jjd281.doc'
p958
sg6
VDC Trip Ideas
p959
sa(dp960
g2
V10/25/93
p961
sg4
S'../Ideas/JJDI8/jjd304.doc'
p962
sg6
VStrategic Notes (PP)
p963
sa(dp964
g2
V11/8/93
p965
sg4
S'../Ideas/JJDI8/jjd322.doc'
p966
sg6
VVision 2017 Speech
p967
sa(dp968
g2
V11/10/93
p969
sg4
S'../Ideas/JJDI8/jjd321.ppt'
p970
sg6
VVision 2017 Pres 1.0
p971
sa(dp972
g2
V11/30/93
p973
sg4
S'../Ideas/JJDI8/jjd317.doc'
p974
sg6
VTransformation Plan 1.0
p975
sa(dp976
g2
V12/29/93
p977
sg4
S'../Ideas/JJDI8/jjd273.doc'
p978
sg6
VAnn Arbor Leadership
p979
sa(dp980
g2
V1/5/94
p981
sg4
S'../Ideas/JJDI8/jjd318.doc'
p982
sg6
VTransformation Plan 1.1
p983
sa(dp984
g2
V1/7/94
p985
sg4
S'../Ideas/JJDI8/jjd315.ppt'
p986
sg6
VTransformation Course
p987
sa(dp988
g2
V1/7/94
p989
sg4
S'../Ideas/JJDI8/jjd283.doc'
p990
sg6
VEO Transformation Team
p991
sa(dp992
g2
V1/17/94
p993
sg4
S'../Ideas/JJDI8/jjd294.doc'
p994
sg6
VNotes-January-1994
p995
sa(dp996
g2
V1/17/94
p997
sg4
S'../Ideas/JJDI8/jjd289.doc'
p998
sg6
VJohn Forsyth-1/94
p999
sa(dp1000
g2
V1/18/94
p1001
sg4
S'../Ideas/JJDI8/jjd309.doc'
p1002
sg6
VTrans Init & Actions
p1003
sa(dp1004
g2
V1/18/94
p1005
sg4
S'../Ideas/JJDI8/jjd301.doc'
p1006
sg6
VShort Course Lesson #2
p1007
sa(dp1008
g2
V1/22/94
p1009
sg4
S'../Ideas/JJDI8/jjd299.doc'
p1010
sg6
VRegents Strategic
p1011
sa(dp1012
g2
V1/28/94
p1013
sg4
S'../Ideas/JJDI8/jjd319.doc'
p1014
sg6
VTrip Notes-1-94
p1015
sa(dp1016
g2
V2/2/94
p1017
sg4
S'../Ideas/JJDI8/jjd326.doc'
p1018
sg6
VWhite House Conference
p1019
sa(dp1020
g2
V2/6/94
p1021
sg4
S'../Ideas/JJDI8/jjd291.doc'
p1022
sg6
VNotes (Feb-94)
p1023
sa(dp1024
g2
V2/8/94
p1025
sg4
S'../Ideas/JJDI8/jjd272.doc'
p1026
sg6
VAnn Arbor Leaders Meeting
p1027
sa(dp1028
g2
V2/25/94
p1029
sg4
S'../Ideas/JJDI8/jjd307.ppt'
p1030
sg6
VTrans Course 2.0
p1031
sa(dp1032
g2
V2/25/94
p1033
sg4
S'../Ideas/JJDI8/jjd308.ppt'
p1034
sg6
VTrans Course 2.1
p1035
sa(dp1036
g2
V2/26/94
p1037
sg4
S'../Ideas/JJDI8/jjd290.doc'
p1038
sg6
VNCEA Notes
p1039
sa(dp1040
g2
V3/19/94
p1041
sg4
S'../Ideas/JJDI8/jjd303.doc'
p1042
sg6
VStrategic Initiatives
p1043
sa(dp1044
g2
V3/19/94
p1045
sg4
S'../Ideas/JJDI8/jjd305.doc'
p1046
sg6
VThe Visitors
p1047
sa(dp1048
g2
V3/20/94
p1049
sg4
S'../Ideas/JJDI8/jjd325.ppt'
p1050
sg6
VVisitor Presentation
p1051
sa(dp1052
g2
V3/29/94
p1053
sg4
S'../Ideas/JJDI8/jjd314.doc'
p1054
sg6
VTransformation Briefings
p1055
sa(dp1056
g2
V4/5/94
p1057
sg4
S'../Ideas/JJDI8/jjd277.doc'
p1058
sg6
VCommissions
p1059
sa(dp1060
g2
V4/5/94
p1061
sg4
S'../Ideas/JJDI8/jjd293.doc'
p1062
sg6
VNotes-April-94
p1063
sa(dp1064
g2
V4/7/94
p1065
sg4
S'../Ideas/JJDI8/jjd284.doc'
p1066
sg6
VExecutive Committee
p1067
sa(dp1068
g2
V5/7/94
p1069
sg4
S'../Ideas/JJDI8/jjd275.doc'
p1070
sg6
VCharges
p1071
sa(dp1072
g2
V5/7/94
p1073
sg4
S'../Ideas/JJDI8/jjd312.doc'
p1074
sg6
VTrans Team 2.0
p1075
sa(dp1076
g2
V5/16/94
p1077
sg4
S'../Ideas/JJDI8/jjd287.doc'
p1078
sg6
VHistory
p1079
sa(dp1080
g2
V5/23/94
p1081
sg4
S'../Ideas/JJDI8/jjd310.doc'
p1082
sg6
VTrans Init & Actions 2.0
p1083
sa(dp1084
g2
V5/23/94
p1085
sg4
S'../Ideas/JJDI8/jjd311.doc'
p1086
sg6
VTrans Init & Actions 2.1
p1087
sa(dp1088
g2
V6/12/94
p1089
sg4
S'../Ideas/JJDI8/jjd316.doc'
p1090
sg6
VTransformation Plan
p1091
sa(dp1092
g2
V6/17/94
p1093
sg4
S'../Ideas/JJDI8/jjd282.doc'
p1094
sg6
VEndowment Audit
p1095
sa(dp1096
g2
V6/20/94
p1097
sg4
S'../Ideas/JJDI8/jjd280.doc'
p1098
sg6
VDay in the Life
p1099
sa(dp1100
g2
V6/21/94
p1101
sg4
S'../Ideas/JJDI8/jjd278.doc'
p1102
sg6
VCornell Strategic Planning
p1103
sa(dp1104
g2
V7/6/94
p1105
sg4
S'../Ideas/JJDI8/jjd302.doc'
p1106
sg6
VSome July Catchup
p1107
sa(dp1108
g2
V7/14/94
p1109
sg4
S'../Ideas/JJDI8/jjd285.doc'
p1110
sg6
VFootball Weekend Notes
p1111
sa(dp1112
g2
V1/15/95
p1113
sg4
S'../Ideas/JJDI8/jjd298.doc'
p1114
sg6
VRegents Dinner Meeting
p1115
sa(dp1116
g2
V8/16/93
p1117
sg4
S'../Ideas/JJDI9/jjd353.doc'
p1118
sg6
VRegents History
p1119
sa(dp1120
g2
V4/9/94
p1121
sg4
S'../Ideas/JJDI9/jjd358.doc'
p1122
sg6
VTransformation Talk 1.2
p1123
sa(dp1124
g2
V8/10/94
p1125
sg4
S'../Ideas/JJDI9/jjd2290.doc'
p1126
sg6
V1994 Notes
p1127
sa(dp1128
g2
V8/23/94
p1129
sg4
S'../Ideas/JJDI9/jjd363.doc'
p1130
sg6
VWomen's Agenda-Fall
p1131
sa(dp1132
g2
V8/23/94
p1133
sg4
S'../Ideas/JJDI9/jjd362.doc'
p1134
sg6
VWomen's Agenda Progress
p1135
sa(dp1136
g2
V9/5/94
p1137
sg4
S'../Ideas/JJDI9/jjd332.doc'
p1138
sg6
VEO Discussions
p1139
sa(dp1140
g2
V9/5/94
p1141
sg4
S'../Ideas/JJDI9/jjd361.ppt'
p1142
sg6
VVision 2017
p1143
sa(dp1144
g2
V9/6/94
p1145
sg4
S'../Ideas/JJDI9/jjd339.ppt'
p1146
sg6
VKellogg Presentation
p1147
sa(dp1148
g2
V9/7/94
p1149
sg4
S'../Ideas/JJDI9/jjd341.ppt'
p1150
sg6
VKellogg Proposal 1.1
p1151
sa(dp1152
g2
V9/7/94
p1153
sg4
S'../Ideas/JJDI9/jjd340.ppt'
p1154
sg6
VKellogg Proposal
p1155
sa(dp1156
g2
V9/9/94
p1157
sg4
S'../Ideas/JJDI9/jjd342.doc'
p1158
sg6
VMawby
p1159
sa(dp1160
g2
V9/10/94
p1161
sg4
S'../Ideas/JJDI9/jjd359.doc'
p1162
sg6
VTransformation Team
p1163
sa(dp1164
g2
V9/20/94
p1165
sg4
S'../Ideas/JJDI9/jjd355.doc'
p1166
sg6
VRegents Meeting (9/94)
p1167
sa(dp1168
g2
V9/20/94
p1169
sg4
S'../Ideas/JJDI9/jjd360.doc'
p1170
sg6
VU Record Essays
p1171
sa(dp1172
g2
V9/25/94
p1173
sg4
S'../Ideas/JJDI9/jjd338.doc'
p1174
sg6
VJJD Capital Facilities
p1175
sa(dp1176
g2
V9/26/94
p1177
sg4
S'../Ideas/JJDI9/jjd329.doc'
p1178
sg6
VBHEF Project
p1179
sa(dp1180
g2
V9/26/94
p1181
sg4
S'../Ideas/JJDI9/jjd344.doc'
p1182
sg6
VMichigan Mandate Actions
p1183
sa(dp1184
g2
V10/1/94
p1185
sg4
S'../Ideas/JJDI9/jjd345.doc'
p1186
sg6
VMini-EOs-Oct-94
p1187
sa(dp1188
g2
V10/1/94
p1189
sg4
S'../Ideas/JJDI9/jjd348.doc'
p1190
sg6
VPresident's Team
p1191
sa(dp1192
g2
V10/7/94
p1193
sg4
S'../Ideas/JJDI9/jjd347.doc'
p1194
sg6
VPositions
p1195
sa(dp1196
g2
V10/9/94
p1197
sg4
S'../Ideas/JJDI9/jjd352.doc'
p1198
sg6
VRegents Assignments
p1199
sa(dp1200
g2
V10/13/94
p1201
sg4
S'../Ideas/JJDI9/jjd337.doc'
p1202
sg6
VFall-1994 Notes
p1203
sa(dp1204
g2
V11/17/94
p1205
sg4
S'../Ideas/JJDI9/jjd336.doc'
p1206
sg6
VEVP-Health Affairs
p1207
sa(dp1208
g2
V11/18/94
p1209
sg4
S'../Ideas/JJDI9/jjd335.doc'
p1210
sg6
VEO Organization
p1211
sa(dp1212
g2
V11/19/94
p1213
sg4
S'../Ideas/JJDI9/jjd333.doc'
p1214
sg6
VEO Old Org Chart
p1215
sa(dp1216
g2
V11/19/94
p1217
sg4
S'../Ideas/JJDI9/jjd334.doc'
p1218
sg6
VEO Org Chart
p1219
sa(dp1220
g2
V11/27/94
p1221
sg4
S'../Ideas/JJDI9/jjd350.doc'
p1222
sg6
VRCM Notes (Ed Whalen)
p1223
sa(dp1224
g2
V1/8/95
p1225
sg4
S'../Ideas/JJDI9/jjd343.doc'
p1226
sg6
VMeetings with Deans
p1227
sa(dp1228
g2
V1/21/95
p1229
sg4
S'../Ideas/JJDI9/jjd331.doc'
p1230
sg6
VEng Dean Candidates
p1231
sa(dp1232
g2
V1/23/95
p1233
sg4
S'../Ideas/JJDI9/jjd330.doc'
p1234
sg6
VContact List
p1235
sa(dp1236
g2
V2/5/95
p1237
sg4
S'../Ideas/JJDI9/jjd354.doc'
p1238
sg6
VRegents Matters
p1239
sa(dp1240
g2
V2/9/95
p1241
sg4
S'../Ideas/JJDI9/jjd357.doc'
p1242
sg6
VStrategic Initiatives
p1243
sa(dp1244
g2
V2/11/95
p1245
sg4
S'../Ideas/JJDI9/jjd346.doc'
p1246
sg6
VOld Agenda
p1247
sa(dp1248
g2
V3/26/95
p1249
sg4
S'../Ideas/JJDI9/jjd356.doc'
p1250
sg6
VState Strategy
p1251
sa(dp1252
g2
V7/17/95
p1253
sg4
S'../Ideas/JJDI9/jjd351.doc'
p1254
sg6
VRegent EO Letter
p1255
sa(dp1256
g2
V7/23/95
p1257
sg4
S'../Ideas/JJDI9/jjd349.doc'
p1258
sg6
VPresidential Succession
p1259
sa(dp1260
g2
V6/4/87
p1261
sg4
S'../Position/JJDPO1/jjd374.doc'
p1262
sg6
VMission-Long
p1263
sa(dp1264
g2
V9/8/87
p1265
sg4
S'../Position/JJDPO1/jjd375.doc'
p1266
sg6
VPlan-5.0
p1267
sa(dp1268
g2
V5/17/87
p1269
sg4
S'../Position/JJDPO1/jjd385.doc'
p1270
sg6
VSen Assem - 5/87
p1271
sa(dp1272
g2
V6/1/87
p1273
sg4
S'../Position/JJDPO1/jjd382.doc'
p1274
sg6
VMichigan Challenge-2.0
p1275
sa(dp1276
g2
V6/1/87
p1277
sg4
S'../Position/JJDPO1/jjd383.doc'
p1278
sg6
VMichigan-2.0
p1279
sa(dp1280
g2
V6/12/87
p1281
sg4
S'../Position/JJDPO1/jjd386.doc'
p1282
sg6
VUG Education 2.1
p1283
sa(dp1284
g2
V8/22/87
p1285
sg4
S'../Position/JJDPO1/jjd376.doc'
p1286
sg6
VAlumni 3.0
p1287
sa(dp1288
g2
V8/22/87
p1289
sg4
S'../Position/JJDPO1/jjd380.doc'
p1290
sg6
VHigher Ed-Short
p1291
sa(dp1292
g2
V8/27/87
p1293
sg4
S'../Position/JJDPO1/jjd379.doc'
p1294
sg6
VHigher Ed 1.1
p1295
sa(dp1296
g2
V9/20/87
p1297
sg4
S'../Position/JJDPO1/jjd381.doc'
p1298
sg6
VLeadership 1.4
p1299
sa(dp1300
g2
V10/25/87
p1301
sg4
S'../Position/JJDPO1/jjd378.doc'
p1302
sg6
VDiversity 2.2
p1303
sa(dp1304
g2
V11/12/87
p1305
sg4
S'../Position/JJDPO1/jjd384.doc'
p1306
sg6
VResident Talk
p1307
sa(dp1308
g2
V10/18/89
p1309
sg4
S'../Position/JJDPO1/jjd370.doc'
p1310
sg6
VCase Draft 2.1
p1311
sa(dp1312
g2
V10/18/89
p1313
sg4
S'../Position/JJDPO1/jjd371.doc'
p1314
sg6
VCase Statement
p1315
sa(dp1316
g2
V11/1/89
p1317
sg4
S'../Position/JJDPO1/jjd372.doc'
p1318
sg6
VCit. Res. Council
p1319
sa(dp1320
g2
V12/21/89
p1321
sg4
S'../Position/JJDPO1/jjd373.doc'
p1322
sg6
VEO Structure
p1323
sa(dp1324
g2
V1/18/90
p1325
sg4
S'../Position/JJDPO1/jjd417.doc'
p1326
sg6
VP.C. - Forums Speech 3.0
p1327
sa(dp1328
g2
V2/1/90
p1329
sg4
S'../Position/JJDPO1/jjd405.doc'
p1330
sg6
VCase Statement-II
p1331
sa(dp1332
g2
V2/3/90
p1333
sg4
S'../Position/JJDPO1/jjd415.doc'
p1334
sg6
VMinority Graphs
p1335
sa(dp1336
g2
V2/14/90
p1337
sg4
S'../Position/JJDPO1/jjd410.doc'
p1338
sg6
VMandate Progress
p1339
sa(dp1340
g2
V2/15/90
p1341
sg4
S'../Position/JJDPO1/jjd416.doc'
p1342
sg6
VMM Appendix A
p1343
sa(dp1344
g2
V2/15/90
p1345
sg4
S'../Position/JJDPO1/jjd426.doc'
p1346
sg6
VScience Education 3.0
p1347
sa(dp1348
g2
V2/19/90
p1349
sg4
S'../Position/JJDPO1/jjd422.doc'
p1350
sg6
VPublic Education 3.0
p1351
sa(dp1352
g2
V2/28/90
p1353
sg4
S'../Position/JJDPO1/jjd402.doc'
p1354
sg6
VCaltech Commencement 2.0
p1355
sa(dp1356
g2
V3/1/90
p1357
sg4
S'../Position/JJDPO1/jjd432.doc'
p1358
sg6
VUM Inauguration 3.0
p1359
sa(dp1360
g2
V3/1/90
p1361
sg4
S'../Position/JJDPO1/jjd406.doc'
p1362
sg6
VCongressional Breakfast 3.0
p1363
sa(dp1364
g2
V3/7/90
p1365
sg4
S'../Position/JJDPO1/jjd431.doc'
p1366
sg6
VUM Commencement 3.0
p1367
sa(dp1368
g2
V3/8/90
p1369
sg4
S'../Position/JJDPO1/jjd428.doc'
p1370
sg6
VState of Univ l988 2.0
p1371
sa(dp1372
g2
V3/14/90
p1373
sg4
S'../Position/JJDPO1/jjd429.doc'
p1374
sg6
VState of Univ1989 2.0
p1375
sa(dp1376
g2
V3/20/90
p1377
sg4
S'../Position/JJDPO1/jjd419.doc'
p1378
sg6
VPhi Beta Kappa 2.0
p1379
sa(dp1380
g2
V3/29/90
p1381
sg4
S'../Position/JJDPO1/jjd434.doc'
p1382
sg6
VWomens' Agenda 2.0
p1383
sa(dp1384
g2
V4/8/90
p1385
sg4
S'../Position/JJDPO1/jjd430.doc'
p1386
sg6
VTuition Appendix
p1387
sa(dp1388
g2
V4/9/90
p1389
sg4
S'../Position/JJDPO1/jjd400.doc'
p1390
sg6
VAppropriations 3.0
p1391
sa(dp1392
g2
V4/12/90
p1393
sg4
S'../Position/JJDPO1/jjd412.doc'
p1394
sg6
VMichigan Economy 3.0
p1395
sa(dp1396
g2
V4/12/90
p1397
sg4
S'../Position/JJDPO1/jjd411.doc'
p1398
sg6
VMichigan Economy 2.0
p1399
sa(dp1400
g2
V4/18/90
p1401
sg4
S'../Position/JJDPO1/jjd433.doc'
p1402
sg6
VUMS
p1403
sa(dp1404
g2
V4/18/90
p1405
sg4
S'../Position/JJDPO1/jjd403.doc'
p1406
sg6
VCampaign Descriptions
p1407
sa(dp1408
g2
V5/1/90
p1409
sg4
S'../Position/JJDPO1/jjd425.doc'
p1410
sg6
VRhodes Intro
p1411
sa(dp1412
g2
V5/7/90
p1413
sg4
S'../Position/JJDPO1/jjd437.ppt'
p1414
sg6
VCampaign GoNoGo
p1415
sa(dp1416
g2
V5/8/90
p1417
sg4
S'../Position/JJDPO1/jjd399.doc'
p1418
sg6
VAFFIRMATIVE ACTION COORD
p1419
sa(dp1420
g2
V5/13/90
p1421
sg4
S'../Position/JJDPO1/jjd421.doc'
p1422
sg6
VPresidents Weekend-1990
p1423
sa(dp1424
g2
V5/16/90
p1425
sg4
S'../Position/JJDPO1/jjd420.doc'
p1426
sg6
VPres Week-1990-I
p1427
sa(dp1428
g2
V5/23/90
p1429
sg4
S'../Position/JJDPO1/jjd413.doc'
p1430
sg6
VMichigan Rankings
p1431
sa(dp1432
g2
V5/28/90
p1433
sg4
S'../Position/JJDPO1/jjd392.xls'
p1434
sg6
VTuition Cum
p1435
sa(dp1436
g2
V5/28/90
p1437
sg4
S'../Position/JJDPO1/jjd394.xls'
p1438
sg6
VTuition Inc
p1439
sa(dp1440
g2
V5/29/90
p1441
sg4
S'../Position/JJDPO1/jjd414.doc'
p1442
sg6
VMichigan Rankings II
p1443
sa(dp1444
g2
V6/11/90
p1445
sg4
S'../Position/JJDPO1/jjd435.ppt'
p1446
sg6
VNSB-6/90
p1447
sa(dp1448
g2
V8/15/90
p1449
sg4
S'../Position/JJDPO1/jjd409.doc'
p1450
sg6
VHartford Sermon
p1451
sa(dp1452
g2
V10/3/90
p1453
sg4
S'../Position/JJDPO1/jjd398.doc'
p1454
sg6
VA.A. Chamber
p1455
sa(dp1456
g2
V10/9/90
p1457
sg4
S'../Position/JJDPO1/jjd408.doc'
p1458
sg6
VEthnic Heritage Speech
p1459
sa(dp1460
g2
V10/27/90
p1461
sg4
S'../Position/JJDPO1/jjd424.doc'
p1462
sg6
VRackham Admissions
p1463
sa(dp1464
g2
V10/28/90
p1465
sg4
S'../Position/JJDPO1/jjd396.doc'
p1466
sg6
VMichigan Mandate
p1467
sa(dp1468
g2
V11/11/90
p1469
sg4
S'../Position/JJDPO1/jjd423.doc'
p1470
sg6
VPublic Education 4.0
p1471
sa(dp1472
g2
V12/20/90
p1473
sg4
S'../Position/JJDPO1/jjd427.doc'
p1474
sg6
VSILS
p1475
sa(dp1476
g2
V12/26/90
p1477
sg4
S'../Position/JJDPO1/jjd407.doc'
p1478
sg6
VCost, Price, Value 1.5
p1479
sa(dp1480
g2
V1/9/91
p1481
sg4
S'../Position/JJDPO1/jjd441.doc'
p1482
sg6
Vl990 State Univ.
p1483
sa(dp1484
g2
V1/9/91
p1485
sg4
S'../Position/JJDPO1/jjd453.doc'
p1486
sg6
VState of Univ 1990 1.0
p1487
sa(dp1488
g2
V2/12/91
p1489
sg4
S'../Position/JJDPO1/jjd452.doc'
p1490
sg6
VSports 1.2
p1491
sa(dp1492
g2
S'2/14/91'
p1493
sg4
S'../Position/JJDPO1/jjd456.doc'
p1494
sg6
S'Teaching and Research 2.1'
p1495
sa(dp1496
g2
V5/3/91
p1497
sg4
S'../Position/JJDPO1/jjd455.doc'
p1498
sg6
VStrategic Marketing Plan
p1499
sa(dp1500
g2
V5/16/91
p1501
sg4
S'../Position/JJDPO1/jjd445.doc'
p1502
sg6
VMICH MAND 3YR UPDATE 1.0
p1503
sa(dp1504
g2
V5/30/91
p1505
sg4
S'../Position/JJDPO1/jjd448.doc'
p1506
sg6
VPC Address 1.1
p1507
sa(dp1508
g2
V6/6/91
p1509
sg4
S'../Position/JJDPO1/jjd442.doc'
p1510
sg6
VMandate History 1.1
p1511
sa(dp1512
g2
V6/6/91
p1513
sg4
S'../Position/JJDPO1/jjd443.doc'
p1514
sg6
VMandate History 1.2
p1515
sa(dp1516
g2
V8/29/91
p1517
sg4
S'../Position/JJDPO1/jjd446.doc'
p1518
sg6
VMM Update 1.3
p1519
sa(dp1520
g2
V9/4/91
p1521
sg4
S'../Position/JJDPO1/jjd447.doc'
p1522
sg6
VMM Update letter 1.4
p1523
sa(dp1524
g2
V10/29/91
p1525
sg4
S'../Position/JJDPO1/jjd451.doc'
p1526
sg6
VPres. Weekend lunch 9/27
p1527
sa(dp1528
g2
V10/30/91
p1529
sg4
S'../Position/JJDPO1/jjd450.doc'
p1530
sg6
VPres. Weekend finale
p1531
sa(dp1532
g2
V10/31/91
p1533
sg4
S'../Position/JJDPO1/jjd440.doc'
p1534
sg6
VInvestment 1.0 (A2 CC)
p1535
sa(dp1536
g2
V10/31/91
p1537
sg4
S'../Position/JJDPO1/jjd439.doc'
p1538
sg6
VInvestment 1.0
p1539
sa(dp1540
g2
V11/5/91
p1541
sg4
S'../Position/JJDPO1/jjd449.doc'
p1542
sg6
VPlymouth Alumni
p1543
sa(dp1544
g2
V11/13/91
p1545
sg4
S'../Position/JJDPO1/jjd438.doc'
p1546
sg6
VGUIR Presentation 1.0
p1547
sa(dp1548
g2
V12/3/91
p1549
sg4
S'../Position/JJDPO1/jjd454.doc'
p1550
sg6
VState of Univ 1991 1.0
p1551
sa(dp1552
g2
V12/11/91
p1553
sg4
S'../Position/JJDPO1/jjd444.doc'
p1554
sg6
VMET Observations
p1555
sa(dp1556
g2
V1/28/92
p1557
sg4
S'../Position/JJDPO2/jjd471.doc'
p1558
sg6
VSigma Xi
p1559
sa(dp1560
g2
V2/5/92
p1561
sg4
S'../Position/JJDPO2/jjd469.doc'
p1562
sg6
VRotary Club - Jan. 24
p1563
sa(dp1564
g2
V3/8/92
p1565
sg4
S'../Position/JJDPO2/jjd473.doc'
p1566
sg6
VThemes for 175th
p1567
sa(dp1568
g2
V3/15/92
p1569
sg4
S'../Position/JJDPO2/jjd470.doc'
p1570
sg6
VSenate Hearing 2.1
p1571
sa(dp1572
g2
V3/16/92
p1573
sg4
S'../Position/JJDPO2/jjd472.doc'
p1574
sg6
VTechnology Policy Text
p1575
sa(dp1576
g2
V3/17/92
p1577
sg4
S'../Position/JJDPO2/jjd474.doc'
p1578
sg6
VTV-Students
p1579
sa(dp1580
g2
V3/24/92
p1581
sg4
S'../Position/JJDPO2/jjd461.doc'
p1582
sg6
VJJD Essay (Research) 1.0
p1583
sa(dp1584
g2
V3/24/92
p1585
sg4
S'../Position/JJDPO2/jjd462.doc'
p1586
sg6
VJJD Essay (Research) 1.3
p1587
sa(dp1588
g2
V4/9/92
p1589
sg4
S'../Position/JJDPO2/jjd465.doc'
p1590
sg6
VNet '92
p1591
sa(dp1592
g2
V4/22/92
p1593
sg4
S'../Position/JJDPO2/jjd466.doc'
p1594
sg6
VOpEd Pipeline 2.2
p1595
sa(dp1596
g2
V5/30/92
p1597
sg4
S'../Position/JJDPO2/jjd467.doc'
p1598
sg6
VPosition memo
p1599
sa(dp1600
g2
V5/31/92
p1601
sg4
S'../Position/JJDPO2/jjd460.doc'
p1602
sg6
VITIC Statement
p1603
sa(dp1604
g2
V8/3/92
p1605
sg4
S'../Position/JJDPO2/jjd468.doc'
p1606
sg6
VPublic Service 3.1
p1607
sa(dp1608
g2
V8/12/92
p1609
sg4
S'../Position/JJDPO2/jjd458.doc'
p1610
sg6
VCASE 1.0
p1611
sa(dp1612
g2
V9/10/92
p1613
sg4
S'../Position/JJDPO2/jjd464.doc'
p1614
sg6
VKickoff 1.0
p1615
sa(dp1616
g2
V10/27/92
p1617
sg4
S'../Position/JJDPO2/jjd463.doc'
p1618
sg6
VJJD Essay (Sports) 2.3
p1619
sa(dp1620
g2
V12/4/92
p1621
sg4
S'../Position/JJDPO2/jjd459.doc'
p1622
sg6
VGrand Rapids Rotary
p1623
sa(dp1624
g2
V1/6/93
p1625
sg4
S'../Position/JJDPO2/jjd482.doc'
p1626
sg6
VRedrawing Boundaries 3.0
p1627
sa(dp1628
g2
V1/6/93
p1629
sg4
S'../Position/JJDPO2/jjd483.doc'
p1630
sg6
VRedrawing Boundaries 3.2
p1631
sa(dp1632
g2
S'1/6/93'
p1633
sg4
S'../Position/JJDPO2/jjd485.doc'
p1634
sg6
S'State of Univ 1992 3.1'
p1635
sa(dp1636
g2
V1/7/93
p1637
sg4
S'../Position/JJDPO2/jjd479.doc'
p1638
sg6
VGateway College 2.0
p1639
sa(dp1640
g2
V1/7/93
p1641
sg4
S'../Position/JJDPO2/jjd488.doc'
p1642
sg6
VStrategic Planning 1.0
p1643
sa(dp1644
g2
V2/5/93
p1645
sg4
S'../Position/JJDPO2/jjd477.doc'
p1646
sg6
VFinancial Aid 1.1
p1647
sa(dp1648
g2
V2/5/93
p1649
sg4
S'../Position/JJDPO2/jjd478.doc'
p1650
sg6
VFinancial Aid 1.2
p1651
sa(dp1652
g2
V2/12/93
p1653
sg4
S'../Position/JJDPO2/jjd484.doc'
p1654
sg6
VScientific Integrity 1.3
p1655
sa(dp1656
g2
V2/12/93
p1657
sg4
S'../Position/JJDPO2/jjd489.doc'
p1658
sg6
VUniv Enterprise Zone 1.2
p1659
sa(dp1660
g2
V2/19/93
p1661
sg4
S'../Position/JJDPO2/jjd476.doc'
p1662
sg6
VEnterprise Zone 1.3
p1663
sa(dp1664
g2
V4/25/93
p1665
sg4
S'../Position/JJDPO2/jjd486.doc'
p1666
sg6
VStrategic History 2.0
p1667
sa(dp1668
g2
V4/25/93
p1669
sg4
S'../Position/JJDPO2/jjd487.doc'
p1670
sg6
VStrategic History 2.1
p1671
sa(dp1672
g2
V6/8/93
p1673
sg4
S'../Position/JJDPO2/jjd475.doc'
p1674
sg6
VChina Odyssey
p1675
sa(dp1676
g2
V10/27/93
p1677
sg4
S'../Position/JJDPO2/jjd480.doc'
p1678
sg6
VJJD Essay (Sports) 2.4
p1679
sa(dp1680
g2
V12/16/93
p1681
sg4
S'../Position/JJDPO2/jjd490.doc'
p1682
sg6
VVision 2000 1.82
p1683
sa(dp1684
g2
V1/25/94
p1685
sg4
S'../Position/JJDPO2/jjd494.doc'
p1686
sg6
VBasic vs. Applied Research 1.1
p1687
sa(dp1688
g2
V2/2/94
p1689
sg4
S'../Position/JJDPO2/jjd506.doc'
p1690
sg6
VWhite House-ST/JJD
p1691
sa(dp1692
g2
V2/2/94
p1693
sg4
S'../Position/JJDPO2/jjd505.doc'
p1694
sg6
VWhite House Draft 2
p1695
sa(dp1696
g2
V2/28/94
p1697
sg4
S'../Position/JJDPO2/jjd496.doc'
p1698
sg6
VNat Econ Council
p1699
sa(dp1700
g2
V3/2/94
p1701
sg4
S'../Position/JJDPO2/jjd502.doc'
p1702
sg6
VState of Univ 1993 1.1
p1703
sa(dp1704
g2
V3/2/94
p1705
sg4
S'../Position/JJDPO2/jjd501.doc'
p1706
sg6
VState of Univ 1993
p1707
sa(dp1708
g2
V3/7/94
p1709
sg4
S'../Position/JJDPO2/jjd510.doc'
p1710
sg6
VWomen Ex Sum 3.2
p1711
sa(dp1712
g2
V3/8/94
p1713
sg4
S'../Position/JJDPO2/jjd507.doc'
p1714
sg6
VWomen 3.2
p1715
sa(dp1716
g2
V3/20/94
p1717
sg4
S'../Position/JJDPO2/jjd498.doc'
p1718
sg6
VSports-Falls Response-Mild
p1719
sa(dp1720
g2
V3/20/94
p1721
sg4
S'../Position/JJDPO2/jjd497.doc'
p1722
sg6
VSports-Falls Response-Hot
p1723
sa(dp1724
g2
V3/28/94
p1725
sg4
S'../Position/JJDPO2/jjd504.doc'
p1726
sg6
VTransformation CIC 2.2
p1727
sa(dp1728
g2
V3/28/94
p1729
sg4
S'../Position/JJDPO2/jjd503.doc'
p1730
sg6
VTransformation CIC 2.1
p1731
sa(dp1732
g2
V3/31/94
p1733
sg4
S'../Position/JJDPO2/jjd508.doc'
p1734
sg6
VWomen 3.3
p1735
sa(dp1736
g2
V4/8/94
p1737
sg4
S'../Position/JJDPO2/jjd509.doc'
p1738
sg6
VWomen 3.4
p1739
sa(dp1740
g2
V5/23/94
p1741
sg4
S'../Position/JJDPO2/jjd493.doc'
p1742
sg6
VASIS Talk
p1743
sa(dp1744
g2
V6/29/94
p1745
sg4
S'../Position/JJDPO2/jjd491.doc'
p1746
sg6
VAgenda 1.2
p1747
sa(dp1748
g2
V7/20/94
p1749
sg4
S'../Position/JJDPO2/jjd492.doc'
p1750
sg6
VAgenda 1.31
p1751
sa(dp1752
g2
V9/11/94
p1753
sg4
S'../Position/JJDPO2/jjd495.doc'
p1754
sg6
VKellogg Letter Proposal
p1755
sa(dp1756
g2
V10/23/94
p1757
sg4
S'../Position/JJDPO2/jjd500.doc'
p1758
sg6
VStanford Group Synopsis
p1759
sa(dp1760
g2
V12/18/94
p1761
sg4
S'../Position/JJDPO2/jjd499.doc'
p1762
sg6
VStanford Forum
p1763
sa(dp1764
g2
V11/10/56
p1765
sg4
S'../Strategy/JJDST1/jjd1623.doc'
p1766
sg6
VTransformation Text 1.5
p1767
sa(dp1768
g2
V11/10/56
p1769
sg4
S'../Strategy/JJDST1/jjd1649.doc'
p1770
sg6
VTransformation Text 1.6
p1771
sa(dp1772
g2
V1/14/87
p1773
sg4
S'../Strategy/JJDST1/jjd1598.doc'
p1774
sg6
VEnv Ass 5.0
p1775
sa(dp1776
g2
V1/15/87
p1777
sg4
S'../Strategy/JJDST1/jjd1597.doc'
p1778
sg6
VD'Arms 5.0
p1779
sa(dp1780
g2
V6/4/87
p1781
sg4
S'../Strategy/JJDST1/jjd1589.doc'
p1782
sg6
VMission-Long
p1783
sa(dp1784
g2
V10/14/87
p1785
sg4
S'../Strategy/JJDST1/jjd1600.doc'
p1786
sg6
VPlan-5.0
p1787
sa(dp1788
g2
V2/22/89
p1789
sg4
S'../Strategy/JJDST1/jjd1604.doc'
p1790
sg6
VSPT-2/89
p1791
sa(dp1792
g2
V2/22/89
p1793
sg4
S'../Strategy/JJDST1/jjd1605.doc'
p1794
sg6
VSPT-Issues
p1795
sa(dp1796
g2
V2/22/89
p1797
sg4
S'../Strategy/JJDST1/jjd1606.doc'
p1798
sg6
VSPT-Opportunities
p1799
sa(dp1800
g2
V3/7/89
p1801
sg4
S'../Strategy/JJDST1/jjd1603.doc'
p1802
sg6
VLinks-Problems
p1803
sa(dp1804
g2
V3/13/89
p1805
sg4
S'../Strategy/JJDST1/jjd1602.ppt'
p1806
sg6
VCampaign Ideas 1.0
p1807
sa(dp1808
g2
V10/5/90
p1809
sg4
S'../Strategy/JJDST1/jjd1612.doc'
p1810
sg6
VStrategic Plan 1.2
p1811
sa(dp1812
g2
V10/5/90
p1813
sg4
S'../Strategy/JJDST1/jjd1611.doc'
p1814
sg6
VObj & Pri
p1815
sa(dp1816
g2
V10/5/90
p1817
sg4
S'../Strategy/JJDST1/jjd1613.doc'
p1818
sg6
VUG Initiative
p1819
sa(dp1820
g2
V10/5/90
p1821
sg4
S'../Strategy/JJDST1/jjd1609.doc'
p1822
sg6
VGoals and Values
p1823
sa(dp1824
g2
V10/5/90
p1825
sg4
S'../Strategy/JJDST1/jjd1610.doc'
p1826
sg6
VOAA Summary 1987-88
p1827
sa(dp1828
g2
V10/5/90
p1829
sg4
S'../Strategy/JJDST1/jjd1608.doc'
p1830
sg6
VDiversity Agenda 1.2
p1831
sa(dp1832
g2
V10/5/90
p1833
sg4
S'../Strategy/JJDST1/jjd1607.doc'
p1834
sg6
VDiversity Agenda
p1835
sa(dp1836
g2
V12/25/94
p1837
sg4
S'../Strategy/JJDST1/jjd1621.ppt'
p1838
sg6
VTrans Course 2
p1839
sa(dp1840
g2
V4/9/94
p1841
sg4
S'../Strategy/JJDST1/jjd1615.doc'
p1842
sg6
VITIC Groundbreaking
p1843
sa(dp1844
g2
V5/7/94
p1845
sg4
S'../Strategy/JJDST1/jjd1622.ppt'
p1846
sg6
VTrans Team 2.0
p1847
sa(dp1848
g2
V5/23/94
p1849
sg4
S'../Strategy/JJDST1/jjd1614.doc'
p1850
sg6
VASIS Talk
p1851
sa(dp1852
g2
V7/20/94
p1853
sg4
S'../Strategy/JJDST1/jjd1618.doc'
p1854
sg6
VStrategic Agenda 1.31
p1855
sa(dp1856
g2
V9/14/94
p1857
sg4
S'../Strategy/JJDST1/jjd1616.doc'
p1858
sg6
VKellogg 3
p1859
sa(dp1860
g2
V11/10/94
p1861
sg4
S'../Strategy/JJDST1/jjd1619.ppt'
p1862
sg6
VStrategic Evolution
p1863
sa(dp1864
g2
V11/10/94
p1865
sg4
S'../Strategy/JJDST1/jjd1620.ppt'
p1866
sg6
VStrategic Evolution-Old
p1867
sa(dp1868
g2
V12/18/94
p1869
sg4
S'../Strategy/JJDST1/jjd1617.doc'
p1870
sg6
VStanford Forum
p1871
sa(dp1872
g2
V1/9/95
p1873
sg4
S'../Strategy/JJDST1/jjd1645.doc'
p1874
sg6
VStrategic Plan 2017 1.2
p1875
sa(dp1876
g2
V1/12/95
p1877
sg4
S'../Strategy/JJDST1/jjd1646.doc'
p1878
sg6
VStrategic Planning List
p1879
sa(dp1880
g2
V2/3/95
p1881
sg4
S'../Strategy/JJDST1/jjd1630.doc'
p1882
sg6
VMission Statement 1.2
p1883
sa(dp1884
g2
V2/3/95
p1885
sg4
S'../Strategy/JJDST1/jjd1631.ppt'
p1886
sg6
VMission Statement 1.4
p1887
sa(dp1888
g2
V2/3/95
p1889
sg4
S'../Strategy/JJDST1/jjd1643.doc'
p1890
sg6
VStrategic Plan 1.5
p1891
sa(dp1892
g2
S'2/9/95'
p1893
sg4
S'../Strategy/JJDST1/jjd1641.doc'
p1894
sg6
S'Strategic Initiatives and...'
p1895
sa(dp1896
g2
V2/20/95
p1897
sg4
S'../Strategy/JJDST1/jjd1651.doc'
p1898
sg6
VVisitors Summary1.4
p1899
sa(dp1900
g2
V4/2/95
p1901
sg4
S'../Strategy/JJDST1/jjd1627.ppt'
p1902
sg6
VAdmin Restruc
p1903
sa(dp1904
g2
V7/16/95
p1905
sg4
S'../Strategy/JJDST1/jjd1636.doc'
p1906
sg6
VRegents Tuition Letter
p1907
sa(dp1908
g2
V8/12/95
p1909
sg4
S'../Strategy/JJDST1/jjd1632.doc'
p1910
sg6
VPlan Exec Sum 1.5
p1911
sa(dp1912
g2
V8/23/95
p1913
sg4
S'../Strategy/JJDST1/jjd1635.doc'
p1914
sg6
VRegent Agenda
p1915
sa(dp1916
g2
V8/29/95
p1917
sg4
S'../Strategy/JJDST1/jjd1648.doc'
p1918
sg6
VTransformation Talk 1.5
p1919
sa(dp1920
g2
V9/3/95
p1921
sg4
S'../Strategy/JJDST1/jjd1640.ppt'
p1922
sg6
VStrategic Evolution-Addins
p1923
sa(dp1924
g2
V9/4/95
p1925
sg4
S'../Strategy/JJDST1/jjd1628.ppt'
p1926
sg6
VEO Kickoff
p1927
sa(dp1928
g2
V9/6/95
p1929
sg4
S'../Strategy/JJDST1/jjd1639.doc'
p1930
sg6
VState of Univ 1995
p1931
sa(dp1932
g2
V9/14/95
p1933
sg4
S'../Strategy/JJDST1/jjd1637.ppt'
p1934
sg6
VSenate Assembly
p1935
sa(dp1936
g2
V10/30/95
p1937
sg4
S'../Strategy/JJDST1/jjd1624.doc'
p1938
sg6
VAccomplishments
p1939
sa(dp1940
g2
V10/30/95
p1941
sg4
S'../Strategy/JJDST1/jjd1647.doc'
p1942
sg6
VThe Decade Report 1.0
p1943
sa(dp1944
g2
V11/7/95
p1945
sg4
S'../Strategy/JJDST1/jjd1638.doc'
p1946
sg6
VSports 3.0
p1947
sa(dp1948
g2
V11/17/95
p1949
sg4
S'../Strategy/JJDST1/jjd1634.doc'
p1950
sg6
VProduction Schedule
p1951
sa(dp1952
g2
V11/18/95
p1953
sg4
S'../Strategy/JJDST1/jjd1629.doc'
p1954
sg6
VFree Press Op-Ed
p1955
sa(dp1956
g2
V11/22/95
p1957
sg4
S'../Strategy/JJDST1/jjd1650.doc'
p1958
sg6
VUniversity Organization
p1959
sa(dp1960
g2
V11/24/95
p1961
sg4
S'../Strategy/JJDST1/jjd1642.doc'
p1962
sg6
VStrategic Lists
p1963
sa(dp1964
g2
V11/24/95
p1965
sg4
S'../Strategy/JJDST1/jjd1633.doc'
p1966
sg6
VPossible Actions
p1967
sa(dp1968
g2
V1/11/96
p1969
sg4
S'../Strategy/JJDST1/jjd1665.doc'
p1970
sg6
VNew University Project
p1971
sa(dp1972
g2
V1/17/96
p1973
sg4
S'../Strategy/JJDST1/jjd1660.doc'
p1974
sg6
VMillennium Project Prop
p1975
sa(dp1976
g2
V1/22/96
p1977
sg4
S'../Strategy/JJDST1/jjd1664.doc'
p1978
sg6
VMillennium-Contract
p1979
sa(dp1980
g2
V1/29/96
p1981
sg4
S'../Strategy/JJDST1/jjd1658.doc'
p1982
sg6
VMillennium Design
p1983
sa(dp1984
g2
V2/13/96
p1985
sg4
S'../Strategy/JJDST1/jjd1656.doc'
p1986
sg6
VLapse Funds
p1987
sa(dp1988
g2
V2/28/96
p1989
sg4
S'../Strategy/JJDST1/jjd1654.xls'
p1990
sg6
VDecade Changes
p1991
sa(dp1992
g2
V3/22/96
p1993
sg4
S'../Strategy/JJDST1/jjd1657.doc'
p1994
sg6
VMilestones
p1995
sa(dp1996
g2
V4/3/96
p1997
sg4
S'../Strategy/JJDST1/jjd1666.doc'
p1998
sg6
VOperating Manual
p1999
sa(dp2000
g2
V5/10/96
p2001
sg4
S'../Strategy/JJDST1/jjd1663.doc'
p2002
sg6
VMillennium Text
p2003
sa(dp2004
g2
V5/13/96
p2005
sg4
S'../Strategy/JJDST1/jjd1653.doc'
p2006
sg6
VMillennium Project List
p2007
sa(dp2008
g2
V5/12/87
p2009
sg4
S'../Write/JJDW1/jjd1683.doc'
p2010
sg6
VRegents Handouts
p2011
sa(dp2012
g2
V5/13/87
p2013
sg4
S'../Write/JJDW1/jjd1684.doc'
p2014
sg6
VRegents Handouts-II
p2015
sa(dp2016
g2
V8/27/87
p2017
sg4
S'../Write/JJDW1/jjd1674.doc'
p2018
sg6
VDiversity Retreat
p2019
sa(dp2020
g2
V9/2/87
p2021
sg4
S'../Write/JJDW1/jjd1673.doc'
p2022
sg6
VDiversity Overheads
p2023
sa(dp2024
g2
V9/28/87
p2025
sg4
S'../Write/JJDW1/jjd2293.doc'
p2026
sg6
V25 Year
p2027
sa(dp2028
g2
V11/6/87
p2029
sg4
S'../Write/JJDW1/jjd1676.doc'
p2030
sg6
VH&V-11/10
p2031
sa(dp2032
g2
V11/26/87
p2033
sg4
S'../Write/JJDW1/jjd1681.doc'
p2034
sg6
VRacism Retreat-12/87
p2035
sa(dp2036
g2
V1/12/88
p2037
sg4
S'../Write/JJDW1/jjd1686.doc'
p2038
sg6
VRegents-3/87
p2039
sa(dp2040
g2
V1/12/88
p2041
sg4
S'../Write/JJDW1/jjd1685.doc'
p2042
sg6
VRegents-1/88
p2043
sa(dp2044
g2
V1/24/88
p2045
sg4
S'../Write/JJDW1/jjd1672.doc'
p2046
sg6
VDevelopment Priorities
p2047
sa(dp2048
g2
V2/2/88
p2049
sg4
S'../Write/JJDW1/jjd1682.doc'
p2050
sg6
VRacism-II
p2051
sa(dp2052
g2
V6/17/88
p2053
sg4
S'../Write/JJDW1/jjd1678.doc'
p2054
sg6
VLuggage Tags
p2055
sa(dp2056
g2
V7/11/88
p2057
sg4
S'../Write/JJDW1/jjd1675.doc'
p2058
sg6
VFootball Wk-7/11
p2059
sa(dp2060
g2
V7/11/88
p2061
sg4
S'../Write/JJDW1/jjd1688.doc'
p2062
sg6
VShortt-7/11
p2063
sa(dp2064
g2
V7/12/88
p2065
sg4
S'../Write/JJDW1/jjd1669.doc'
p2066
sg6
V88-89 Budget Draft #2
p2067
sa(dp2068
g2
V8/21/88
p2069
sg4
S'../Write/JJDW1/jjd1677.doc'
p2070
sg6
VJim' 8/21/88
p2071
sa(dp2072
g2
V8/24/88
p2073
sg4
S'../Write/JJDW1/jjd1679.doc'
p2074
sg6
VPoster Titles
p2075
sa(dp2076
g2
V9/7/88
p2077
sg4
S'../Write/JJDW1/jjd1687.doc'
p2078
sg6
VRoosevelt
p2079
sa(dp2080
g2
V10/8/88
p2081
sg4
S'../Write/JJDW1/jjd1690.doc'
p2082
sg6
VYale-10/88
p2083
sa(dp2084
g2
V9/18/96
p2085
sg4
S'../Write/JJDW10/jjd2278.doc'
p2086
sg6
VSloan Review
p2087
sa(dp2088
g2
V9/19/96
p2089
sg4
S'../Write/JJDW10/jjd2275.doc'
p2090
sg6
VHigher Ed Statistics
p2091
sa(dp2092
g2
V10/18/96
p2093
sg4
S'../Write/JJDW10/jjd2276.doc'
p2094
sg6
VJJD Let to Pres
p2095
sa(dp2096
g2
V2/3/97
p2097
sg4
S'../Write/JJDW10/jjd2279.doc'
p2098
sg6
VWSU Pres Nom
p2099
sa(dp2100
g2
V2/13/97
p2101
sg4
S'../Write/JJDW10/jjd2273.doc'
p2102
sg6
VDutcher
p2103
sa(dp2104
g2
V2/18/97
p2105
sg4
S'../Write/JJDW10/jjd2277.doc'
p2106
sg6
VLewis Reference
p2107
sa(dp2108
g2
V2/20/97
p2109
sg4
S'../Write/JJDW10/jjd2272.doc'
p2110
sg6
VChang-Lin Tien
p2111
sa(dp2112
g2
V3/19/97
p2113
sg4
S'../Write/JJDW10/jjd2274.doc'
p2114
sg6
VHennessey
p2115
sa(dp2116
g2
V11/10/88
p2117
sg4
S'../Write/JJDW2/jjd1694.doc'
p2118
sg6
VChick Fisher
p2119
sa(dp2120
g2
V11/14/88
p2121
sg4
S'../Write/JJDW2/jjd1707.doc'
p2122
sg6
VGiles-11/14
p2123
sa(dp2124
g2
V12/7/88
p2125
sg4
S'../Write/JJDW2/jjd1697.doc'
p2126
sg6
VCommen Recept
p2127
sa(dp2128
g2
V12/19/88
p2129
sg4
S'../Write/JJDW2/jjd1703.doc'
p2130
sg6
VFord-12/19
p2131
sa(dp2132
g2
V1/16/89
p2133
sg4
S'../Write/JJDW2/jjd1698.doc'
p2134
sg6
VCosts Task Force
p2135
sa(dp2136
g2
V1/18/89
p2137
sg4
S'../Write/JJDW2/jjd1710.doc'
p2138
sg6
VHornback
p2139
sa(dp2140
g2
V1/20/89
p2141
sg4
S'../Write/JJDW2/jjd1693.doc'
p2142
sg6
VBlanchard-1/89
p2143
sa(dp2144
g2
V1/22/89
p2145
sg4
S'../Write/JJDW2/jjd1700.doc'
p2146
sg6
VEO Internal
p2147
sa(dp2148
g2
V1/29/89
p2149
sg4
S'../Write/JJDW2/jjd1711.doc'
p2150
sg6
VHouse Memo-1/29/89
p2151
sa(dp2152
g2
V2/7/89
p2153
sg4
S'../Write/JJDW2/jjd1702.doc'
p2154
sg6
VFleming
p2155
sa(dp2156
g2
V2/15/89
p2157
sg4
S'../Write/JJDW2/jjd1701.doc'
p2158
sg6
VEO Regents
p2159
sa(dp2160
g2
V2/16/89
p2161
sg4
S'../Write/JJDW2/jjd1692.doc'
p2162
sg6
VAcademy
p2163
sa(dp2164
g2
V2/22/89
p2165
sg4
S'../Write/JJDW2/jjd1704.doc'
p2166
sg6
VFord-2/89
p2167
sa(dp2168
g2
V3/7/89
p2169
sg4
S'../Write/JJDW2/jjd1708.doc'
p2170
sg6
VHolcombe-3/89
p2171
sa(dp2172
g2
V3/20/89
p2173
sg4
S'../Write/JJDW2/jjd1705.doc'
p2174
sg6
VFrats-3/89
p2175
sa(dp2176
g2
V3/22/89
p2177
sg4
S'../Write/JJDW2/jjd1695.doc'
p2178
sg6
VCMU Search
p2179
sa(dp2180
g2
V4/26/89
p2181
sg4
S'../Write/JJDW2/jjd1706.doc'
p2182
sg6
VFriday
p2183
sa(dp2184
g2
V5/4/89
p2185
sg4
S'../Write/JJDW2/jjd1709.doc'
p2186
sg6
VHolcombe-5/4/89
p2187
sa(dp2188
g2
V6/11/89
p2189
sg4
S'../Write/JJDW2/jjd1696.doc'
p2190
sg6
VComm Ideas
p2191
sa(dp2192
g2
V7/10/89
p2193
sg4
S'../Write/JJDW3/jjd1720.doc'
p2194
sg6
VCambridge Thanks
p2195
sa(dp2196
g2
V7/10/89
p2197
sg4
S'../Write/JJDW3/jjd1714.doc'
p2198
sg6
VActivity Summary
p2199
sa(dp2200
g2
V9/9/89
p2201
sg4
S'../Write/JJDW3/jjd1760.doc'
p2202
sg6
VState Strategy
p2203
sa(dp2204
g2
V9/20/89
p2205
sg4
S'../Write/JJDW3/jjd1723.doc'
p2206
sg6
VCitizens Res Council
p2207
sa(dp2208
g2
V10/3/89
p2209
sg4
S'../Write/JJDW3/jjd1725.doc'
p2210
sg6
VDevelop Structure
p2211
sa(dp2212
g2
V10/16/89
p2213
sg4
S'../Write/JJDW3/jjd1739.doc'
p2214
sg6
VLetters-10/89
p2215
sa(dp2216
g2
V10/18/89
p2217
sg4
S'../Write/JJDW3/jjd1715.doc'
p2218
sg6
VAkers
p2219
sa(dp2220
g2
V10/18/89
p2221
sg4
S'../Write/JJDW3/jjd1721.doc'
p2222
sg6
VCase Statement
p2223
sa(dp2224
g2
V10/20/89
p2225
sg4
S'../Write/JJDW3/jjd1751.doc'
p2226
sg6
VRegents-Educom
p2227
sa(dp2228
g2
V10/26/89
p2229
sg4
S'../Write/JJDW3/jjd1728.doc'
p2230
sg6
VEndow Comp
p2231
sa(dp2232
g2
V10/29/89
p2233
sg4
S'../Write/JJDW3/jjd1759.doc'
p2234
sg6
VState Brochure 2
p2235
sa(dp2236
g2
V10/29/89
p2237
sg4
S'../Write/JJDW3/jjd1758.doc'
p2238
sg6
VState Brochure
p2239
sa(dp2240
g2
V11/5/89
p2241
sg4
S'../Write/JJDW3/jjd1735.doc'
p2242
sg6
VJJD Assessment
p2243
sa(dp2244
g2
V11/5/89
p2245
sg4
S'../Write/JJDW3/jjd1732.doc'
p2246
sg6
VHouse Update
p2247
sa(dp2248
g2
V11/13/89
p2249
sg4
S'../Write/JJDW3/jjd1757.doc'
p2250
sg6
VState Agreement
p2251
sa(dp2252
g2
V11/29/89
p2253
sg4
S'../Write/JJDW3/jjd1733.doc'
p2254
sg6
VIacocca-12/89
p2255
sa(dp2256
g2
V12/13/89
p2257
sg4
S'../Write/JJDW3/jjd1718.doc'
p2258
sg6
VBo
p2259
sa(dp2260
g2
V12/15/89
p2261
sg4
S'../Write/JJDW3/jjd1737.doc'
p2262
sg6
VKnoll
p2263
sa(dp2264
g2
V12/19/89
p2265
sg4
S'../Write/JJDW3/jjd1747.doc'
p2266
sg6
VPenn State
p2267
sa(dp2268
g2
V12/21/89
p2269
sg4
S'../Write/JJDW3/jjd1729.doc'
p2270
sg6
VEO Structure
p2271
sa(dp2272
g2
V1/4/90
p2273
sg4
S'../Write/JJDW3/jjd1730.doc'
p2274
sg6
VEO Structure (S)
p2275
sa(dp2276
g2
V1/6/90
p2277
sg4
S'../Write/JJDW3/jjd1749.doc'
p2278
sg6
VPIF-90
p2279
sa(dp2280
g2
V1/7/90
p2281
sg4
S'../Write/JJDW3/jjd1756.doc'
p2282
sg6
VSolomon-1/90
p2283
sa(dp2284
g2
V1/8/90
p2285
sg4
S'../Write/JJDW3/jjd1740.doc'
p2286
sg6
VMichigan Rankings
p2287
sa(dp2288
g2
V1/9/90
p2289
sg4
S'../Write/JJDW3/jjd1753.doc'
p2290
sg6
VRoundtable
p2291
sa(dp2292
g2
V1/12/90
p2293
sg4
S'../Write/JJDW3/jjd1762.doc'
p2294
sg6
VWeidenbach-1/90
p2295
sa(dp2296
g2
V1/15/90
p2297
sg4
S'../Write/JJDW3/jjd1745.doc'
p2298
sg6
VP.C. - Forums Speech
p2299
sa(dp2300
g2
V1/17/90
p2301
sg4
S'../Write/JJDW3/jjd1722.doc'
p2302
sg6
VCEO Meeting
p2303
sa(dp2304
g2
V1/18/90
p2305
sg4
S'../Write/JJDW3/jjd1746.doc'
p2306
sg6
VP.C. - Forums Speech 1.1
p2307
sa(dp2308
g2
V1/22/90
p2309
sg4
S'../Write/JJDW3/jjd1734.doc'
p2310
sg6
VJFB Nom
p2311
sa(dp2312
g2
V1/22/90
p2313
sg4
S'../Write/JJDW3/jjd1742.doc'
p2314
sg6
VMichigan-1990
p2315
sa(dp2316
g2
V1/22/90
p2317
sg4
S'../Write/JJDW3/jjd1719.doc'
p2318
sg6
VBob Alexander
p2319
sa(dp2320
g2
V1/24/90
p2321
sg4
S'../Write/JJDW3/jjd1727.doc'
p2322
sg6
VElmer Lewis
p2323
sa(dp2324
g2
V1/29/90
p2325
sg4
S'../Write/JJDW3/jjd1738.doc'
p2326
sg6
VLeadership Checklist
p2327
sa(dp2328
g2
V1/31/90
p2329
sg4
S'../Write/JJDW3/jjd1731.doc'
p2330
sg6
VEO Structure-PC
p2331
sa(dp2332
g2
V1/31/90
p2333
sg4
S'../Write/JJDW3/jjd1755.doc'
p2334
sg6
VSimon
p2335
sa(dp2336
g2
V2/3/90
p2337
sg4
S'../Write/JJDW3/jjd1743.doc'
p2338
sg6
VMinority Graphs
p2339
sa(dp2340
g2
V2/13/90
p2341
sg4
S'../Write/JJDW3/jjd1736.doc'
p2342
sg6
VKellogg
p2343
sa(dp2344
g2
V2/13/90
p2345
sg4
S'../Write/JJDW3/jjd1761.doc'
p2346
sg6
VSurvey
p2347
sa(dp2348
g2
V2/14/90
p2349
sg4
S'../Write/JJDW3/jjd1754.doc'
p2350
sg6
VRoundtable - List
p2351
sa(dp2352
g2
V2/20/90
p2353
sg4
S'../Write/JJDW3/jjd1726.doc'
p2354
sg6
VDumas
p2355
sa(dp2356
g2
V2/21/90
p2357
sg4
S'../Write/JJDW3/jjd1744.doc'
p2358
sg6
VMMCC
p2359
sa(dp2360
g2
V2/27/90
p2361
sg4
S'../Write/JJDW3/jjd1717.doc'
p2362
sg6
VBB
p2363
sa(dp2364
g2
V3/19/90
p2365
sg4
S'../Write/JJDW3/jjd1724.doc'
p2366
sg6
VD'Arms-3/19/90
p2367
sa(dp2368
g2
V4/3/90
p2369
sg4
S'../Write/JJDW3/jjd1716.doc'
p2370
sg6
VBAM
p2371
sa(dp2372
g2
V5/8/90
p2373
sg4
S'../Write/JJDW3/jjd1752.doc'
p2374
sg6
VRoger Smith
p2375
sa(dp2376
g2
V5/14/90
p2377
sg4
S'../Write/JJDW3/jjd1748.doc'
p2378
sg6
VPenn State-Q&A
p2379
sa(dp2380
g2
V5/21/90
p2381
sg4
S'../Write/JJDW3/jjd1741.doc'
p2382
sg6
VMichigan Roundtable
p2383
sa(dp2384
g2
V6/11/90
p2385
sg4
S'../Write/JJDW3/jjd1750.doc'
p2386
sg6
VRegents-CMV
p2387
sa(dp2388
g2
V10/28/91
p2389
sg4
S'../Write/JJDW3/jjd1713.doc'
p2390
sg6
VAAU Toronto
p2391
sa(dp2392
g2
V6/11/90
p2393
sg4
S'../Write/JJDW4/jjd1775.doc'
p2394
sg6
VCMV Comment
p2395
sa(dp2396
g2
V7/5/90
p2397
sg4
S'../Write/JJDW4/jjd1792.doc'
p2398
sg6
VHTS-8/90
p2399
sa(dp2400
g2
V7/9/90
p2401
sg4
S'../Write/JJDW4/jjd1823.doc'
p2402
sg6
VProvost Search
p2403
sa(dp2404
g2
V7/11/90
p2405
sg4
S'../Write/JJDW4/jjd1789.doc'
p2406
sg6
VGW-Provost
p2407
sa(dp2408
g2
V7/28/90
p2409
sg4
S'../Write/JJDW4/jjd1780.doc'
p2410
sg6
VEO Salaries
p2411
sa(dp2412
g2
V7/30/90
p2413
sg4
S'../Write/JJDW4/jjd1786.doc'
p2414
sg6
VGilmour
p2415
sa(dp2416
g2
V7/31/90
p2417
sg4
S'../Write/JJDW4/jjd1770.doc'
p2418
sg6
VBlanchard-8/90
p2419
sa(dp2420
g2
S'9/12/90'
p2421
sg4
S'../Write/JJDW4/jjd1776.doc'
p2422
sg6
S'DC Notes-9/12'
p2423
sa(dp2424
g2
V10/1/90
p2425
sg4
S'../Write/JJDW4/jjd1829.doc'
p2426
sg6
VResearch VP
p2427
sa(dp2428
g2
V10/15/90
p2429
sg4
S'../Write/JJDW4/jjd1816.doc'
p2430
sg6
VNSB EHR Study
p2431
sa(dp2432
g2
V10/15/90
p2433
sg4
S'../Write/JJDW4/jjd1772.doc'
p2434
sg6
VBudget Issues
p2435
sa(dp2436
g2
V10/23/90
p2437
sg4
S'../Write/JJDW4/jjd1824.doc'
p2438
sg6
VR vs T
p2439
sa(dp2440
g2
V10/31/90
p2441
sg4
S'../Write/JJDW4/jjd1806.doc'
p2442
sg6
VMedical School
p2443
sa(dp2444
g2
V11/5/90
p2445
sg4
S'../Write/JJDW4/jjd1830.doc'
p2446
sg6
VRLK Organization
p2447
sa(dp2448
g2
V11/6/90
p2449
sg4
S'../Write/JJDW4/jjd1833.doc'
p2450
sg6
VSchultz
p2451
sa(dp2452
g2
V11/18/90
p2453
sg4
S'../Write/JJDW4/jjd1815.doc'
p2454
sg6
VNoCode
p2455
sa(dp2456
g2
V11/19/90
p2457
sg4
S'../Write/JJDW4/jjd1771.doc'
p2458
sg6
VBrown-11/19
p2459
sa(dp2460
g2
V11/19/90
p2461
sg4
S'../Write/JJDW4/jjd1799.doc'
p2462
sg6
Vjjd e-mail
p2463
sa(dp2464
g2
V11/19/90
p2465
sg4
S'../Write/JJDW4/jjd1837.doc'
p2466
sg6
Vstudent letter
p2467
sa(dp2468
g2
V11/19/90
p2469
sg4
S'../Write/JJDW4/jjd1818.doc'
p2470
sg6
VPC-Safety
p2471
sa(dp2472
g2
V11/21/90
p2473
sg4
S'../Write/JJDW4/jjd1800.doc'
p2474
sg6
VJJD Student Letter
p2475
sa(dp2476
g2
V11/23/90
p2477
sg4
S'../Write/JJDW4/jjd1796.doc'
p2478
sg6
VInglis House policy
p2479
sa(dp2480
g2
V11/24/90
p2481
sg4
S'../Write/JJDW4/jjd1795.doc'
p2482
sg6
VInglis House III
p2483
sa(dp2484
g2
V11/24/90
p2485
sg4
S'../Write/JJDW4/jjd1794.doc'
p2486
sg6
VInglis House 3.1
p2487
sa(dp2488
g2
V12/2/90
p2489
sg4
S'../Write/JJDW4/jjd1768.doc'
p2490
sg6
VBig Ten
p2491
sa(dp2492
g2
V12/3/90
p2493
sg4
S'../Write/JJDW4/jjd1764.doc'
p2494
sg6
VAnita's Memo
p2495
sa(dp2496
g2
V12/18/90
p2497
sg4
S'../Write/JJDW4/jjd1801.doc'
p2498
sg6
VLamar Alexander
p2499
sa(dp2500
g2
V12/19/90
p2501
sg4
S'../Write/JJDW4/jjd1825.doc'
p2502
sg6
VRegents-12/19/90
p2503
sa(dp2504
g2
S'12/20/90'
p2505
sg4
S'../Write/JJDW4/jjd1798.doc'
p2506
sg6
S'ITI Followup'
p2507
sa(dp2508
g2
V12/25/90
p2509
sg4
S'../Write/JJDW4/jjd1821.doc'
p2510
sg6
VPres Spouse II
p2511
sa(dp2512
g2
V1/10/91
p2513
sg4
S'../Write/JJDW4/jjd1797.doc'
p2514
sg6
VInglis Memo II
p2515
sa(dp2516
g2
V1/24/91
p2517
sg4
S'../Write/JJDW4/jjd1805.doc'
p2518
sg6
VMawby
p2519
sa(dp2520
g2
V2/6/91
p2521
sg4
S'../Write/JJDW4/jjd1803.doc'
p2522
sg6
VMadden-2/91
p2523
sa(dp2524
g2
V2/6/91
p2525
sg4
S'../Write/JJDW4/jjd1778.doc'
p2526
sg6
VEngler-2/91
p2527
sa(dp2528
g2
V2/6/91
p2529
sg4
S'../Write/JJDW4/jjd1791.doc'
p2530
sg6
VHockaday-2/91
p2531
sa(dp2532
g2
V2/6/91
p2533
sg4
S'../Write/JJDW4/jjd1820.doc'
p2534
sg6
VPrector-2/91
p2535
sa(dp2536
g2
V2/7/91
p2537
sg4
S'../Write/JJDW4/jjd1810.doc'
p2538
sg6
VMNET
p2539
sa(dp2540
g2
V2/8/91
p2541
sg4
S'../Write/JJDW4/jjd1826.doc'
p2542
sg6
VRegents-2/91
p2543
sa(dp2544
g2
V2/11/91
p2545
sg4
S'../Write/JJDW4/jjd1819.doc'
p2546
sg6
VPCV Proposal
p2547
sa(dp2548
g2
V2/20/91
p2549
sg4
S'../Write/JJDW4/jjd1785.doc'
p2550
sg6
VFutures Group
p2551
sa(dp2552
g2
V2/21/91
p2553
sg4
S'../Write/JJDW4/jjd1804.doc'
p2554
sg6
VManoogian
p2555
sa(dp2556
g2
V3/7/91
p2557
sg4
S'../Write/JJDW4/jjd1766.doc'
p2558
sg6
VBechtel
p2559
sa(dp2560
g2
V3/7/91
p2561
sg4
S'../Write/JJDW4/jjd1767.doc'
p2562
sg6
Vbga/notes-2
p2563
sa(dp2564
g2
V3/8/91
p2565
sg4
S'../Write/JJDW4/jjd1809.doc'
p2566
sg6
VMike Ada.
p2567
sa(dp2568
g2
V3/8/91
p2569
sg4
S'../Write/JJDW4/jjd1831.doc'
p2570
sg6
VRoosevelt Quote
p2571
sa(dp2572
g2
V3/11/91
p2573
sg4
S'../Write/JJDW4/jjd1777.doc'
p2574
sg6
VEngler Meeting-3/91
p2575
sa(dp2576
g2
V3/11/91
p2577
sg4
S'../Write/JJDW4/jjd1811.doc'
p2578
sg6
VMoses-3/91
p2579
sa(dp2580
g2
V3/12/91
p2581
sg4
S'../Write/JJDW4/jjd1790.doc'
p2582
sg6
VHilgert
p2583
sa(dp2584
g2
V3/25/91
p2585
sg4
S'../Write/JJDW4/jjd1814.doc'
p2586
sg6
VNCAA Testimony
p2587
sa(dp2588
g2
V3/25/91
p2589
sg4
S'../Write/JJDW4/jjd1765.doc'
p2590
sg6
VB. Ruppel
p2591
sa(dp2592
g2
V3/25/91
p2593
sg4
S'../Write/JJDW4/jjd1832.doc'
p2594
sg6
VRudenstine
p2595
sa(dp2596
g2
V3/27/91
p2597
sg4
S'../Write/JJDW4/jjd1802.doc'
p2598
sg6
VLohman
p2599
sa(dp2600
g2
V4/2/91
p2601
sg4
S'../Write/JJDW4/jjd1827.doc'
p2602
sg6
VRegents-Faculty
p2603
sa(dp2604
g2
V4/29/91
p2605
sg4
S'../Write/JJDW4/jjd1784.doc'
p2606
sg6
VFutures
p2607
sa(dp2608
g2
V4/29/91
p2609
sg4
S'../Write/JJDW4/jjd1763.doc'
p2610
sg6
VAffirm Action
p2611
sa(dp2612
g2
V5/3/91
p2613
sg4
S'../Write/JJDW4/jjd1836.doc'
p2614
sg6
VStrategic Marketing Plan 1.1
p2615
sa(dp2616
g2
V5/9/91
p2617
sg4
S'../Write/JJDW4/jjd1813.doc'
p2618
sg6
Vnat'l media
p2619
sa(dp2620
g2
V5/15/91
p2621
sg4
S'../Write/JJDW4/jjd1822.doc'
p2622
sg6
VPresident Bush/JJD
p2623
sa(dp2624
g2
V5/21/91
p2625
sg4
S'../Write/JJDW4/jjd1793.doc'
p2626
sg6
VICR
p2627
sa(dp2628
g2
V5/22/91
p2629
sg4
S'../Write/JJDW4/jjd1828.doc'
p2630
sg6
VRegents-Tuition
p2631
sa(dp2632
g2
V5/31/91
p2633
sg4
S'../Write/JJDW4/jjd1838.doc'
p2634
sg6
VTeeter-June
p2635
sa(dp2636
g2
V5/31/91
p2637
sg4
S'../Write/JJDW4/jjd1783.doc'
p2638
sg6
VFord
p2639
sa(dp2640
g2
V6/1/91
p2641
sg4
S'../Write/JJDW4/jjd1769.doc'
p2642
sg6
VBig Ten List
p2643
sa(dp2644
g2
V6/10/91
p2645
sg4
S'../Write/JJDW4/jjd1781.doc'
p2646
sg6
VEotvos-6/91
p2647
sa(dp2648
g2
V6/10/91
p2649
sg4
S'../Write/JJDW4/jjd1779.doc'
p2650
sg6
VEngler-6/91
p2651
sa(dp2652
g2
V6/10/91
p2653
sg4
S'../Write/JJDW4/jjd1839.doc'
p2654
sg6
VTraxler-6/91
p2655
sa(dp2656
g2
V6/10/91
p2657
sg4
S'../Write/JJDW4/jjd1782.doc'
p2658
sg6
VFasing-6/91
p2659
sa(dp2660
g2
V6/10/91
p2661
sg4
S'../Write/JJDW4/jjd1788.doc'
p2662
sg6
VGreen-6/91
p2663
sa(dp2664
g2
V6/10/91
p2665
sg4
S'../Write/JJDW4/jjd1787.doc'
p2666
sg6
VGov Rel Structure 1.0
p2667
sa(dp2668
g2
V6/18/91
p2669
sg4
S'../Write/JJDW4/jjd1840.doc'
p2670
sg6
VUM Tuition
p2671
sa(dp2672
g2
V6/18/91
p2673
sg4
S'../Write/JJDW4/jjd1834.doc'
p2674
sg6
VSome notes
p2675
sa(dp2676
g2
V6/22/91
p2677
sg4
S'../Write/JJDW4/jjd1835.doc'
p2678
sg6
VSS Report Card
p2679
sa(dp2680
g2
V6/24/91
p2681
sg4
S'../Write/JJDW4/jjd1817.doc'
p2682
sg6
VPC Regents Memo
p2683
sa(dp2684
g2
V6/26/91
p2685
sg4
S'../Write/JJDW4/jjd1807.doc'
p2686
sg6
VMICH MANDATE 3 YR UPDATE
p2687
sa(dp2688
g2
V7/3/91
p2689
sg4
S'../Write/JJDW5/jjd1846.doc'
p2690
sg6
VCDM/sac edit
p2691
sa(dp2692
g2
V7/3/91
p2693
sg4
S'../Write/JJDW5/jjd1845.doc'
p2694
sg6
VCDM
p2695
sa(dp2696
g2
V7/4/91
p2697
sg4
S'../Write/JJDW5/jjd1863.doc'
p2698
sg6
VGrady-II
p2699
sa(dp2700
g2
V7/5/91
p2701
sg4
S'../Write/JJDW5/jjd1885.doc'
p2702
sg6
VRegents Tuition Briefing
p2703
sa(dp2704
g2
S'7/10/91'
p2705
sg4
S'../Write/JJDW5/jjd1893.doc'
p2706
sg6
S'Teeter (7/10/91)'
p2707
sa(dp2708
g2
V7/16/91
p2709
sg4
S'../Write/JJDW5/jjd1882.doc'
p2710
sg6
VRegents Annual Report 1.2
p2711
sa(dp2712
g2
V7/17/91
p2713
sg4
S'../Write/JJDW5/jjd1895.doc'
p2714
sg6
VTraxler
p2715
sa(dp2716
g2
V7/18/91
p2717
sg4
S'../Write/JJDW5/jjd1894.doc'
p2718
sg6
VTraineeship
p2719
sa(dp2720
g2
V7/20/91
p2721
sg4
S'../Write/JJDW5/jjd1850.doc'
p2722
sg6
VCUE Report
p2723
sa(dp2724
g2
V7/21/91
p2725
sg4
S'../Write/JJDW5/jjd1878.doc'
p2726
sg6
VNational Rankings
p2727
sa(dp2728
g2
V7/24/91
p2729
sg4
S'../Write/JJDW5/jjd1842.doc'
p2730
sg6
VAAU Letter1.1
p2731
sa(dp2732
g2
V7/27/91
p2733
sg4
S'../Write/JJDW5/jjd1883.doc'
p2734
sg6
VRegents Cover Letter
p2735
sa(dp2736
g2
V7/30/91
p2737
sg4
S'../Write/JJDW5/jjd1859.doc'
p2738
sg6
VFootball Invites
p2739
sa(dp2740
g2
V9/15/91
p2741
sg4
S'../Write/JJDW5/jjd1843.doc'
p2742
sg6
VCampaign Kickoff
p2743
sa(dp2744
g2
V10/7/91
p2745
sg4
S'../Write/JJDW5/jjd1856.doc'
p2746
sg6
VElsa Cole
p2747
sa(dp2748
g2
V10/18/91
p2749
sg4
S'../Write/JJDW5/jjd1896.doc'
p2750
sg6
VVPSS
p2751
sa(dp2752
g2
V10/28/91
p2753
sg4
S'../Write/JJDW5/jjd1875.doc'
p2754
sg6
VMET Board
p2755
sa(dp2756
g2
V11/1/91
p2757
sg4
S'../Write/JJDW5/jjd1852.doc'
p2758
sg6
VDaily Ad Response
p2759
sa(dp2760
g2
V11/1/91
p2761
sg4
S'../Write/JJDW5/jjd1864.doc'
p2762
sg6
VGUIR Review
p2763
sa(dp2764
g2
V11/12/91
p2765
sg4
S'../Write/JJDW5/jjd1868.doc'
p2766
sg6
VHTS-11/91
p2767
sa(dp2768
g2
V11/15/91
p2769
sg4
S'../Write/JJDW5/jjd1886.doc'
p2770
sg6
VRegents-11/91
p2771
sa(dp2772
g2
V12/2/91
p2773
sg4
S'../Write/JJDW5/jjd1854.doc'
p2774
sg6
VDeane Baker-12/91
p2775
sa(dp2776
g2
V12/3/91
p2777
sg4
S'../Write/JJDW5/jjd1891.doc'
p2778
sg6
VSenate Assembly ll/l9/9l
p2779
sa(dp2780
g2
V12/5/91
p2781
sg4
S'../Write/JJDW5/jjd1881.doc'
p2782
sg6
VPower-12/91
p2783
sa(dp2784
g2
V12/10/91
p2785
sg4
S'../Write/JJDW5/jjd1861.doc'
p2786
sg6
VFutures-Autonomy
p2787
sa(dp2788
g2
V12/11/91
p2789
sg4
S'../Write/JJDW5/jjd1876.doc'
p2790
sg6
VMET Observations
p2791
sa(dp2792
g2
V12/19/91
p2793
sg4
S'../Write/JJDW5/jjd1884.doc'
p2794
sg6
VRegents Discussion (12/91)
p2795
sa(dp2796
g2
V12/20/91
p2797
sg4
S'../Write/JJDW5/jjd1877.doc'
p2798
sg6
VModem Info
p2799
sa(dp2800
g2
V1/4/92
p2801
sg4
S'../Write/JJDW5/jjd1862.doc'
p2802
sg6
VFWC Letter
p2803
sa(dp2804
g2
V1/4/92
p2805
sg4
S'../Write/JJDW5/jjd1849.doc'
p2806
sg6
VCosovich
p2807
sa(dp2808
g2
V1/5/92
p2809
sg4
S'../Write/JJDW5/jjd1858.doc'
p2810
sg6
VFarhat
p2811
sa(dp2812
g2
V1/5/92
p2813
sg4
S'../Write/JJDW5/jjd1889.doc'
p2814
sg6
VRitz-Carlton
p2815
sa(dp2816
g2
V1/6/92
p2817
sg4
S'../Write/JJDW5/jjd1890.doc'
p2818
sg6
VRose Bowl Letters
p2819
sa(dp2820
g2
V1/9/92
p2821
sg4
S'../Write/JJDW5/jjd1867.doc'
p2822
sg6
VHornback-1/92
p2823
sa(dp2824
g2
V1/13/92
p2825
sg4
S'../Write/JJDW5/jjd1888.doc'
p2826
sg6
VRegents-House
p2827
sa(dp2828
g2
V1/13/92
p2829
sg4
S'../Write/JJDW5/jjd1887.doc'
p2830
sg6
VRegents-Challenges
p2831
sa(dp2832
g2
V1/21/92
p2833
sg4
S'../Write/JJDW5/jjd1892.doc'
p2834
sg6
VTeeter
p2835
sa(dp2836
g2
V2/6/92
p2837
sg4
S'../Write/JJDW5/jjd1870.doc'
p2838
sg6
VInnkeeping Notice
p2839
sa(dp2840
g2
V2/10/92
p2841
sg4
S'../Write/JJDW5/jjd1847.doc'
p2842
sg6
VCehelsky-2/92
p2843
sa(dp2844
g2
V2/10/92
p2845
sg4
S'../Write/JJDW5/jjd1844.doc'
p2846
sg6
VCampaign Restructuring
p2847
sa(dp2848
g2
V2/12/92
p2849
sg4
S'../Write/JJDW5/jjd1869.doc'
p2850
sg6
VInge
p2851
sa(dp2852
g2
V2/19/92
p2853
sg4
S'../Write/JJDW5/jjd1853.doc'
p2854
sg6
VDarman-2/92
p2855
sa(dp2856
g2
V3/6/92
p2857
sg4
S'../Write/JJDW5/jjd1873.doc'
p2858
sg6
VLang-3/92
p2859
sa(dp2860
g2
V3/18/92
p2861
sg4
S'../Write/JJDW5/jjd1855.doc'
p2862
sg6
VDuke-3/92
p2863
sa(dp2864
g2
V4/1/92
p2865
sg4
S'../Write/JJDW5/jjd1872.doc'
p2866
sg6
VKrumm-4/92
p2867
sa(dp2868
g2
V4/8/92
p2869
sg4
S'../Write/JJDW5/jjd1866.doc'
p2870
sg6
VHasselmo-4/92
p2871
sa(dp2872
g2
V5/11/92
p2873
sg4
S'../Write/JJDW5/jjd1874.doc'
p2874
sg6
VMC Parking
p2875
sa(dp2876
g2
V5/12/92
p2877
sg4
S'../Write/JJDW5/jjd1851.doc'
p2878
sg6
VCunningham-5/92
p2879
sa(dp2880
g2
V5/18/92
p2881
sg4
S'../Write/JJDW5/jjd1860.doc'
p2882
sg6
VFutures-5/92
p2883
sa(dp2884
g2
V5/18/92
p2885
sg4
S'../Write/JJDW5/jjd1879.doc'
p2886
sg6
VPCSUM-5/92
p2887
sa(dp2888
g2
V5/30/92
p2889
sg4
S'../Write/JJDW5/jjd1880.doc'
p2890
sg6
VPosition memo
p2891
sa(dp2892
g2
V5/31/92
p2893
sg4
S'../Write/JJDW5/jjd1871.doc'
p2894
sg6
VITIC Statement
p2895
sa(dp2896
g2
V6/13/92
p2897
sg4
S'../Write/JJDW5/jjd1848.doc'
p2898
sg6
VCollege Sports 1.0
p2899
sa(dp2900
g2
V6/16/92
p2901
sg4
S'../Write/JJDW5/jjd1865.doc'
p2902
sg6
VHarwit
p2903
sa(dp2904
g2
S'undated'
p2905
sg4
S'../Write/JJDW6/jjd1929.doc'
p2906
sg6
S'Family Community Center'
p2907
sa(dp2908
g2
V2/4/91
p2909
sg4
S'../Write/JJDW6/jjd1919.doc'
p2910
sg6
VEhrlich1
p2911
sa(dp2912
g2
V4/27/92
p2913
sg4
S'../Write/JJDW6/jjd1897.doc'
p2914
sg6
VAcademic Leadership 1.1
p2915
sa(dp2916
g2
V5/20/92
p2917
sg4
S'../Write/JJDW6/jjd1914.doc'
p2918
sg6
VDB Attacks
p2919
sa(dp2920
g2
V7/6/92
p2921
sg4
S'../Write/JJDW6/jjd1902.doc'
p2922
sg6
VBHEF Ideas
p2923
sa(dp2924
g2
V7/8/92
p2925
sg4
S'../Write/JJDW6/jjd1985.doc'
p2926
sg6
VRauch-7/8
p2927
sa(dp2928
g2
V7/8/92
p2929
sg4
S'../Write/JJDW6/jjd1995.doc'
p2930
sg6
VShankar-7/7
p2931
sa(dp2932
g2
V7/10/92
p2933
sg4
S'../Write/JJDW6/jjd1913.doc'
p2934
sg6
VDay-7/92
p2935
sa(dp2936
g2
V7/17/92
p2937
sg4
S'../Write/JJDW6/jjd1971.doc'
p2938
sg6
VPeterson-7/92
p2939
sa(dp2940
g2
V7/18/92
p2941
sg4
S'../Write/JJDW6/jjd1979.doc'
p2942
sg6
VPresident's House 1.2
p2943
sa(dp2944
g2
V7/18/92
p2945
sg4
S'../Write/JJDW6/jjd1941.doc'
p2946
sg6
VInglis House 3.2
p2947
sa(dp2948
g2
S'7/2/92'
p2949
sg4
S'../Write/JJDW6/jjd1966.doc'
p2950
sg6
S'OUE Memo'
p2951
sa(dp2952
g2
V7/30/92
p2953
sg4
S'../Write/JJDW6/jjd1982.doc'
p2954
sg6
VPresidential Events 2.1
p2955
sa(dp2956
g2
V8/3/92
p2957
sg4
S'../Write/JJDW6/jjd1916.doc'
p2958
sg6
VE-mail 1
p2959
sa(dp2960
g2
V8/3/92
p2961
sg4
S'../Write/JJDW6/jjd2003.doc'
p2962
sg6
VTaubman
p2963
sa(dp2964
g2
V8/9/92
p2965
sg4
S'../Write/JJDW6/jjd2014.doc'
p2966
sg6
VWLH
p2967
sa(dp2968
g2
V8/12/92
p2969
sg4
S'../Write/JJDW6/jjd1908.doc'
p2970
sg6
VCASE 1.0
p2971
sa(dp2972
g2
V8/18/92
p2973
sg4
S'../Write/JJDW6/jjd1943.doc'
p2974
sg6
VInglis/Pres Use Memo 2.0
p2975
sa(dp2976
g2
V8/18/92
p2977
sg4
S'../Write/JJDW6/jjd1940.doc'
p2978
sg6
VInglis House 2.0
p2979
sa(dp2980
g2
V8/18/92
p2981
sg4
S'../Write/JJDW6/jjd1980.doc'
p2982
sg6
VPresident's House 2.0
p2983
sa(dp2984
g2
V8/20/92
p2985
sg4
S'../Write/JJDW6/jjd1927.doc'
p2986
sg6
VFaculty-Admin Gap 1.2
p2987
sa(dp2988
g2
V8/20/92
p2989
sg4
S'../Write/JJDW6/jjd1947.doc'
p2990
sg6
VInternal Comm 1.1
p2991
sa(dp2992
g2
V8/20/92
p2993
sg4
S'../Write/JJDW6/jjd2004.doc'
p2994
sg6
VThe Adult University 1.1
p2995
sa(dp2996
g2
V8/20/92
p2997
sg4
S'../Write/JJDW6/jjd1972.doc'
p2998
sg6
VPhoto Essay 1.2
p2999
sa(dp3000
g2
V8/20/92
p3001
sg4
S'../Write/JJDW6/jjd1946.doc'
p3002
sg6
VInternal Comm 1.0
p3003
sa(dp3004
g2
V8/22/92
p3005
sg4
S'../Write/JJDW6/jjd1944.doc'
p3006
sg6
VIntellectual Change 1.0
p3007
sa(dp3008
g2
V8/22/92
p3009
sg4
S'../Write/JJDW6/jjd1938.doc'
p3010
sg6
VHolcombe-8/92
p3011
sa(dp3012
g2
V8/22/92
p3013
sg4
S'../Write/JJDW6/jjd1942.doc'
p3014
sg6
VInglis/Pres House Details
p3015
sa(dp3016
g2
V8/23/92
p3017
sg4
S'../Write/JJDW6/jjd1997.doc'
p3018
sg6
VSports 2.2
p3019
sa(dp3020
g2
V8/23/92
p3021
sg4
S'../Write/JJDW6/jjd2008.doc'
p3022
sg6
VUniversity Models 1.1
p3023
sa(dp3024
g2
V8/23/92
p3025
sg4
S'../Write/JJDW6/jjd2007.doc'
p3026
sg6
VUniversity Models 1.0
p3027
sa(dp3028
g2
V8/24/92
p3029
sg4
S'../Write/JJDW6/jjd1974.doc'
p3030
sg6
VPlant 1.0
p3031
sa(dp3032
g2
V8/24/92
p3033
sg4
S'../Write/JJDW6/jjd1973.doc'
p3034
sg6
VPlant
p3035
sa(dp3036
g2
V8/25/92
p3037
sg4
S'../Write/JJDW6/jjd1909.doc'
p3038
sg6
VCEC Assignments
p3039
sa(dp3040
g2
V8/26/92
p3041
sg4
S'../Write/JJDW6/jjd1952.doc'
p3042
sg6
VJJD/GRW/FWW Meeting
p3043
sa(dp3044
g2
V8/26/92
p3045
sg4
S'../Write/JJDW6/jjd1901.doc'
p3046
sg6
VBattle List 1.0
p3047
sa(dp3048
g2
V8/28/92
p3049
sg4
S'../Write/JJDW6/jjd2016.doc'
p3050
sg6
VYear Summary
p3051
sa(dp3052
g2
V8/28/92
p3053
sg4
S'../Write/JJDW6/jjd1975.doc'
p3054
sg6
VPlant 2.0
p3055
sa(dp3056
g2
V8/30/92
p3057
sg4
S'../Write/JJDW6/jjd1989.doc'
p3058
sg6
VRegents-9/92
p3059
sa(dp3060
g2
V8/30/92
p3061
sg4
S'../Write/JJDW6/jjd1948.doc'
p3062
sg6
VJJD Conv
p3063
sa(dp3064
g2
V9/4/92
p3065
sg4
S'../Write/JJDW6/jjd1978.doc'
p3066
sg6
VPower-9/92
p3067
sa(dp3068
g2
V9/7/92
p3069
sg4
S'../Write/JJDW6/jjd1928.doc'
p3070
sg6
VFall Issues-92
p3071
sa(dp3072
g2
V9/9/92
p3073
sg4
S'../Write/JJDW6/jjd1976.doc'
p3074
sg6
VPledge-92
p3075
sa(dp3076
g2
V9/9/92
p3077
sg4
S'../Write/JJDW6/jjd1967.doc'
p3078
sg6
VOUE Support-9/92
p3079
sa(dp3080
g2
V9/10/92
p3081
sg4
S'../Write/JJDW6/jjd1955.doc'
p3082
sg6
VKickoff 1.0
p3083
sa(dp3084
g2
V9/15/92
p3085
sg4
S'../Write/JJDW6/jjd1926.doc'
p3086
sg6
VFaculty Evaluation
p3087
sa(dp3088
g2
V9/15/92
p3089
sg4
S'../Write/JJDW6/jjd1996.doc'
p3090
sg6
VSoup-9/92
p3091
sa(dp3092
g2
V9/22/92
p3093
sg4
S'../Write/JJDW6/jjd1999.doc'
p3094
sg6
VState Layers
p3095
sa(dp3096
g2
V9/22/92
p3097
sg4
S'../Write/JJDW6/jjd1905.doc'
p3098
sg6
VBrown Bags
p3099
sa(dp3100
g2
V9/22/92
p3101
sg4
S'../Write/JJDW6/jjd1991.doc'
p3102
sg6
VRowe-9/92
p3103
sa(dp3104
g2
V9/22/92
p3105
sg4
S'../Write/JJDW6/jjd2011.doc'
p3106
sg6
VVPR Search
p3107
sa(dp3108
g2
V9/25/92
p3109
sg4
S'../Write/JJDW6/jjd1925.doc'
p3110
sg6
VEO-Deans 1.0
p3111
sa(dp3112
g2
V9/26/92
p3113
sg4
S'../Write/JJDW6/jjd1900.doc'
p3114
sg6
VAutoworld
p3115
sa(dp3116
g2
V10/7/92
p3117
sg4
S'../Write/JJDW6/jjd1922.doc'
p3118
sg6
VEO Letters (cont)
p3119
sa(dp3120
g2
V10/13/92
p3121
sg4
S'../Write/JJDW6/jjd1911.doc'
p3122
sg6
VCJ Dialog
p3123
sa(dp3124
g2
V10/14/92
p3125
sg4
S'../Write/JJDW6/jjd1949.doc'
p3126
sg6
VJJD Essay (Sports) 2.2
p3127
sa(dp3128
g2
V10/18/92
p3129
sg4
S'../Write/JJDW6/jjd1950.doc'
p3130
sg6
VJJD Essay (Teaching) 1.0
p3131
sa(dp3132
g2
V10/22/92
p3133
sg4
S'../Write/JJDW6/jjd1945.doc'
p3134
sg6
VIntellectual Change 2.2
p3135
sa(dp3136
g2
V10/28/92
p3137
sg4
S'../Write/JJDW6/jjd1988.doc'
p3138
sg6
VRegents Meetings
p3139
sa(dp3140
g2
V11/6/92
p3141
sg4
S'../Write/JJDW6/jjd1992.doc'
p3142
sg6
VRPI-11/92
p3143
sa(dp3144
g2
V11/11/92
p3145
sg4
S'../Write/JJDW6/jjd1953.doc'
p3146
sg6
VJoe/Jon
p3147
sa(dp3148
g2
V11/13/92
p3149
sg4
S'../Write/JJDW6/jjd1917.doc'
p3150
sg6
VE-mail notes
p3151
sa(dp3152
g2
V11/25/92
p3153
sg4
S'../Write/JJDW6/jjd1933.doc'
p3154
sg6
VGateway College
p3155
sa(dp3156
g2
V11/25/92
p3157
sg4
S'../Write/JJDW6/jjd1954.doc'
p3158
sg6
VJoe/Jon II
p3159
sa(dp3160
g2
V11/27/92
p3161
sg4
S'../Write/JJDW6/jjd2010.doc'
p3162
sg6
VVision Statement
p3163
sa(dp3164
g2
V11/27/92
p3165
sg4
S'../Write/JJDW6/jjd1983.doc'
p3166
sg6
VProgress Report
p3167
sa(dp3168
g2
S'1/27/92'
p3169
sg4
S'../Write/JJDW6/jjd1984.doc'
p3170
sg6
S'Progress Report 1.2'
p3171
sa(dp3172
g2
V12/7/92
p3173
sg4
S'../Write/JJDW6/jjd1987.doc'
p3174
sg6
VRegents Meeting Memo
p3175
sa(dp3176
g2
V12/18/92
p3177
sg4
S'../Write/JJDW6/jjd1920.doc'
p3178
sg6
VEng M&S
p3179
sa(dp3180
g2
V12/23/92
p3181
sg4
S'../Write/JJDW6/jjd1959.doc'
p3182
sg6
VNeal-12/92
p3183
sa(dp3184
g2
V12/26/92
p3185
sg4
S'../Write/JJDW6/jjd1930.doc'
p3186
sg6
VFin Aid Op-Ed 2.0
p3187
sa(dp3188
g2
V1/4/93
p3189
sg4
S'../Write/JJDW6/jjd1969.doc'
p3190
sg6
VPB 1.1
p3191
sa(dp3192
g2
V1/4/93
p3193
sg4
S'../Write/JJDW6/jjd1968.doc'
p3194
sg6
VPB 1.0
p3195
sa(dp3196
g2
V1/6/93
p3197
sg4
S'../Write/JJDW6/jjd1986.doc'
p3198
sg6
VRedrawing Boundaries 3.1
p3199
sa(dp3200
g2
V1/7/93
p3201
sg4
S'../Write/JJDW6/jjd1934.doc'
p3202
sg6
VGateway College 2.0
p3203
sa(dp3204
g2
V1/18/93
p3205
sg4
S'../Write/JJDW6/jjd1962.doc'
p3206
sg6
VNSB Report
p3207
sa(dp3208
g2
V1/18/93
p3209
sg4
S'../Write/JJDW6/jjd1937.doc'
p3210
sg6
VGovernor's Strategy 1.0
p3211
sa(dp3212
g2
V1/19/93
p3213
sg4
S'../Write/JJDW6/jjd1932.doc'
p3214
sg6
VFootball Championship
p3215
sa(dp3216
g2
V1/25/93
p3217
sg4
S'../Write/JJDW6/jjd1961.doc'
p3218
sg6
VNSB E-mail
p3219
sa(dp3220
g2
V1/26/93
p3221
sg4
S'../Write/JJDW6/jjd1904.doc'
p3222
sg6
VBowen-1/93
p3223
sa(dp3224
g2
V1/26/93
p3225
sg4
S'../Write/JJDW6/jjd1965.doc'
p3226
sg6
VOTA-1/93
p3227
sa(dp3228
g2
V1/29/93
p3229
sg4
S'../Write/JJDW6/jjd2012.doc'
p3230
sg6
VVPR Search Committee
p3231
sa(dp3232
g2
V2/3/93
p3233
sg4
S'../Write/JJDW6/jjd1935.doc'
p3234
sg6
VGibbons-2/93
p3235
sa(dp3236
g2
V2/5/93
p3237
sg4
S'../Write/JJDW6/jjd1931.doc'
p3238
sg6
VFinancial Aid 1.0
p3239
sa(dp3240
g2
V2/15/93
p3241
sg4
S'../Write/JJDW6/jjd1964.doc'
p3242
sg6
VNSF Director
p3243
sa(dp3244
g2
V3/4/93
p3245
sg4
S'../Write/JJDW6/jjd1899.doc'
p3246
sg6
VAlexander-3/93
p3247
sa(dp3248
g2
V3/9/93
p3249
sg4
S'../Write/JJDW6/jjd1907.doc'
p3250
sg6
VBudget Proposal
p3251
sa(dp3252
g2
V3/16/93
p3253
sg4
S'../Write/JJDW6/jjd1915.doc'
p3254
sg6
VDEVH-3/93
p3255
sa(dp3256
g2
V3/16/93
p3257
sg4
S'../Write/JJDW6/jjd1912.doc'
p3258
sg6
VComp Study
p3259
sa(dp3260
g2
V3/16/93
p3261
sg4
S'../Write/JJDW6/jjd2015.doc'
p3262
sg6
VWoodworth-3/93
p3263
sa(dp3264
g2
V3/22/93
p3265
sg4
S'../Write/JJDW6/jjd1994.doc'
p3266
sg6
VShalala-3/93
p3267
sa(dp3268
g2
V4/9/93
p3269
sg4
S'../Write/JJDW6/jjd2013.doc'
p3270
sg6
VWebber
p3271
sa(dp3272
g2
V4/14/93
p3273
sg4
S'../Write/JJDW6/jjd1960.doc'
p3274
sg6
VNotebook Data 1.1
p3275
sa(dp3276
g2
V4/20/93
p3277
sg4
S'../Write/JJDW6/jjd1918.doc'
p3278
sg6
VE-mail-4/93
p3279
sa(dp3280
g2
V4/25/93
p3281
sg4
S'../Write/JJDW6/jjd2000.doc'
p3282
sg6
VStrategic History 1.6
p3283
sa(dp3284
g2
V4/25/93
p3285
sg4
S'../Write/JJDW6/jjd1951.doc'
p3286
sg6
VJJD Rec
p3287
sa(dp3288
g2
V5/3/93
p3289
sg4
S'../Write/JJDW6/jjd1906.doc'
p3290
sg6
VBrown-5/93
p3291
sa(dp3292
g2
V5/5/93
p3293
sg4
S'../Write/JJDW6/jjd1936.doc'
p3294
sg6
VGibbons-5/93
p3295
sa(dp3296
g2
V5/5/93
p3297
sg4
S'../Write/JJDW6/jjd1903.doc'
p3298
sg6
VBobette-5/93
p3299
sa(dp3300
g2
V5/6/93
p3301
sg4
S'../Write/JJDW6/jjd1963.doc'
p3302
sg6
VNSB-facilities
p3303
sa(dp3304
g2
V5/6/93
p3305
sg4
S'../Write/JJDW6/jjd2005.doc'
p3306
sg6
VUM-Flint-a5/93
p3307
sa(dp3308
g2
V6/10/93
p3309
sg4
S'../Write/JJDW6/jjd1956.doc'
p3310
sg6
VMetrics
p3311
sa(dp3312
g2
V6/14/93
p3313
sg4
S'../Write/JJDW6/jjd1993.doc'
p3314
sg6
VSal Comp
p3315
sa(dp3316
g2
V6/16/93
p3317
sg4
S'../Write/JJDW6/jjd1958.doc'
p3318
sg6
VMoses Reference
p3319
sa(dp3320
g2
V6/27/93
p3321
sg4
S'../Write/JJDW6/jjd1921.doc'
p3322
sg6
VEO Counts
p3323
sa(dp3324
g2
V6/27/93
p3325
sg4
S'../Write/JJDW6/jjd2006.doc'
p3326
sg6
VUM-UC-UT Comp
p3327
sa(dp3328
g2
V7/1/93
p3329
sg4
S'../Write/JJDW6/jjd1898.doc'
p3330
sg6
VAdmin Cost Comp
p3331
sa(dp3332
g2
V7/3/93
p3333
sg4
S'../Write/JJDW6/jjd1939.doc'
p3334
sg6
VHTS-UMMC
p3335
sa(dp3336
g2
V7/6/93
p3337
sg4
S'../Write/JJDW6/jjd1981.doc'
p3338
sg6
VPresidential Candidates
p3339
sa(dp3340
g2
V7/8/93
p3341
sg4
S'../Write/JJDW6/jjd1923.doc'
p3342
sg6
VEO Restructuring
p3343
sa(dp3344
g2
V7/20/93
p3345
sg4
S'../Write/JJDW6/jjd1924.doc'
p3346
sg6
VEO Salary Letters
p3347
sa(dp3348
g2
V7/21/93
p3349
sg4
S'../Write/JJDW6/jjd1998.doc'
p3350
sg6
VStaff Salaries
p3351
sa(dp3352
g2
V8/2/93
p3353
sg4
S'../Write/JJDW6/jjd1957.doc'
p3354
sg6
VMisc Letters
p3355
sa(dp3356
g2
V8/4/93
p3357
sg4
S'../Write/JJDW6/jjd1977.doc'
p3358
sg6
VPower-8/93
p3359
sa(dp3360
g2
V8/9/93
p3361
sg4
S'../Write/JJDW6/jjd1970.doc'
p3362
sg6
VPB-Sports
p3363
sa(dp3364
g2
V8/10/93
p3365
sg4
S'../Write/JJDW6/jjd1990.doc'
p3366
sg6
VRegents-AD Search
p3367
sa(dp3368
g2
V8/19/93
p3369
sg4
S'../Write/JJDW6/jjd2002.doc'
p3370
sg6
VSwofford
p3371
sa(dp3372
g2
V10/25/93
p3373
sg4
S'../Write/JJDW6/jjd2009.doc'
p3374
sg6
VVision 2000 1.7
p3375
sa(dp3376
g2
V11/10/56
p3377
sg4
S'../Write/JJDW7/jjd2113.doc'
p3378
sg6
VTransformation Text 1.5
p3379
sa(dp3380
g2
V8/23/92
p3381
sg4
S'../Write/JJDW7/jjd2100.doc'
p3382
sg6
VSports 2.2
p3383
sa(dp3384
g2
V1/1/93
p3385
sg4
S'../Write/JJDW7/jjd2115.doc'
p3386
sg6
VUG Paradigm
p3387
sa(dp3388
g2
V1/1/93
p3389
sg4
S'../Write/JJDW7/jjd2124.doc'
p3390
sg6
VWAM Preamble
p3391
sa(dp3392
g2
V4/25/93
p3393
sg4
S'../Write/JJDW7/jjd2105.doc'
p3394
sg6
VStrategic History 2.0
p3395
sa(dp3396
g2
V4/25/93
p3397
sg4
S'../Write/JJDW7/jjd2104.doc'
p3398
sg6
VStrategic History 1.6
p3399
sa(dp3400
g2
V7/8/93
p3401
sg4
S'../Write/JJDW7/jjd2055.doc'
p3402
sg6
VEO Restructuring
p3403
sa(dp3404
g2
V7/13/93
p3405
sg4
S'../Write/JJDW7/jjd2083.doc'
p3406
sg6
VObert
p3407
sa(dp3408
g2
V7/13/93
p3409
sg4
S'../Write/JJDW7/jjd2029.doc'
p3410
sg6
VAMOCO
p3411
sa(dp3412
g2
V7/13/93
p3413
sg4
S'../Write/JJDW7/jjd2044.doc'
p3414
sg6
VCity Club
p3415
sa(dp3416
g2
V7/15/93
p3417
sg4
S'../Write/JJDW7/jjd2079.doc'
p3418
sg6
VNeal Lane-7/93
p3419
sa(dp3420
g2
V8/25/93
p3421
sg4
S'../Write/JJDW7/jjd2089.doc'
p3422
sg6
VProject Athena 0.92
p3423
sa(dp3424
g2
V8/25/93
p3425
sg4
S'../Write/JJDW7/jjd2093.doc'
p3426
sg6
VProject Athena 1.2
p3427
sa(dp3428
g2
V8/25/93
p3429
sg4
S'../Write/JJDW7/jjd2091.doc'
p3430
sg6
VProject Athena 1.0
p3431
sa(dp3432
g2
V9/2/93
p3433
sg4
S'../Write/JJDW7/jjd2027.doc'
p3434
sg6
VAD announcement
p3435
sa(dp3436
g2
V9/5/93
p3437
sg4
S'../Write/JJDW7/jjd2077.doc'
p3438
sg6
VMore History
p3439
sa(dp3440
g2
V9/9/93
p3441
sg4
S'../Write/JJDW7/jjd2064.doc'
p3442
sg6
VJapan-US talk
p3443
sa(dp3444
g2
V9/11/93
p3445
sg4
S'../Write/JJDW7/jjd2033.doc'
p3446
sg6
VBrowne
p3447
sa(dp3448
g2
V9/21/93
p3449
sg4
S'../Write/JJDW7/jjd2062.doc'
p3450
sg6
VITD Evolution
p3451
sa(dp3452
g2
V9/23/93
p3453
sg4
S'../Write/JJDW7/jjd2090.doc'
p3454
sg6
VProject Athena 0.92'
p3455
sa(dp3456
g2
V9/23/93
p3457
sg4
S'../Write/JJDW7/jjd2031.doc'
p3458
sg6
VAthena EO Memo
p3459
sa(dp3460
g2
V9/24/93
p3461
sg4
S'../Write/JJDW7/jjd2034.doc'
p3462
sg6
VBylaw Change
p3463
sa(dp3464
g2
V9/28/93
p3465
sg4
S'../Write/JJDW7/jjd2130.doc'
p3466
sg6
VWLH Memo
p3467
sa(dp3468
g2
V9/28/93
p3469
sg4
S'../Write/JJDW7/jjd2129.doc'
p3470
sg6
VWLH Letter
p3471
sa(dp3472
g2
V10/4/93
p3473
sg4
S'../Write/JJDW7/jjd2076.doc'
p3474
sg6
VMonorail
p3475
sa(dp3476
g2
V10/6/93
p3477
sg4
S'../Write/JJDW7/jjd2082.doc'
p3478
sg6
VNotes-Athena
p3479
sa(dp3480
g2
V10/7/93
p3481
sg4
S'../Write/JJDW7/jjd2041.doc'
p3482
sg6
VChristmas Letter 1.2
p3483
sa(dp3484
g2
V10/7/93
p3485
sg4
S'../Write/JJDW7/jjd2040.doc'
p3486
sg6
VChristmas Letter 1.1
p3487
sa(dp3488
g2
V10/11/93
p3489
sg4
S'../Write/JJDW7/jjd2048.doc'
p3490
sg6
VCosovich-10/11
p3491
sa(dp3492
g2
V10/13/93
p3493
sg4
S'../Write/JJDW7/jjd2053.doc'
p3494
sg6
VEO Comp Memo
p3495
sa(dp3496
g2
V10/24/93
p3497
sg4
S'../Write/JJDW7/jjd2057.doc'
p3498
sg6
VFWW Appointment
p3499
sa(dp3500
g2
V10/26/93
p3501
sg4
S'../Write/JJDW7/jjd2072.doc'
p3502
sg6
VMemo
p3503
sa(dp3504
g2
V10/26/93
p3505
sg4
S'../Write/JJDW7/jjd2099.doc'
p3506
sg6
VSOUP Memo
p3507
sa(dp3508
g2
V10/27/93
p3509
sg4
S'../Write/JJDW7/jjd2068.doc'
p3510
sg6
VLessons Learned
p3511
sa(dp3512
g2
V11/1/93
p3513
sg4
S'../Write/JJDW7/jjd2049.doc'
p3514
sg6
VDeans/EOs #2
p3515
sa(dp3516
g2
V11/1/93
p3517
sg4
S'../Write/JJDW7/jjd2086.doc'
p3518
sg6
VPicture Book Flap
p3519
sa(dp3520
g2
V11/1/93
p3521
sg4
S'../Write/JJDW7/jjd2084.doc'
p3522
sg6
VOp Ed Education
p3523
sa(dp3524
g2
V11/2/93
p3525
sg4
S'../Write/JJDW7/jjd2042.doc'
p3526
sg6
VChristmas Letter 1.4
p3527
sa(dp3528
g2
V11/11/93
p3529
sg4
S'../Write/JJDW7/jjd2046.doc'
p3530
sg6
VComputer Notes
p3531
sa(dp3532
g2
V11/11/93
p3533
sg4
S'../Write/JJDW7/jjd2092.doc'
p3534
sg6
VProject Athena 1.01
p3535
sa(dp3536
g2
V11/17/93
p3537
sg4
S'../Write/JJDW7/jjd2109.doc'
p3538
sg6
VTaubman-Found
p3539
sa(dp3540
g2
V11/18/93
p3541
sg4
S'../Write/JJDW7/jjd2087.doc'
p3542
sg6
VPres Commun
p3543
sa(dp3544
g2
V11/22/93
p3545
sg4
S'../Write/JJDW7/jjd2095.doc'
p3546
sg6
VProject Athena 2.2
p3547
sa(dp3548
g2
V11/22/93
p3549
sg4
S'../Write/JJDW7/jjd2094.doc'
p3550
sg6
VProject Athena 2.1
p3551
sa(dp3552
g2
V11/24/93
p3553
sg4
S'../Write/JJDW7/jjd2098.doc'
p3554
sg6
VRyan
p3555
sa(dp3556
g2
V11/25/93
p3557
sg4
S'../Write/JJDW7/jjd2119.doc'
p3558
sg6
VVision 2017 1.8
p3559
sa(dp3560
g2
V11/25/93
p3561
sg4
S'../Write/JJDW7/jjd2121.doc'
p3562
sg6
VVision 2017 2.1
p3563
sa(dp3564
g2
V11/29/93
p3565
sg4
S'../Write/JJDW7/jjd2063.doc'
p3566
sg6
VJanuary Regents
p3567
sa(dp3568
g2
V12/3/93
p3569
sg4
S'../Write/JJDW7/jjd2131.doc'
p3570
sg6
VWomen 2.3
p3571
sa(dp3572
g2
V12/4/93
p3573
sg4
S'../Write/JJDW7/jjd2069.doc'
p3574
sg6
VLiterature and Arts
p3575
sa(dp3576
g2
V12/10/93
p3577
sg4
S'../Write/JJDW7/jjd2123.doc'
p3578
sg6
VVisitors
p3579
sa(dp3580
g2
V12/11/93
p3581
sg4
S'../Write/JJDW7/jjd2133.doc'
p3582
sg6
VX-mas Letter
p3583
sa(dp3584
g2
V12/13/93
p3585
sg4
S'../Write/JJDW7/jjd2022.xls'
p3586
sg6
VFaculty '93
p3587
sa(dp3588
g2
V12/16/93
p3589
sg4
S'../Write/JJDW7/jjd2028.doc'
p3590
sg6
VAMD/JJD Gift
p3591
sa(dp3592
g2
V12/22/93
p3593
sg4
S'../Write/JJDW7/jjd2117.doc'
p3594
sg6
VVision 2000 Appen-I
p3595
sa(dp3596
g2
V12/22/93
p3597
sg4
S'../Write/JJDW7/jjd2118.doc'
p3598
sg6
VVision 2000 Appen-II
p3599
sa(dp3600
g2
V12/22/93
p3601
sg4
S'../Write/JJDW7/jjd2088.doc'
p3602
sg6
VProgress Table
p3603
sa(dp3604
g2
V12/29/93
p3605
sg4
S'../Write/JJDW7/jjd2085.doc'
p3606
sg6
VPeckham Intro
p3607
sa(dp3608
g2
V12/29/93
p3609
sg4
S'../Write/JJDW7/jjd2051.doc'
p3610
sg6
VDiversity Umbrella
p3611
sa(dp3612
g2
V12/30/93
p3613
sg4
S'../Write/JJDW7/jjd2110.doc'
p3614
sg6
VTransformation Text 1.0
p3615
sa(dp3616
g2
V1/3/94
p3617
sg4
S'../Write/JJDW7/jjd2116.doc'
p3618
sg6
VVision 2000 2.0
p3619
sa(dp3620
g2
V1/4/94
p3621
sg4
S'../Write/JJDW7/jjd2075.doc'
p3622
sg6
VModels 1.0
p3623
sa(dp3624
g2
V1/17/94
p3625
sg4
S'../Write/JJDW7/jjd2112.doc'
p3626
sg6
VTransformation Text 1.4
p3627
sa(dp3628
g2
V1/17/94
p3629
sg4
S'../Write/JJDW7/jjd2111.doc'
p3630
sg6
VTransformation Text 1.2
p3631
sa(dp3632
g2
V1/20/94
p3633
sg4
S'../Write/JJDW7/jjd2018.xls'
p3634
sg6
V% State App
p3635
sa(dp3636
g2
V1/20/94
p3637
sg4
S'../Write/JJDW7/jjd2019.xls'
p3638
sg6
V10y St Ap/FYES
p3639
sa(dp3640
g2
V1/20/94
p3641
sg4
S'../Write/JJDW7/jjd2020.xls'
p3642
sg6
VAll Funds Components
p3643
sa(dp3644
g2
V1/20/94
p3645
sg4
S'../Write/JJDW7/jjd2023.doc'
p3646
sg6
VGen Fund Percentages
p3647
sa(dp3648
g2
V1/20/94
p3649
sg4
S'../Write/JJDW7/jjd2071.doc'
p3650
sg6
VMcTaggart-1/94
p3651
sa(dp3652
g2
V1/20/94
p3653
sg4
S'../Write/JJDW7/jjd2294.xls'
p3654
sg6
V25y State App
p3655
sa(dp3656
g2
V1/26/94
p3657
sg4
S'../Write/JJDW7/jjd2125.doc'
p3658
sg6
VWeidenbach Era
p3659
sa(dp3660
g2
V1/29/94
p3661
sg4
S'../Write/JJDW7/jjd2114.doc'
p3662
sg6
VTrip E-mail
p3663
sa(dp3664
g2
V2/2/94
p3665
sg4
S'../Write/JJDW7/jjd2127.doc'
p3666
sg6
VWhite House-ST
p3667
sa(dp3668
g2
V2/2/94
p3669
sg4
S'../Write/JJDW7/jjd2126.doc'
p3670
sg6
VWhite House Draft
p3671
sa(dp3672
g2
V2/2/94
p3673
sg4
S'../Write/JJDW7/jjd2128.doc'
p3674
sg6
VWhite House-ST/JJD
p3675
sa(dp3676
g2
V2/12/94
p3677
sg4
S'../Write/JJDW7/jjd2132.doc'
p3678
sg6
VWomen 3.0
p3679
sa(dp3680
g2
V2/14/94
p3681
sg4
S'../Write/JJDW7/jjd2050.doc'
p3682
sg6
VDeputy Role
p3683
sa(dp3684
g2
V2/17/94
p3685
sg4
S'../Write/JJDW7/jjd2074.doc'
p3686
sg6
VMichigan Agenda Ex Sum 3.0
p3687
sa(dp3688
g2
V2/21/94
p3689
sg4
S'../Write/JJDW7/jjd2122.doc'
p3690
sg6
VVision 2017 2.2
p3691
sa(dp3692
g2
V2/27/94
p3693
sg4
S'../Write/JJDW7/jjd2096.doc'
p3694
sg6
VRegents-Vision 2017
p3695
sa(dp3696
g2
V3/2/94
p3697
sg4
S'../Write/JJDW7/jjd2103.doc'
p3698
sg6
VState of Univ 1993
p3699
sa(dp3700
g2
V3/14/94
p3701
sg4
S'../Write/JJDW7/jjd2080.doc'
p3702
sg6
VNederlander-3/94
p3703
sa(dp3704
g2
V3/14/94
p3705
sg4
S'../Write/JJDW7/jjd2043.doc'
p3706
sg6
VChrysler Center Office
p3707
sa(dp3708
g2
V3/20/94
p3709
sg4
S'../Write/JJDW7/jjd2101.doc'
p3710
sg6
VSports-Falls Response-Hot
p3711
sa(dp3712
g2
V3/20/94
p3713
sg4
S'../Write/JJDW7/jjd2102.doc'
p3714
sg6
VSports-Falls Response-Mild
p3715
sa(dp3716
g2
V3/24/94
p3717
sg4
S'../Write/JJDW7/jjd2032.doc'
p3718
sg6
VBowen-43/94
p3719
sa(dp3720
g2
V3/30/94
p3721
sg4
S'../Write/JJDW7/jjd2026.doc'
p3722
sg6
VAcademic Security Council
p3723
sa(dp3724
g2
V4/2/94
p3725
sg4
S'../Write/JJDW7/jjd2058.doc'
p3726
sg6
VFWW-Retirement
p3727
sa(dp3728
g2
V4/2/94
p3729
sg4
S'../Write/JJDW7/jjd2060.doc'
p3730
sg6
VGRW-Retirement
p3731
sa(dp3732
g2
V4/5/94
p3733
sg4
S'../Write/JJDW7/jjd2035.doc'
p3734
sg6
VCarol O'Brien
p3735
sa(dp3736
g2
V4/7/94
p3737
sg4
S'../Write/JJDW7/jjd2045.doc'
p3738
sg6
VComm->Trans Team Memo
p3739
sa(dp3740
g2
V4/22/94
p3741
sg4
S'../Write/JJDW7/jjd2081.doc'
p3742
sg6
VNelms-4/94
p3743
sa(dp3744
g2
V5/3/94
p3745
sg4
S'../Write/JJDW7/jjd2030.doc'
p3746
sg6
VAmster
p3747
sa(dp3748
g2
V5/16/94
p3749
sg4
S'../Write/JJDW7/jjd2039.doc'
p3750
sg6
VCharge-Process
p3751
sa(dp3752
g2
V5/16/94
p3753
sg4
S'../Write/JJDW7/jjd2108.doc'
p3754
sg6
VTask Force Composition
p3755
sa(dp3756
g2
V5/16/94
p3757
sg4
S'../Write/JJDW7/jjd2038.doc'
p3758
sg6
VCharge-New Markets
p3759
sa(dp3760
g2
V5/16/94
p3761
sg4
S'../Write/JJDW7/jjd2037.doc'
p3762
sg6
VCharge-Faculty Governance
p3763
sa(dp3764
g2
V5/16/94
p3765
sg4
S'../Write/JJDW7/jjd2036.doc'
p3766
sg6
VCharge-Faculty
p3767
sa(dp3768
g2
V5/18/94
p3769
sg4
S'../Write/JJDW7/jjd2067.doc'
p3770
sg6
VKinnear
p3771
sa(dp3772
g2
V6/12/94
p3773
sg4
S'../Write/JJDW7/jjd2106.doc'
p3774
sg6
VStrategic Plan 2017 
p3775
sa(dp3776
g2
V6/14/94
p3777
sg4
S'../Write/JJDW7/jjd2078.doc'
p3778
sg6
VNAE-6/94
p3779
sa(dp3780
g2
V6/14/94
p3781
sg4
S'../Write/JJDW7/jjd2066.doc'
p3782
sg6
VKennedy-6/94
p3783
sa(dp3784
g2
V6/14/94
p3785
sg4
S'../Write/JJDW7/jjd2097.doc'
p3786
sg6
VRenick-6/94
p3787
sa(dp3788
g2
V7/6/94
p3789
sg4
S'../Write/JJDW7/jjd2059.doc'
p3790
sg6
VGoals-Short
p3791
sa(dp3792
g2
V7/6/94
p3793
sg4
S'../Write/JJDW7/jjd2070.doc'
p3794
sg6
VMagic Bullets
p3795
sa(dp3796
g2
V7/18/94
p3797
sg4
S'../Write/JJDW7/jjd2047.doc'
p3798
sg6
VCornell Search
p3799
sa(dp3800
g2
V7/18/94
p3801
sg4
S'../Write/JJDW7/jjd2052.doc'
p3802
sg6
VEng Movers & Shakers
p3803
sa(dp3804
g2
V7/20/94
p3805
sg4
S'../Write/JJDW7/jjd2061.doc'
p3806
sg6
VInglis Supper Group
p3807
sa(dp3808
g2
V7/22/94
p3809
sg4
S'../Write/JJDW7/jjd2054.doc'
p3810
sg6
VEO FY95 Salaries
p3811
sa(dp3812
g2
V7/25/94
p3813
sg4
S'../Write/JJDW7/jjd2065.doc'
p3814
sg6
VJoan-7/94
p3815
sa(dp3816
g2
V8/9/94
p3817
sg4
S'../Write/JJDW7/jjd2056.doc'
p3818
sg6
VEO Salaries-94
p3819
sa(dp3820
g2
V8/24/94
p3821
sg4
S'../Write/JJDW7/jjd2073.doc'
p3822
sg6
VMich Agenda Aug Actions
p3823
sa(dp3824
g2
V8/31/94
p3825
sg4
S'../Write/JJDW7/jjd2107.doc'
p3826
sg6
VStrategic Plan 2017 1.1
p3827
sa(dp3828
g2
V9/14/94
p3829
sg4
S'../Write/JJDW7/jjd2024.xls'
p3830
sg6
VPres Salaries
p3831
sa(dp3832
g2
V9/11/94
p3833
sg4
S'../Write/JJDW8/jjd2176.doc'
p3834
sg6
VKellogg Letter Proposal
p3835
sa(dp3836
g2
V9/12/94
p3837
sg4
S'../Write/JJDW8/jjd2166.doc'
p3838
sg6
VAgenda List
p3839
sa(dp3840
g2
V9/17/94
p3841
sg4
S'../Write/JJDW8/jjd2180.doc'
p3842
sg6
VNewsletter #1
p3843
sa(dp3844
g2
V10/9/94
p3845
sg4
S'../Write/JJDW8/jjd2169.doc'
p3846
sg6
VCom List Memo
p3847
sa(dp3848
g2
V10/9/94
p3849
sg4
S'../Write/JJDW8/jjd2178.doc'
p3850
sg6
VMAH-K-12
p3851
sa(dp3852
g2
V10/16/94
p3853
sg4
S'../Write/JJDW8/jjd2171.doc'
p3854
sg6
VDiversity&Exc 7.1+hist
p3855
sa(dp3856
g2
V10/23/94
p3857
sg4
S'../Write/JJDW8/jjd2170.doc'
p3858
sg6
VDIRECTOR OF PRES EVENTS
p3859
sa(dp3860
g2
V11/20/94
p3861
sg4
S'../Write/JJDW8/jjd2173.doc'
p3862
sg6
VEVP-Health Affairs Memo
p3863
sa(dp3864
g2
V12/18/94
p3865
sg4
S'../Write/JJDW8/jjd2167.doc'
p3866
sg6
VAnnapolis Talk
p3867
sa(dp3868
g2
V12/21/94
p3869
sg4
S'../Write/JJDW8/jjd2195.ppt'
p3870
sg6
VFWW PAG Presentation
p3871
sa(dp3872
g2
V12/21/94
p3873
sg4
S'../Write/JJDW8/jjd2182.doc'
p3874
sg6
VPAG FWW Pres Doc 12/94
p3875
sa(dp3876
g2
V12/23/94
p3877
sg4
S'../Write/JJDW8/jjd2189.doc'
p3878
sg6
VVCM Letter
p3879
sa(dp3880
g2
V3/7/95
p3881
sg4
S'../Write/JJDW8/jjd2174.doc'
p3882
sg6
VEVPHA Statistics
p3883
sa(dp3884
g2
V3/8/95
p3885
sg4
S'../Write/JJDW8/jjd2179.doc'
p3886
sg6
VMSU v. UM
p3887
sa(dp3888
g2
V3/28/95
p3889
sg4
S'../Write/JJDW8/jjd2188.doc'
p3890
sg6
VUM-MSU Statistics
p3891
sa(dp3892
g2
V3/30/95
p3893
sg4
S'../Write/JJDW8/jjd2161.xls'
p3894
sg6
VChng in FYES/Enroll
p3895
sa(dp3896
g2
V4/3/95
p3897
sg4
S'../Write/JJDW8/jjd2159.xls'
p3898
sg6
VChart-91
p3899
sa(dp3900
g2
V4/3/95
p3901
sg4
S'../Write/JJDW8/jjd2158.xls'
p3902
sg6
VChart-87
p3903
sa(dp3904
g2
V4/3/95
p3905
sg4
S'../Write/JJDW8/jjd2160.xls'
p3906
sg6
VCharts
p3907
sa(dp3908
g2
V4/3/95
p3909
sg4
S'../Write/JJDW8/jjd2157.xls'
p3910
sg6
VChanges-87-91
p3911
sa(dp3912
g2
V4/20/95
p3913
sg4
S'../Write/JJDW8/jjd2183.doc'
p3914
sg6
VPolitical Objectives
p3915
sa(dp3916
g2
V5/13/95
p3917
sg4
S'../Write/JJDW8/jjd2175.doc'
p3918
sg6
VFootball Coaches
p3919
sa(dp3920
g2
V6/24/95
p3921
sg4
S'../Write/JJDW8/jjd2181.doc'
p3922
sg6
VNona-Test
p3923
sa(dp3924
g2
V7/6/95
p3925
sg4
S'../Write/JJDW8/jjd2190.doc'
p3926
sg6
VWomen 5.0
p3927
sa(dp3928
g2
V7/9/95
p3929
sg4
S'../Write/JJDW8/jjd2191.doc'
p3930
sg6
VWomen Ex Sum 5.0
p3931
sa(dp3932
g2
V7/13/95
p3933
sg4
S'../Write/JJDW8/jjd2177.doc'
p3934
sg6
VLandscaping Ideas
p3935
sa(dp3936
g2
V7/16/95
p3937
sg4
S'../Write/JJDW8/jjd2185.doc'
p3938
sg6
VRegents Memo
p3939
sa(dp3940
g2
V7/24/95
p3941
sg4
S'../Write/JJDW8/jjd2187.doc'
p3942
sg6
VTransformation Text 1.6
p3943
sa(dp3944
g2
V7/28/95
p3945
sg4
S'../Write/JJDW8/jjd2165.doc'
p3946
sg6
VAAU Nominations
p3947
sa(dp3948
g2
V7/30/95
p3949
sg4
S'../Write/JJDW8/jjd2172.doc'
p3950
sg6
VEO FY96 Salaries
p3951
sa(dp3952
g2
V8/10/95
p3953
sg4
S'../Write/JJDW8/jjd2184.doc'
p3954
sg6
VPres Budget
p3955
sa(dp3956
g2
V8/16/95
p3957
sg4
S'../Write/JJDW8/jjd2186.doc'
p3958
sg6
VRegents--EO Salaries
p3959
sa(dp3960
g2
V8/31/95
p3961
sg4
S'../Write/JJDW8/jjd2168.doc'
p3962
sg6
VCHS 60
p3963
sa(dp3964
g2
V12/24/89
p3965
sg4
S'../Write/JJDW9/jjd2252.doc'
p3966
sg6
VScience Ed Notes
p3967
sa(dp3968
g2
V1/12/94
p3969
sg4
S'../Write/JJDW9/jjd2208.doc'
p3970
sg6
VEmeritus Guidelines
p3971
sa(dp3972
g2
V5/21/95
p3973
sg4
S'../Write/JJDW9/jjd2198.doc'
p3974
sg6
VBio Profile (Short)
p3975
sa(dp3976
g2
V9/5/95
p3977
sg4
S'../Write/JJDW9/jjd2265.doc'
p3978
sg6
VStaff Salaries-95
p3979
sa(dp3980
g2
V9/20/95
p3981
sg4
S'../Write/JJDW9/jjd2264.doc'
p3982
sg6
VSidman
p3983
sa(dp3984
g2
V9/27/95
p3985
sg4
S'../Write/JJDW9/jjd2231.doc'
p3986
sg6
VPAG-1995
p3987
sa(dp3988
g2
V9/27/95
p3989
sg4
S'../Write/JJDW9/jjd2218.doc'
p3990
sg6
VJJD Resign
p3991
sa(dp3992
g2
V9/27/95
p3993
sg4
S'../Write/JJDW9/jjd2221.doc'
p3994
sg6
VLetter to Community
p3995
sa(dp3996
g2
V9/28/95
p3997
sg4
S'../Write/JJDW9/jjd2271.doc'
p3998
sg6
VWomack
p3999
sa(dp4000
g2
V10/1/95
p4001
sg4
S'../Write/JJDW9/jjd2226.doc'
p4002
sg6
VMax Fisher
p4003
sa(dp4004
g2
V10/5/95
p4005
sg4
S'../Write/JJDW9/jjd2223.doc'
p4006
sg6
VMachen Apt
p4007
sa(dp4008
g2
V10/5/95
p4009
sg4
S'../Write/JJDW9/jjd2235.doc'
p4010
sg6
VRegents-Transition
p4011
sa(dp4012
g2
V10/5/95
p4013
sg4
S'../Write/JJDW9/jjd2270.doc'
p4014
sg6
VVisitors
p4015
sa(dp4016
g2
V10/9/95
p4017
sg4
S'../Write/JJDW9/jjd2214.doc'
p4018
sg6
VGibson
p4019
sa(dp4020
g2
V10/11/95
p4021
sg4
S'../Write/JJDW9/jjd2224.doc'
p4022
sg6
VMachen Apt-II
p4023
sa(dp4024
g2
V10/12/95
p4025
sg4
S'../Write/JJDW9/jjd2213.doc'
p4026
sg6
VGeorge Slykhouse
p4027
sa(dp4028
g2
V10/12/95
p4029
sg4
S'../Write/JJDW9/jjd2203.doc'
p4030
sg6
VDamon Keith
p4031
sa(dp4032
g2
V11/9/95
p4033
sg4
S'../Write/JJDW9/jjd2202.doc'
p4034
sg6
VConn-reference
p4035
sa(dp4036
g2
V11/9/95
p4037
sg4
S'../Write/JJDW9/jjd2268.doc'
p4038
sg6
VUCSC-Reference
p4039
sa(dp4040
g2
V11/16/95
p4041
sg4
S'../Write/JJDW9/jjd2207.doc'
p4042
sg6
VElsa-Salary
p4043
sa(dp4044
g2
V1/20/95
p4045
sg4
S'../Write/JJDW9/jjd2229.doc'
p4046
sg6
VNeal-11/951
p4047
sa(dp4048
g2
V11/20/95
p4049
sg4
S'../Write/JJDW9/jjd2220.doc'
p4050
sg6
VKinnear-11/95
p4051
sa(dp4052
g2
V12/12/95
p4053
sg4
S'../Write/JJDW9/jjd2230.doc'
p4054
sg6
VNeal-12/95
p4055
sa(dp4056
g2
V12/12/95
p4057
sg4
S'../Write/JJDW9/jjd2225.doc'
p4058
sg6
VMachen-12/95
p4059
sa(dp4060
g2
V12/13/95
p4061
sg4
S'../Write/JJDW9/jjd2219.doc'
p4062
sg6
VJJD Thanks
p4063
sa(dp4064
g2
V1/4/96
p4065
sg4
S'../Write/JJDW9/jjd2266.doc'
p4066
sg6
VSteffan-1/96
p4067
sa(dp4068
g2
V1/18/96
p4069
sg4
S'../Write/JJDW9/jjd2201.doc'
p4070
sg6
VCap Outlay
p4071
sa(dp4072
g2
V1/18/96
p4073
sg4
S'../Write/JJDW9/jjd2215.doc'
p4074
sg6
VHarrison-1/96
p4075
sa(dp4076
g2
V2/15/96
p4077
sg4
S'../Write/JJDW9/jjd2236.doc'
p4078
sg6
VRoberson-2/96
p4079
sa(dp4080
g2
V2/19/96
p4081
sg4
S'../Write/JJDW9/jjd2267.doc'
p4082
sg6
VSummerfield-2/96
p4083
sa(dp4084
g2
V2/23/96
p4085
sg4
S'../Write/JJDW9/jjd2209.doc'
p4086
sg6
VEng Letter
p4087
sa(dp4088
g2
V2/26/96
p4089
sg4
S'../Write/JJDW9/jjd2199.doc'
p4090
sg6
VBoard in Control
p4091
sa(dp4092
g2
V2/27/96
p4093
sg4
S'../Write/JJDW9/jjd2210.doc'
p4094
sg6
VEng Letter 2
p4095
sa(dp4096
g2
V3/15/96
p4097
sg4
S'../Write/JJDW9/jjd2233.doc'
p4098
sg6
VPrinceton
p4099
sa(dp4100
g2
V4/3/96
p4101
sg4
S'../Write/JJDW9/jjd2196.doc'
p4102
sg6
VAthletics
p4103
sa(dp4104
g2
V4/4/96
p4105
sg4
S'../Write/JJDW9/jjd2216.doc'
p4106
sg6
VHillegonds
p4107
sa(dp4108
g2
V4/8/96
p4109
sg4
S'../Write/JJDW9/jjd2217.doc'
p4110
sg6
VHistory and Traditions
p4111
sa(dp4112
g2
V5/7/96
p4113
sg4
S'../Write/JJDW9/jjd2200.doc'
p4114
sg6
VCampaign-$250 K
p4115
sa(dp4116
g2
V5/8/96
p4117
sg4
S'../Write/JJDW9/jjd2227.doc'
p4118
sg6
VMedia Union Program
p4119
sa(dp4120
g2
V5/10/96
p4121
sg4
S'../Write/JJDW9/jjd2228.doc'
p4122
sg6
VNAE Letter
p4123
sa(dp4124
g2
V5/15/96
p4125
sg4
S'../Write/JJDW9/jjd2234.doc'
p4126
sg6
VPritchard
p4127
sa(dp4128
g2
V5/16/96
p4129
sg4
S'../Write/JJDW9/jjd2237.doc'
p4130
sg6
VSample
p4131
sa(dp4132
g2
V5/21/96
p4133
sg4
S'../Write/JJDW9/jjd2212.doc'
p4134
sg6
VFord
p4135
sa(dp4136
g2
V6/4/96
p4137
sg4
S'../Write/JJDW9/jjd2205.doc'
p4138
sg6
VDelaney
p4139
sa(dp4140
g2
V6/10/96
p4141
sg4
S'../Write/JJDW9/jjd2232.doc'
p4142
sg6
VPresident's House
p4143
sa(dp4144
g2
V6/12/96
p4145
sg4
S'../Write/JJDW9/jjd2197.doc'
p4146
sg6
VBICIA
p4147
sa(dp4148
g2
V6/13/96
p4149
sg4
S'../Write/JJDW9/jjd2204.doc'
p4150
sg6
Vdeans thankyou
p4151
sa(dp4152
g2
V6/18/96
p4153
sg4
S'../Write/JJDW9/jjd2269.doc'
p4154
sg6
VVennema
p4155
sa(dp4156
g2
V6/19/96
p4157
sg4
S'../Write/JJDW9/jjd2206.doc'
p4158
sg6
VDevelopment
p4159
sa(dp4160
g2
V8/16/96
p4161
sg4
S'../Write/JJDW9/jjd2222.doc'
p4162
sg6
VLevin
p4163
sa(dp4164
g2
V8/28/96
p4165
sg4
S'../Write/JJDW9/jjd2248.doc'
p4166
sg6
VRackham 50th
p4167
sa(dp4168
g2
V8/28/96
p4169
sg4
S'../Write/JJDW9/jjd2247.doc'
p4170
sg6
VParadigms
p4171
sa(dp4172
g2
V8/28/96
p4173
sg4
S'../Write/JJDW9/jjd2246.doc'
p4174
sg6
VNSB-UC-Davis
p4175
sa(dp4176
g2
S'8/28/96'
p4177
sg4
S'../Write/JJDW9/jjd2244.doc'
p4178
sg6
S'GUIR Presentation'
p4179
sa(dp4180
g2
V8/28/96
p4181
sg4
S'../Write/JJDW9/jjd2249.doc'
p4182
sg6
VRedrawing Boundaries
p4183
sa(dp4184
g2
V8/28/96
p4185
sg4
S'../Write/JJDW9/jjd2240.doc'
p4186
sg6
VCaltech
p4187
sa(dp4188
g2
V8/28/96
p4189
sg4
S'../Write/JJDW9/jjd2243.doc'
p4190
sg6
VGraduate
p4191
sa(dp4192
g2
V8/28/96
p4193
sg4
S'../Write/JJDW9/jjd2250.doc'
p4194
sg6
VResearch University Notes
p4195
sa(dp4196
g2
V8/28/96
p4197
sg4
S'../Write/JJDW9/jjd2254.doc'
p4198
sg6
VScience Education Talk
p4199
sa(dp4200
g2
V8/28/96
p4201
sg4
S'../Write/JJDW9/jjd2251.doc'
p4202
sg6
VResearch Videotape
p4203
sa(dp4204
g2
V8/28/96
p4205
sg4
S'../Write/JJDW9/jjd2241.doc'
p4206
sg6
VColumbia Symposium
p4207
sa(dp4208
g2
V8/28/96
p4209
sg4
S'../Write/JJDW9/jjd2245.doc'
p4210
sg6
VNat Econ Council
p4211
sa(dp4212
g2
V8/28/96
p4213
sg4
S'../Write/JJDW9/jjd2263.doc'
p4214
sg6
VWhite House-ST/JJD
p4215
sa(dp4216
g2
V8/28/96
p4217
sg4
S'../Write/JJDW9/jjd2261.doc'
p4218
sg6
VTechnology Policy
p4219
sa(dp4220
g2
V8/28/96
p4221
sg4
S'../Write/JJDW9/jjd2262.doc'
p4222
sg6
VTraineeship
p4223
sa(dp4224
g2
V8/28/96
p4225
sg4
S'../Write/JJDW9/jjd2253.doc'
p4226
sg6
VScience Education 3.0
p4227
sa(dp4228
g2
V8/28/96
p4229
sg4
S'../Write/JJDW9/jjd2260.doc'
p4230
sg6
VTeaching and Research 2.1
p4231
sa(dp4232
g2
V8/28/96
p4233
sg4
S'../Write/JJDW9/jjd2259.doc'
p4234
sg6
VSigma Xi
p4235
sa(dp4236
g2
V8/28/96
p4237
sg4
S'../Write/JJDW9/jjd2258.doc'
p4238
sg6
VScientific Integrity
p4239
sa(dp4240
g2
V8/28/96
p4241
sg4
S'../Write/JJDW9/jjd2257.doc'
p4242
sg6
VScience Policy Book
p4243
sa(dp4244
g2
V8/28/96
p4245
sg4
S'../Write/JJDW9/jjd2256.doc'
p4246
sg6
VScience Manpower
p4247
sa(dp4248
g2
V8/28/96
p4249
sg4
S'../Write/JJDW9/jjd2255.doc'
p4250
sg6
VScience H.S. Talk
p4251
sa(dp4252
g2
V8/28/96
p4253
sg4
S'../Write/JJDW9/jjd2242.doc'
p4254
sg6
VFrontier
p4255
sa(dp4256
g2
V8/28/96
p4257
sg4
S'../Write/JJDW9/jjd2239.doc'
p4258
sg6
VBasic vs. Applied
p4259
sa(dp4260
g2
V7/30/96
p4261
sg4
S'../Legacy/JJDLE1/jjd2.pdf'
p4262
sg6
VAthletics Monograph
p4263
sa(dp4264
g2
V8/1/96
p4265
sg4
S'../Legacy/JJDLE1/jjd3.txt'
p4266
sg6
VCost, price, and value
p4267
sa(dp4268
g2
V8/1/96
p4269
sg4
S'../Legacy/JJDLE1/jjd4.txt'
p4270
sg6
VDiversity Intro
p4271
sa(dp4272
g2
V8/1/96
p4273
sg4
S'../Legacy/JJDLE1/jjd5.txt'
p4274
sg6
VDiversity&Exc 7.2+hist
p4275
sa(dp4276
g2
V8/1/96
p4277
sg4
S'../Legacy/JJDLE1/jjd6.txt'
p4278
sg6
VEducation intro
p4279
sa(dp4280
g2
V8/1/96
p4281
sg4
S'../Legacy/JJDLE1/jjd7.pdf'
p4282
sg6
VEducation mono
p4283
sa(dp4284
g2
V8/1/96
p4285
sg4
S'../Legacy/JJDLE1/jjd8.txt'
p4286
sg6
VIntellect Trans Mono
p4287
sa(dp4288
g2
V8/1/96
p4289
sg4
S'../Legacy/JJDLE1/jjd9.txt'
p4290
sg6
VM-Union Mono
p4291
sa(dp4292
g2
V8/1/96
p4293
sg4
S'../Legacy/JJDLE1/jjd10.txt'
p4294
sg6
VMedia U Intro
p4295
sa(dp4296
g2
V8/1/96
p4297
sg4
S'../Legacy/JJDLE1/jjd36.txt'
p4298
sg6
Vsun/structure
p4299
sa(dp4300
g2
V8/1/96
p4301
sg4
S'../Legacy/JJDLE1/jjd12.pdf'
p4302
sg6
VStrategic Plan text
p4303
sa(dp4304
g2
V8/1/96
p4305
sg4
S'../Legacy/JJDLE1/jjd13.txt'
p4306
sg6
VStrategy appendx 1
p4307
sa(dp4308
g2
V8/1/96
p4309
sg4
S'../Legacy/JJDLE1/jjd14.txt'
p4310
sg6
VStrategy appndx 2
p4311
sa(dp4312
g2
V8/1/96
p4313
sg4
S'../Legacy/JJDLE1/jjd15.txt'
p4314
sg6
VStrategy appndx 3
p4315
sa(dp4316
g2
V8/1/96
p4317
sg4
S'../Legacy/JJDLE1/jjd16.txt'
p4318
sg6
VStrategy appndx 4
p4319
sa(dp4320
g2
V8/1/96
p4321
sg4
S'../Legacy/JJDLE1/jjd18.txt'
p4322
sg6
Vsun/agenda list 1
p4323
sa(dp4324
g2
V8/1/96
p4325
sg4
S'../Legacy/JJDLE1/jjd21.txt'
p4326
sg6
Vsun/bedrock
p4327
sa(dp4328
g2
V8/1/96
p4329
sg4
S'../Legacy/JJDLE1/jjd19.txt'
p4330
sg6
Vsun/agenda list 2
p4331
sa(dp4332
g2
V8/1/96
p4333
sg4
S'../Legacy/JJDLE1/jjd22.txt'
p4334
sg6
Vsun/buildings list
p4335
sa(dp4336
g2
V8/1/96
p4337
sg4
S'../Legacy/JJDLE1/jjd23.txt'
p4338
sg6
Vsun/change
p4339
sa(dp4340
g2
V8/1/96
p4341
sg4
S'../Legacy/JJDLE1/jjd24.txt'
p4342
sg6
Vsun/constant change
p4343
sa(dp4344
g2
V8/1/96
p4345
sg4
S'../Legacy/JJDLE1/jjd25.txt'
p4346
sg6
Vsun/diversity
p4347
sa(dp4348
g2
V8/1/96
p4349
sg4
S'../Legacy/JJDLE1/jjd26.txt'
p4350
sg6
Vsun/educ list
p4351
sa(dp4352
g2
V8/1/96
p4353
sg4
S'../Legacy/JJDLE1/jjd27.txt'
p4354
sg6
Vsun/education
p4355
sa(dp4356
g2
V8/1/96
p4357
sg4
S'../Legacy/JJDLE1/jjd11.txt'
p4358
sg6
VState of the U
p4359
sa(dp4360
g2
V8/1/96
p4361
sg4
S'../Legacy/JJDLE1/jjd29.txt'
p4362
sg6
Vsun/leaders list
p4363
sa(dp4364
g2
V8/1/96
p4365
sg4
S'../Legacy/JJDLE1/jjd28.txt'
p4366
sg6
Vsun/leaders firsts list
p4367
sa(dp4368
g2
V8/1/96
p4369
sg4
S'../Legacy/JJDLE1/jjd31.txt'
p4370
sg6
Vsun/leaders top 10 list
p4371
sa(dp4372
g2
V8/1/96
p4373
sg4
S'../Legacy/JJDLE1/jjd32.txt'
p4374
sg6
Vsun/nurture growth
p4375
sa(dp4376
g2
V8/1/96
p4377
sg4
S'../Legacy/JJDLE1/jjd33.txt'
p4378
sg6
Vsun/outreach list
p4379
sa(dp4380
g2
V8/1/96
p4381
sg4
S'../Legacy/JJDLE1/jjd34.txt'
p4382
sg6
Vsun/rankings list
p4383
sa(dp4384
g2
V8/1/96
p4385
sg4
S'../Legacy/JJDLE1/jjd35.txt'
p4386
sg6
Vsun/service
p4387
sa(dp4388
g2
V8/1/96
p4389
sg4
S'../Legacy/JJDLE1/jjd30.txt'
p4390
sg6
Vsun/leaders text
p4391
sa(dp4392
g2
V8/1/96
p4393
sg4
S'../Legacy/JJDLE1/jjd20.txt'
p4394
sg6
Vsun/agenda,mandate,access
p4395
sa(dp4396
g2
V12/27/87
p4397
sg4
S'../Presentations/JJDPR/jjd537.pdf'
p4398
sg6
VAcademic Affairs-1/88
p4399
sa(dp4400
g2
V3/11/88
p4401
sg4
S'../Presentations/JJDPR/jjd541.pdf'
p4402
sg6
VMission Statement
p4403
sa(dp4404
g2
V4/18/88
p4405
sg4
S'../Presentations/JJDPR/jjd542.pdf'
p4406
sg6
VMission-35mm
p4407
sa(dp4408
g2
V5/16/88
p4409
sg4
S'../Presentations/JJDPR/jjd538.pdf'
p4410
sg6
VFY88-89 Budget-(5/88)
p4411
sa(dp4412
g2
V11/20/88
p4413
sg4
S'../Presentations/JJDPR/jjd539.pdf'
p4414
sg6
VMichigan Mandate 2.2
p4415
sa(dp4416
g2
V11/21/88
p4417
sg4
S'../Presentations/JJDPR/jjd540.pdf'
p4418
sg6
VMichigan Mandate 2.2C
p4419
sa(dp4420
g2
V2/4/89
p4421
sg4
S'../Presentations/JJDPR/jjd543.pdf'
p4422
sg6
VCampaign Ideas 1.0
p4423
sa(dp4424
g2
V4/26/89
p4425
sg4
S'../Presentations/JJDPR/jjd545.pdf'
p4426
sg6
VCommunity Outreach
p4427
sa(dp4428
g2
V5/24/89
p4429
sg4
S'../Presentations/JJDPR/jjd549.pdf'
p4430
sg6
VState Support
p4431
sa(dp4432
g2
V7/8/89
p4433
sg4
S'../Presentations/JJDPR/jjd547.pdf'
p4434
sg6
VRegents Retreat
p4435
sa(dp4436
g2
V9/1/89
p4437
sg4
S'../Presentations/JJDPR/jjd546.pdf'
p4438
sg6
VLeadership Retreat
p4439
sa(dp4440
g2
V9/11/89
p4441
sg4
S'../Presentations/JJDPR/jjd548.pdf'
p4442
sg6
VState Strategy-89
p4443
sa(dp4444
g2
V10/17/89
p4445
sg4
S'../Presentations/JJDPR/jjd544.pdf'
p4446
sg6
VCampaign--11/89
p4447
sa(dp4448
g2
V12/6/89
p4449
sg4
S'../Presentations/JJDPR/jjd550.pdf'
p4450
sg6
VTuition Retreat
p4451
sa(dp4452
g2
V1/6/90
p4453
sg4
S'../Presentations/JJDPR/jjd566.pdf'
p4454
sg6
VCommunication
p4455
sa(dp4456
g2
V1/14/90
p4457
sg4
S'../Presentations/JJDPR/jjd561.pdf'
p4458
sg6
VScience Education
p4459
sa(dp4460
g2
V2/17/90
p4461
sg4
S'../Presentations/JJDPR/jjd551.pdf'
p4462
sg6
VBusiness Plan-1990s
p4463
sa(dp4464
g2
V3/12/90
p4465
sg4
S'../Presentations/JJDPR/jjd556.pdf'
p4466
sg6
VEye on the Ball
p4467
sa(dp4468
g2
V4/6/90
p4469
sg4
S'../Presentations/JJDPR/jjd552.pdf'
p4470
sg6
VCampaign Briefing-1990
p4471
sa(dp4472
g2
V4/6/90
p4473
sg4
S'../Presentations/JJDPR/jjd555.pdf'
p4474
sg6
VEconomics Dinner Group
p4475
sa(dp4476
g2
V4/11/90
p4477
sg4
S'../Presentations/JJDPR/jjd553.pdf'
p4478
sg6
VCampaign-Color
p4479
sa(dp4480
g2
V4/18/90
p4481
sg4
S'../Presentations/JJDPR/jjd554.pdf'
p4482
sg6
VCampaign-Color-update
p4483
sa(dp4484
g2
V5/7/90
p4485
sg4
S'../Presentations/JJDPR/jjd565.pdf'
p4486
sg6
VCampaign GoNoGo
p4487
sa(dp4488
g2
V6/11/90
p4489
sg4
S'../Presentations/JJDPR/jjd560.pdf'
p4490
sg6
VNSB-6/90
p4491
sa(dp4492
g2
V6/23/90
p4493
sg4
S'../Presentations/JJDPR/jjd563.pdf'
p4494
sg6
VUM Organization
p4495
sa(dp4496
g2
V8/29/90
p4497
sg4
S'../Presentations/JJDPR/jjd562.pdf'
p4498
sg6
VTitle List
p4499
sa(dp4500
g2
V9/3/90
p4501
sg4
S'../Presentations/JJDPR/jjd558.pdf'
p4502
sg6
VLeadership Retreat-F90
p4503
sa(dp4504
g2
V11/5/90
p4505
sg4
S'../Presentations/JJDPR/jjd557.pdf'
p4506
sg6
VEye on the Ball-II
p4507
sa(dp4508
g2
V1/4/91
p4509
sg4
S'../Presentations/JJDPR/jjd575.pdf'
p4510
sg6
VResources for the 1990s
p4511
sa(dp4512
g2
V2/5/91
p4513
sg4
S'../Presentations/JJDPR/jjd574.pdf'
p4514
sg6
VRegent Priorities
p4515
sa(dp4516
g2
V2/25/91
p4517
sg4
S'../Presentations/JJDPR/jjd576.pdf'
p4518
sg6
Vslides-Resources for the 1990's
p4519
sa(dp4520
g2
V2/28/91
p4521
sg4
S'../Presentations/JJDPR/jjd578.pdf'
p4522
sg6
Vwhite-Resources for the 1990's
p4523
sa(dp4524
g2
V3/5/91
p4525
sg4
S'../Presentations/JJDPR/jjd564.pdf'
p4526
sg6
VAthenaeum
p4527
sa(dp4528
g2
V4/3/91
p4529
sg4
S'../Presentations/JJDPR/jjd2281.pdf'
p4530
sg6
VYNH Projects
p4531
sa(dp4532
g2
V5/29/91
p4533
sg4
S'../Presentations/JJDPR/jjd2280.pdf'
p4534
sg6
VStrategic Marketing
p4535
sa(dp4536
g2
V7/20/91
p4537
sg4
S'../Presentations/JJDPR/jjd571.pdf'
p4538
sg6
VFutures/Missions
p4539
sa(dp4540
g2
V8/30/91
p4541
sg4
S'../Presentations/JJDPR/jjd577.pdf'
p4542
sg6
VThe Plan Itself 1.1
p4543
sa(dp4544
g2
V8/30/91
p4545
sg4
S'../Presentations/JJDPR/jjd572.pdf'
p4546
sg6
VFuturing
p4547
sa(dp4548
g2
V8/30/91
p4549
sg4
S'../Presentations/JJDPR/jjd568.pdf'
p4550
sg6
VEO Retreat-93
p4551
sa(dp4552
g2
V8/30/91
p4553
sg4
S'../Presentations/JJDPR/jjd569.pdf'
p4554
sg6
VEO Strategic Update
p4555
sa(dp4556
g2
V8/30/91
p4557
sg4
S'../Presentations/JJDPR/jjd567.pdf'
p4558
sg6
VEO Retreat (Fall-91)
p4559
sa(dp4560
g2
V9/1/91
p4561
sg4
S'../Presentations/JJDPR/jjd570.pdf'
p4562
sg6
VFutures Group 1.0
p4563
sa(dp4564
g2
V2/3/92
p4565
sg4
S'../Presentations/JJDPR/jjd581.pdf'
p4566
sg6
VThe Top Ten
p4567
sa(dp4568
g2
V2/3/92
p4569
sg4
S'../Presentations/JJDPR/jjd580.pdf'
p4570
sg6
VStrategic Planning Update
p4571
sa(dp4572
g2
V6/6/92
p4573
sg4
S'../Presentations/JJDPR/jjd579.pdf'
p4574
sg6
VMichigan Mandate-Color
p4575
sa(dp4576
g2
V11/10/93
p4577
sg4
S'../Presentations/JJDPR/jjd582.pdf'
p4578
sg6
VVision 2017 Pres 1.0
p4579
sa(dp4580
g2
V1/7/94
p4581
sg4
S'../Presentations/JJDPR/jjd536.pdf'
p4582
sg6
VTransformation Course
p4583
sa(dp4584
g2
V11/20/94
p4585
sg4
S'../Presentations/JJDPR/jjd535.pdf'
p4586
sg6
VEVPHA Presentation
p4587
sa(dp4588
g2
V6/8/95
p4589
sg4
S'../Presentations/JJDPR/jjd584.pdf'
p4590
sg6
VResources Update
p4591
sa(dp4592
g2
V6/8/95
p4593
sg4
S'../Presentations/JJDPR/jjd585.pdf'
p4594
sg6
VResources Update-11
p4595
sa(dp4596
g2
V6/9/95
p4597
sg4
S'../Presentations/JJDPR/jjd583.pdf'
p4598
sg6
VResources
p4599
sa(dp4600
g2
V5/20/96
p4601
sg4
S'../Presentations/JJDPR/jjd594.pdf'
p4602
sg6
VRegents Resources
p4603
sa(dp4604
g2
V8/30/96
p4605
sg4
S'../Presentations/JJDPR/jjd595.pdf'
p4606
sg6
VTransformation Course 1
p4607
sa(dp4608
g2
V8/30/96
p4609
sg4
S'../Presentations/JJDPR/jjd596.pdf'
p4610
sg6
VTransformation Course 2
p4611
sa(dp4612
g2
V8/31/96
p4613
sg4
S'../Presentations/JJDPR/jjd593.pdf'
p4614
sg6
VMillennium Seminar
p4615
sa(dp4616
g2
V8/25/85
p4617
sg4
S'../Speeches/JJDS1/jjd774.pdf'
p4618
sg6
VPhysics-85
p4619
sa(dp4620
g2
V1/4/86
p4621
sg4
S'../Speeches/JJDS1/jjd779.pdf'
p4622
sg6
VRotary
p4623
sa(dp4624
g2
V5/6/86
p4625
sg4
S'../Speeches/JJDS1/jjd621.pdf'
p4626
sg6
VMedSch-4/6
p4627
sa(dp4628
g2
V5/18/86
p4629
sg4
S'../Speeches/JJDS1/jjd783.pdf'
p4630
sg6
VStrFnd-5/19
p4631
sa(dp4632
g2
V5/21/86
p4633
sg4
S'../Speeches/JJDS1/jjd603.pdf'
p4634
sg6
VASB-5/21
p4635
sa(dp4636
g2
V5/31/86
p4637
sg4
S'../Speeches/JJDS1/jjd606.pdf'
p4638
sg6
VChallenge
p4639
sa(dp4640
g2
V6/26/86
p4641
sg4
S'../Speeches/JJDS1/jjd604.pdf'
p4642
sg6
VBPC Talk
p4643
sa(dp4644
g2
V7/17/86
p4645
sg4
S'../Speeches/JJDS1/jjd607.pdf'
p4646
sg6
VChinese
p4647
sa(dp4648
g2
V9/6/86
p4649
sg4
S'../Speeches/JJDS1/jjd601.pdf'
p4650
sg6
VAcademic Affairs Picnic
p4651
sa(dp4652
g2
V9/6/86
p4653
sg4
S'../Speeches/JJDS1/jjd608.pdf'
p4654
sg6
VCRLT
p4655
sa(dp4656
g2
V9/7/86
p4657
sg4
S'../Speeches/JJDS1/jjd602.pdf'
p4658
sg6
VAlumni Talk
p4659
sa(dp4660
g2
V9/7/86
p4661
sg4
S'../Speeches/JJDS1/jjd620.pdf'
p4662
sg6
VLSA
p4663
sa(dp4664
g2
V9/10/86
p4665
sg4
S'../Speeches/JJDS1/jjd614.pdf'
p4666
sg6
VEXPRES
p4667
sa(dp4668
g2
V9/18/86
p4669
sg4
S'../Speeches/JJDS1/jjd613.pdf'
p4670
sg6
VEngineering
p4671
sa(dp4672
g2
V10/18/86
p4673
sg4
S'../Speeches/JJDS1/jjd781.pdf'
p4674
sg6
VSenate Assembly
p4675
sa(dp4676
g2
V11/10/86
p4677
sg4
S'../Speeches/JJDS1/jjd617.pdf'
p4678
sg6
VHonor Society
p4679
sa(dp4680
g2
V11/10/86
p4681
sg4
S'../Speeches/JJDS1/jjd612.pdf'
p4682
sg6
VEduc-Change
p4683
sa(dp4684
g2
V12/10/86
p4685
sg4
S'../Speeches/JJDS1/jjd619.pdf'
p4686
sg6
VLegislators-86
p4687
sa(dp4688
g2
V12/20/86
p4689
sg4
S'../Speeches/JJDS1/jjd618.pdf'
p4690
sg6
VLeadership
p4691
sa(dp4692
g2
V12/26/86
p4693
sg4
S'../Speeches/JJDS1/jjd778.pdf'
p4694
sg6
VRose Bowl
p4695
sa(dp4696
g2
V1/8/87
p4697
sg4
S'../Speeches/JJDS1/jjd770.pdf'
p4698
sg6
VMITN
p4699
sa(dp4700
g2
V1/11/87
p4701
sg4
S'../Speeches/JJDS1/jjd771.pdf'
p4702
sg6
VNiara Party
p4703
sa(dp4704
g2
V1/18/87
p4705
sg4
S'../Speeches/JJDS1/jjd775.pdf'
p4706
sg6
VPhysics-87
p4707
sa(dp4708
g2
V2/13/87
p4709
sg4
S'../Speeches/JJDS1/jjd782.pdf'
p4710
sg6
VSPRL
p4711
sa(dp4712
g2
V2/16/87
p4713
sg4
S'../Speeches/JJDS1/jjd605.pdf'
p4714
sg6
VCaltech
p4715
sa(dp4716
g2
V3/1/87
p4717
sg4
S'../Speeches/JJDS1/jjd616.pdf'
p4718
sg6
VHigh Tech-3/87
p4719
sa(dp4720
g2
V3/5/87
p4721
sg4
S'../Speeches/JJDS1/jjd615.pdf'
p4722
sg6
VGenetics
p4723
sa(dp4724
g2
V3/6/87
p4725
sg4
S'../Speeches/JJDS1/jjd610.pdf'
p4726
sg6
VE&V Conf
p4727
sa(dp4728
g2
V3/22/87
p4729
sg4
S'../Speeches/JJDS1/jjd611.pdf'
p4730
sg6
VEd for Change
p4731
sa(dp4732
g2
V5/17/87
p4733
sg4
S'../Speeches/JJDS1/jjd780.pdf'
p4734
sg6
VSen Assem - 5/87
p4735
sa(dp4736
g2
V6/3/87
p4737
sg4
S'../Speeches/JJDS1/jjd769.pdf'
p4738
sg6
VMinority Ed
p4739
sa(dp4740
g2
V6/6/87
p4741
sg4
S'../Speeches/JJDS1/jjd777.pdf'
p4742
sg6
VReunion-6/87
p4743
sa(dp4744
g2
V6/11/87
p4745
sg4
S'../Speeches/JJDS1/jjd772.pdf'
p4746
sg6
VNursing
p4747
sa(dp4748
g2
V6/16/87
p4749
sg4
S'../Speeches/JJDS1/jjd776.pdf'
p4750
sg6
VPluralism
p4751
sa(dp4752
g2
V6/30/87
p4753
sg4
S'../Speeches/JJDS1/jjd609.pdf'
p4754
sg6
VDevel-6/30
p4755
sa(dp4756
g2
V7/21/87
p4757
sg4
S'../Speeches/JJDS1/jjd600.pdf'
p4758
sg6
VAAAC-Min-II
p4759
sa(dp4760
g2
V12/26/86
p4761
sg4
S'../Speeches/JJDS10/jjd1573.pdf'
p4762
sg6
VRose Bowl
p4763
sa(dp4764
g2
V10/17/87
p4765
sg4
S'../Speeches/JJDS10/jjd1567.pdf'
p4766
sg6
VFootball
p4767
sa(dp4768
g2
V11/30/87
p4769
sg4
S'../Speeches/JJDS10/jjd1568.pdf'
p4770
sg6
VFootball Bust
p4771
sa(dp4772
g2
V2/7/88
p4773
sg4
S'../Speeches/JJDS10/jjd1566.pdf'
p4774
sg6
VAthletes Reception
p4775
sa(dp4776
g2
V9/22/88
p4777
sg4
S'../Speeches/JJDS10/jjd1571.pdf'
p4778
sg6
VGeneral Talk-Rose Bowl
p4779
sa(dp4780
g2
V10/16/88
p4781
sg4
S'../Speeches/JJDS10/jjd1565.pdf'
p4782
sg6
VAlumni-Rose Bowl
p4783
sa(dp4784
g2
V11/27/88
p4785
sg4
S'../Speeches/JJDS10/jjd1569.pdf'
p4786
sg6
VFootball Bust-88
p4787
sa(dp4788
g2
V12/26/88
p4789
sg4
S'../Speeches/JJDS10/jjd1570.pdf'
p4790
sg6
VFootball Bust-89
p4791
sa(dp4792
g2
V12/27/88
p4793
sg4
S'../Speeches/JJDS10/jjd1575.pdf'
p4794
sg6
VRose Bowl-1989
p4795
sa(dp4796
g2
V10/14/89
p4797
sg4
S'../Speeches/JJDS10/jjd1572.pdf'
p4798
sg6
VM-Club Talk
p4799
sa(dp4800
g2
V11/26/89
p4801
sg4
S'../Speeches/JJDS10/jjd1574.pdf'
p4802
sg6
VRose Bowl (89-90)
p4803
sa(dp4804
g2
V10/29/86
p4805
sg4
S'../Speeches/JJDS2/jjd835.pdf'
p4806
sg6
VYale-10/30
p4807
sa(dp4808
g2
V1/18/87
p4809
sg4
S'../Speeches/JJDS2/jjd818.pdf'
p4810
sg6
VPhysics-87
p4811
sa(dp4812
g2
V2/4/87
p4813
sg4
S'../Speeches/JJDS2/jjd829.pdf'
p4814
sg6
VStudent-Athletes
p4815
sa(dp4816
g2
V4/7/87
p4817
sg4
S'../Speeches/JJDS2/jjd834.pdf'
p4818
sg6
VYale Talk
p4819
sa(dp4820
g2
V4/14/87
p4821
sg4
S'../Speeches/JJDS2/jjd833.pdf'
p4822
sg6
VUS-Japan Conference
p4823
sa(dp4824
g2
S'8/30/87'
p4825
sg4
S'../Speeches/JJDS2/jjd810.pdf'
p4826
sg6
S'New Faculty Welcome, 2.0'
p4827
sa(dp4828
g2
V9/6/87
p4829
sg4
S'../Speeches/JJDS2/jjd801.pdf'
p4830
sg6
VGrad Welcome 1.0
p4831
sa(dp4832
g2
V9/6/87
p4833
sg4
S'../Speeches/JJDS2/jjd797.pdf'
p4834
sg6
VFreshman Convocation 1.0
p4835
sa(dp4836
g2
V9/7/87
p4837
sg4
S'../Speeches/JJDS2/jjd807.pdf'
p4838
sg6
VMinority Welcome 1.0
p4839
sa(dp4840
g2
V9/7/87
p4841
sg4
S'../Speeches/JJDS2/jjd816.pdf'
p4842
sg6
VParents Orientation 1.1
p4843
sa(dp4844
g2
V9/7/87
p4845
sg4
S'../Speeches/JJDS2/jjd792.pdf'
p4846
sg6
VDeans/EO Kickoff
p4847
sa(dp4848
g2
V10/4/87
p4849
sg4
S'../Speeches/JJDS2/jjd794.pdf'
p4850
sg6
VFaculty Dinners
p4851
sa(dp4852
g2
V10/13/87
p4853
sg4
S'../Speeches/JJDS2/jjd822.pdf'
p4854
sg6
VSBR-88 Narrative
p4855
sa(dp4856
g2
V10/17/87
p4857
sg4
S'../Speeches/JJDS2/jjd795.pdf'
p4858
sg6
VFootball
p4859
sa(dp4860
g2
V10/17/87
p4861
sg4
S'../Speeches/JJDS2/jjd784.pdf'
p4862
sg6
VAlumni Scholars
p4863
sa(dp4864
g2
V10/20/87
p4865
sg4
S'../Speeches/JJDS2/jjd811.pdf'
p4866
sg6
VNIH
p4867
sa(dp4868
g2
V10/21/87
p4869
sg4
S'../Speeches/JJDS2/jjd812.pdf'
p4870
sg6
VNIH Luncheon
p4871
sa(dp4872
g2
V10/22/87
p4873
sg4
S'../Speeches/JJDS2/jjd805.pdf'
p4874
sg6
VLegislators
p4875
sa(dp4876
g2
V10/22/87
p4877
sg4
S'../Speeches/JJDS2/jjd804.pdf'
p4878
sg6
VITI
p4879
sa(dp4880
g2
V10/25/87
p4881
sg4
S'../Speeches/JJDS2/jjd826.pdf'
p4882
sg6
VSolid State Lab
p4883
sa(dp4884
g2
V10/25/87
p4885
sg4
S'../Speeches/JJDS2/jjd799.pdf'
p4886
sg6
VGR Econ-10/26
p4887
sa(dp4888
g2
V10/31/87
p4889
sg4
S'../Speeches/JJDS2/jjd802.pdf'
p4890
sg6
VHomecoming
p4891
sa(dp4892
g2
V11/6/87
p4893
sg4
S'../Speeches/JJDS2/jjd800.pdf'
p4894
sg6
VGrad Ed
p4895
sa(dp4896
g2
V11/10/87
p4897
sg4
S'../Speeches/JJDS2/jjd791.pdf'
p4898
sg6
VDeans-HTS
p4899
sa(dp4900
g2
V11/12/87
p4901
sg4
S'../Speeches/JJDS2/jjd821.pdf'
p4902
sg6
VResident Talk
p4903
sa(dp4904
g2
V11/14/87
p4905
sg4
S'../Speeches/JJDS2/jjd803.pdf'
p4906
sg6
VICPSR
p4907
sa(dp4908
g2
V11/30/87
p4909
sg4
S'../Speeches/JJDS2/jjd796.pdf'
p4910
sg6
VFootball Bust
p4911
sa(dp4912
g2
V1/12/88
p4913
sg4
S'../Speeches/JJDS2/jjd808.pdf'
p4914
sg6
VMLK Intro
p4915
sa(dp4916
g2
V2/7/88
p4917
sg4
S'../Speeches/JJDS2/jjd785.pdf'
p4918
sg6
VAthletes Reception
p4919
sa(dp4920
g2
V2/9/88
p4921
sg4
S'../Speeches/JJDS2/jjd819.pdf'
p4922
sg6
VPIF-2/9/88
p4923
sa(dp4924
g2
V2/9/88
p4925
sg4
S'../Speeches/JJDS2/jjd806.pdf'
p4926
sg6
VMinority Faculty Recruiting
p4927
sa(dp4928
g2
V2/16/88
p4929
sg4
S'../Speeches/JJDS2/jjd827.pdf'
p4930
sg6
VSSC Testimony
p4931
sa(dp4932
g2
V2/19/88
p4933
sg4
S'../Speeches/JJDS2/jjd789.pdf'
p4934
sg6
VComputer-Medicine
p4935
sa(dp4936
g2
V2/24/88
p4937
sg4
S'../Speeches/JJDS2/jjd828.pdf'
p4938
sg6
VState Appropriations Test
p4939
sa(dp4940
g2
V3/14/88
p4941
sg4
S'../Speeches/JJDS2/jjd830.pdf'
p4942
sg6
VTraxler/Bloch
p4943
sa(dp4944
g2
V3/23/88
p4945
sg4
S'../Speeches/JJDS2/jjd809.pdf'
p4946
sg6
VNASA ERCs
p4947
sa(dp4948
g2
V3/23/88
p4949
sg4
S'../Speeches/JJDS2/jjd823.pdf'
p4950
sg6
VScripps-Howard
p4951
sa(dp4952
g2
V4/4/88
p4953
sg4
S'../Speeches/JJDS2/jjd820.pdf'
p4954
sg6
VRadiogenic Dedication
p4955
sa(dp4956
g2
V4/18/88
p4957
sg4
S'../Speeches/JJDS2/jjd836.pdf'
p4958
sg6
VYale-S&E-88
p4959
sa(dp4960
g2
V4/23/88
p4961
sg4
S'../Speeches/JJDS2/jjd790.pdf'
p4962
sg6
VDeans TermEnd Dinner
p4963
sa(dp4964
g2
V4/30/88
p4965
sg4
S'../Speeches/JJDS2/jjd793.pdf'
p4966
sg6
VEng Comm-88
p4967
sa(dp4968
g2
V6/4/88
p4969
sg4
S'../Speeches/JJDS2/jjd813.pdf'
p4970
sg6
VNSF/MSF Conference
p4971
sa(dp4972
g2
V6/9/88
p4973
sg4
S'../Speeches/JJDS2/jjd814.pdf'
p4974
sg6
VOpening
p4975
sa(dp4976
g2
V6/9/88
p4977
sg4
S'../Speeches/JJDS3a/jjd922.pdf'
p4978
sg6
VOpening
p4979
sa(dp4980
g2
V7/30/88
p4981
sg4
S'../Speeches/JJDS3a/jjd844.pdf'
p4982
sg6
VBig Ten Development Officers
p4983
sa(dp4984
g2
V7/30/88
p4985
sg4
S'../Speeches/JJDS3a/jjd845.pdf'
p4986
sg6
VBlanchard-Tuition
p4987
sa(dp4988
g2
V8/13/88
p4989
sg4
S'../Speeches/JJDS3a/jjd866.pdf'
p4990
sg6
VDiversity Notes
p4991
sa(dp4992
g2
V8/13/88
p4993
sg4
S'../Speeches/JJDS3a/jjd873.pdf'
p4994
sg6
VFutures Talk 1.0
p4995
sa(dp4996
g2
V8/14/88
p4997
sg4
S'../Speeches/JJDS3a/jjd919.pdf'
p4998
sg6
VNew Faculty Welcome 2.1
p4999
sa(dp5000
g2
V8/14/88
p5001
sg4
S'../Speeches/JJDS3a/jjd923.pdf'
p5002
sg6
VParents Orientation 2.0
p5003
sa(dp5004
g2
V8/14/88
p5005
sg4
S'../Speeches/JJDS3a/jjd862.pdf'
p5006
sg6
VDeans/EO Kickoff 2.0
p5007
sa(dp5008
g2
V8/14/88
p5009
sg4
S'../Speeches/JJDS3a/jjd876.pdf'
p5010
sg6
VGrad Welcome 2.0
p5011
sa(dp5012
g2
V8/23/88
p5013
sg4
S'../Speeches/JJDS3a/jjd941.pdf'
p5014
sg6
VState of the University
p5015
sa(dp5016
g2
V8/24/88
p5017
sg4
S'../Speeches/JJDS3a/jjd907.pdf'
p5018
sg6
VMichigan 2.4
p5019
sa(dp5020
g2
V8/24/88
p5021
sg4
S'../Speeches/JJDS3a/jjd903.pdf'
p5022
sg6
VLegislature
p5023
sa(dp5024
g2
V8/24/88
p5025
sg4
S'../Speeches/JJDS3a/jjd858.pdf'
p5026
sg6
VCongressional Delegation
p5027
sa(dp5028
g2
V8/25/88
p5029
sg4
S'../Speeches/JJDS3a/jjd946.pdf'
p5030
sg6
VStudent Inaug Address
p5031
sa(dp5032
g2
V8/25/88
p5033
sg4
S'../Speeches/JJDS3a/jjd947.pdf'
p5034
sg6
VStudent Inaug Address 1.1
p5035
sa(dp5036
g2
V8/30/88
p5037
sg4
S'../Speeches/JJDS3a/jjd881.pdf'
p5038
sg6
VIFS Reception
p5039
sa(dp5040
g2
V9/8/88
p5041
sg4
S'../Speeches/JJDS3a/jjd920.pdf'
p5042
sg6
VNew Faculty Welcome 2.1S
p5043
sa(dp5044
g2
V9/9/88
p5045
sg4
S'../Speeches/JJDS3a/jjd872.pdf'
p5046
sg6
VFreshman Convocation 2.1
p5047
sa(dp5048
g2
V9/12/88
p5049
sg4
S'../Speeches/JJDS3a/jjd894.pdf'
p5050
sg6
VInvestments
p5051
sa(dp5052
g2
V9/15/88
p5053
sg4
S'../Speeches/JJDS3a/jjd945.pdf'
p5054
sg6
VState of U-MS
p5055
sa(dp5056
g2
V9/16/88
p5057
sg4
S'../Speeches/JJDS3a/jjd887.pdf'
p5058
sg6
VInauguration 1.2
p5059
sa(dp5060
g2
V9/21/88
p5061
sg4
S'../Speeches/JJDS3a/jjd929.pdf'
p5062
sg6
VPres Club
p5063
sa(dp5064
g2
V9/21/88
p5065
sg4
S'../Speeches/JJDS3a/jjd931.pdf'
p5066
sg6
VPrez Fall Weekend 9/23-24
p5067
sa(dp5068
g2
V9/22/88
p5069
sg4
S'../Speeches/JJDS3a/jjd874.pdf'
p5070
sg6
VGeneral Talk
p5071
sa(dp5072
g2
V9/22/88
p5073
sg4
S'../Speeches/JJDS3a/jjd875.pdf'
p5074
sg6
VGeneral Talk-Rose Bowl
p5075
sa(dp5076
g2
V9/22/88
p5077
sg4
S'../Speeches/JJDS3a/jjd897.pdf'
p5078
sg6
VLead Network 1.1
p5079
sa(dp5080
g2
V9/22/88
p5081
sg4
S'../Speeches/JJDS3a/jjd856.pdf'
p5082
sg6
VCongress 1.2
p5083
sa(dp5084
g2
V9/23/88
p5085
sg4
S'../Speeches/JJDS3a/jjd943.pdf'
p5086
sg6
VState of U 1.4
p5087
sa(dp5088
g2
V9/23/88
p5089
sg4
S'../Speeches/JJDS3a/jjd932.pdf'
p5090
sg6
VRackham 50th
p5091
sa(dp5092
g2
V9/23/88
p5093
sg4
S'../Speeches/JJDS3a/jjd933.pdf'
p5094
sg6
VRackham 50th 1.4
p5095
sa(dp5096
g2
V9/23/88
p5097
sg4
S'../Speeches/JJDS3a/jjd955.pdf'
p5098
sg6
VUG Ed 1.8
p5099
sa(dp5100
g2
V9/23/88
p5101
sg4
S'../Speeches/JJDS3a/jjd908.pdf'
p5102
sg6
VMichigan Mandate 1.4
p5103
sa(dp5104
g2
V9/23/88
p5105
sg4
S'../Speeches/JJDS3a/jjd942.pdf'
p5106
sg6
VState of U 1.2
p5107
sa(dp5108
g2
V9/27/88
p5109
sg4
S'../Speeches/JJDS3a/jjd837.pdf'
p5110
sg6
VA List of Talks
p5111
sa(dp5112
g2
V9/30/88
p5113
sg4
S'../Speeches/JJDS3a/jjd944.pdf'
p5114
sg6
VState of U 1.8
p5115
sa(dp5116
g2
V10/1/88
p5117
sg4
S'../Speeches/JJDS3a/jjd869.pdf'
p5118
sg6
VFaculty Awards
p5119
sa(dp5120
g2
V10/1/88
p5121
sg4
S'../Speeches/JJDS3a/jjd877.pdf'
p5122
sg6
VHBCU Remarks
p5123
sa(dp5124
g2
V10/2/88
p5125
sg4
S'../Speeches/JJDS3a/jjd890.pdf'
p5126
sg6
VInauguration Remarks List
p5127
sa(dp5128
g2
V10/2/88
p5129
sg4
S'../Speeches/JJDS3a/jjd958.pdf'
p5130
sg6
VVolunteer Leadership
p5131
sa(dp5132
g2
V10/2/88
p5133
sg4
S'../Speeches/JJDS3a/jjd902.pdf'
p5134
sg6
VLegislative Luncheon
p5135
sa(dp5136
g2
V10/2/88
p5137
sg4
S'../Speeches/JJDS3a/jjd948.pdf'
p5138
sg6
VStudent Inaug Address 1.5
p5139
sa(dp5140
g2
V10/4/88
p5141
sg4
S'../Speeches/JJDS3a/jjd884.pdf'
p5142
sg6
VInaug Intro
p5143
sa(dp5144
g2
V10/5/88
p5145
sg4
S'../Speeches/JJDS3a/jjd889.pdf'
p5146
sg6
VInauguration 1.9S
p5147
sa(dp5148
g2
V10/5/88
p5149
sg4
S'../Speeches/JJDS3a/jjd885.pdf'
p5150
sg6
VInaug Luncheon
p5151
sa(dp5152
g2
V10/5/88
p5153
sg4
S'../Speeches/JJDS3a/jjd883.pdf'
p5154
sg6
VInaug Breakfast
p5155
sa(dp5156
g2
V10/5/88
p5157
sg4
S'../Speeches/JJDS3a/jjd886.pdf'
p5158
sg6
VInaug Stu Picnic
p5159
sa(dp5160
g2
V10/15/88
p5161
sg4
S'../Speeches/JJDS3a/jjd952.pdf'
p5162
sg6
VTalks 10/17/88
p5163
sa(dp5164
g2
V10/16/88
p5165
sg4
S'../Speeches/JJDS3a/jjd849.pdf'
p5166
sg6
VCanhan Dedication
p5167
sa(dp5168
g2
V10/16/88
p5169
sg4
S'../Speeches/JJDS3a/jjd842.pdf'
p5170
sg6
VAlumni-Short
p5171
sa(dp5172
g2
V10/16/88
p5173
sg4
S'../Speeches/JJDS3a/jjd898.pdf'
p5174
sg6
VLead Network 1.2
p5175
sa(dp5176
g2
V10/16/88
p5177
sg4
S'../Speeches/JJDS3a/jjd905.pdf'
p5178
sg6
VMedical Center Reception
p5179
sa(dp5180
g2
V10/16/88
p5181
sg4
S'../Speeches/JJDS3a/jjd957.pdf'
p5182
sg6
VUMF Dedication
p5183
sa(dp5184
g2
V10/28/88
p5185
sg4
S'../Speeches/JJDS3a/jjd846.pdf'
p5186
sg6
VBooth Newspapers
p5187
sa(dp5188
g2
V10/28/88
p5189
sg4
S'../Speeches/JJDS3a/jjd940.pdf'
p5190
sg6
VSpeech Topics
p5191
sa(dp5192
g2
V10/31/88
p5193
sg4
S'../Speeches/JJDS3a/jjd951.pdf'
p5194
sg6
VTalk List
p5195
sa(dp5196
g2
V11/1/88
p5197
sg4
S'../Speeches/JJDS3a/jjd917.pdf'
p5198
sg6
VNew Detroit
p5199
sa(dp5200
g2
V11/4/88
p5201
sg4
S'../Speeches/JJDS3a/jjd918.pdf'
p5202
sg6
VNew Detroit Presentation
p5203
sa(dp5204
g2
V11/20/88
p5205
sg4
S'../Speeches/JJDS3a/jjd906.pdf'
p5206
sg6
VMedical Education
p5207
sa(dp5208
g2
V11/27/88
p5209
sg4
S'../Speeches/JJDS3a/jjd871.pdf'
p5210
sg6
VFootball Bust-88
p5211
sa(dp5212
g2
V11/27/88
p5213
sg4
S'../Speeches/JJDS3a/jjd900.pdf'
p5214
sg6
VLead Network Talk 1.3
p5215
sa(dp5216
g2
V11/27/88
p5217
sg4
S'../Speeches/JJDS3a/jjd899.pdf'
p5218
sg6
VLead Network 1.3
p5219
sa(dp5220
g2
V11/27/88
p5221
sg4
S'../Speeches/JJDS3a/jjd861.pdf'
p5222
sg6
VCosts of Education
p5223
sa(dp5224
g2
V12/17/88
p5225
sg4
S'../Speeches/JJDS3a/jjd855.pdf'
p5226
sg6
VCommencement-Fall-1988
p5227
sa(dp5228
g2
V12/20/88
p5229
sg4
S'../Speeches/JJDS3a/jjd956.pdf'
p5230
sg6
VUMF Commencement
p5231
sa(dp5232
g2
V12/27/88
p5233
sg4
S'../Speeches/JJDS3a/jjd937.pdf'
p5234
sg6
VRose Bowl-1989
p5235
sa(dp5236
g2
V1/4/89
p5237
sg4
S'../Speeches/JJDS3b/jjd959.pdf'
p5238
sg6
VWelcome Home
p5239
sa(dp5240
g2
V1/5/89
p5241
sg4
S'../Speeches/JJDS3b/jjd936.pdf'
p5242
sg6
VRose Bowl Followup
p5243
sa(dp5244
g2
V1/8/89
p5245
sg4
S'../Speeches/JJDS3b/jjd904.pdf'
p5246
sg6
VListen and Learn
p5247
sa(dp5248
g2
V1/9/89
p5249
sg4
S'../Speeches/JJDS3b/jjd867.pdf'
p5250
sg6
VEO/SACUA/Student Retreat
p5251
sa(dp5252
g2
V1/14/89
p5253
sg4
S'../Speeches/JJDS3b/jjd910.pdf'
p5254
sg6
VMLK Opening
p5255
sa(dp5256
g2
V1/14/89
p5257
sg4
S'../Speeches/JJDS3b/jjd911.pdf'
p5258
sg6
VMLK-Business and Finance
p5259
sa(dp5260
g2
V1/14/89
p5261
sg4
S'../Speeches/JJDS3b/jjd912.pdf'
p5262
sg6
VMLK-Closing
p5263
sa(dp5264
g2
V1/14/89
p5265
sg4
S'../Speeches/JJDS3b/jjd913.pdf'
p5266
sg6
VMLK-Science Manpower Needs
p5267
sa(dp5268
g2
V1/15/89
p5269
sg4
S'../Speeches/JJDS3b/jjd914.pdf'
p5270
sg6
VMLK-Unity March
p5271
sa(dp5272
g2
V1/31/89
p5273
sg4
S'../Speeches/JJDS3b/jjd851.pdf'
p5274
sg6
VCBS Questions
p5275
sa(dp5276
g2
V2/3/89
p5277
sg4
S'../Speeches/JJDS3b/jjd953.pdf'
p5278
sg6
VTentative Speech Topics
p5279
sa(dp5280
g2
V2/12/89
p5281
sg4
S'../Speeches/JJDS3b/jjd864.pdf'
p5282
sg6
VDetroit Economics Club 1.1
p5283
sa(dp5284
g2
S'2/17/89'
p5285
sg4
S'../Speeches/JJDS3b/jjd870.pdf'
p5286
sg6
S'Football Building Kickoff'
p5287
sa(dp5288
g2
V2/22/89
p5289
sg4
S'../Speeches/JJDS3b/jjd857.pdf'
p5290
sg6
VCongressional Breakfast
p5291
sa(dp5292
g2
V3/6/89
p5293
sg4
S'../Speeches/JJDS3b/jjd879.pdf'
p5294
sg6
VHouse Appro Com-3/89
p5295
sa(dp5296
g2
V3/13/89
p5297
sg4
S'../Speeches/JJDS3b/jjd840.pdf'
p5298
sg6
VAlumni-March-89
p5299
sa(dp5300
g2
V3/18/89
p5301
sg4
S'../Speeches/JJDS3b/jjd928.pdf'
p5302
sg6
VPow Wow-89
p5303
sa(dp5304
g2
V3/19/89
p5305
sg4
S'../Speeches/JJDS3b/jjd878.pdf'
p5306
sg6
VHonors Convocation-1989
p5307
sa(dp5308
g2
V3/19/89
p5309
sg4
S'../Speeches/JJDS3b/jjd893.pdf'
p5310
sg6
VIntroductions
p5311
sa(dp5312
g2
V3/24/89
p5313
sg4
S'../Speeches/JJDS3b/jjd859.pdf'
p5314
sg6
VContinuity and Chaos
p5315
sa(dp5316
g2
V3/25/89
p5317
sg4
S'../Speeches/JJDS3b/jjd850.pdf'
p5318
sg6
VCase Statement
p5319
sa(dp5320
g2
V3/26/89
p5321
sg4
S'../Speeches/JJDS3b/jjd915.pdf'
p5322
sg6
VMortar Board
p5323
sa(dp5324
g2
S'6/89'
p5325
sg4
S'../Speeches/JJDS3b/jjd896.pdf'
p5326
sg6
S'Lagatus'
p5327
sa(dp5328
g2
V3/26/89
p5329
sg4
S'../Speeches/JJDS3b/jjd960.pdf'
p5330
sg6
VWomen's Issue
p5331
sa(dp5332
g2
V3/26/89
p5333
sg4
S'../Speeches/JJDS3b/jjd949.pdf'
p5334
sg6
VStudent Recognition Award
p5335
sa(dp5336
g2
V3/26/89
p5337
sg4
S'../Speeches/JJDS3b/jjd843.pdf'
p5338
sg6
VBasketball Bust -- March 28, 1989
p5339
sa(dp5340
g2
V3/27/89
p5341
sg4
S'../Speeches/JJDS3b/jjd895.pdf'
p5342
sg6
VIPPS Talk
p5343
sa(dp5344
g2
V4/5/89
p5345
sg4
S'../Speeches/JJDS3b/jjd925.pdf'
p5346
sg6
VPhi Beta Kappa
p5347
sa(dp5348
g2
V4/19/89
p5349
sg4
S'../Speeches/JJDS3b/jjd852.pdf'
p5350
sg6
VCoaches Reception
p5351
sa(dp5352
g2
V4/28/89
p5353
sg4
S'../Speeches/JJDS3b/jjd934.pdf'
p5354
sg6
VRain Commencement
p5355
sa(dp5356
g2
V4/30/89
p5357
sg4
S'../Speeches/JJDS3b/jjd854.pdf'
p5358
sg6
VCommencement-1989
p5359
sa(dp5360
g2
V5/3/89
p5361
sg4
S'../Speeches/JJDS3b/jjd853.pdf'
p5362
sg6
VCoaches Talk
p5363
sa(dp5364
g2
V5/9/89
p5365
sg4
S'../Speeches/JJDS3b/jjd891.pdf'
p5366
sg6
VInternational Issues
p5367
sa(dp5368
g2
S'5/9/89'
p5369
sg4
S'../Speeches/JJDS3b/jjd938.pdf'
p5370
sg6
S'Rotary'
p5371
sa(dp5372
g2
V5/15/89
p5373
sg4
S'../Speeches/JJDS3b/jjd930.pdf'
p5374
sg6
VPresident's Weekend-5/89
p5375
sa(dp5376
g2
S'1989'
p5377
sg4
S'../Speeches/JJDS3b/jjd839.pdf'
p5378
sg6
S'Alumni Talks--Summer 1989'
p5379
sa(dp5380
g2
V5/27/89
p5381
sg4
S'../Speeches/JJDS3b/jjd848.pdf'
p5382
sg6
VCaltech-1989
p5383
sa(dp5384
g2
V5/27/89
p5385
sg4
S'../Speeches/JJDS3b/jjd892.pdf'
p5386
sg6
VInternationalization
p5387
sa(dp5388
g2
V12/25/88
p5389
sg4
S'../Speeches/JJDS4a/jjd1030.pdf'
p5390
sg6
VMichigan Add-Ins 1.0
p5391
sa(dp5392
g2
V7/16/89
p5393
sg4
S'../Speeches/JJDS4a/jjd1073.pdf'
p5394
sg6
VSemiconductor
p5395
sa(dp5396
g2
V8/25/89
p5397
sg4
S'../Speeches/JJDS4a/jjd1067.pdf'
p5398
sg6
VResponse
p5399
sa(dp5400
g2
V8/30/89
p5401
sg4
S'../Speeches/JJDS4a/jjd1007.pdf'
p5402
sg6
VFreshman Convocation 3.0
p5403
sa(dp5404
g2
V8/30/89
p5405
sg4
S'../Speeches/JJDS4a/jjd1010.pdf'
p5406
sg6
VGraduate Welcome 3.0
p5407
sa(dp5408
g2
V8/30/89
p5409
sg4
S'../Speeches/JJDS4a/jjd1041.pdf'
p5410
sg6
VMinority Welcome 3.0
p5411
sa(dp5412
g2
V8/30/89
p5413
sg4
S'../Speeches/JJDS4a/jjd1046.pdf'
p5414
sg6
VNew Faculty Welcome 3.0
p5415
sa(dp5416
g2
V8/30/89
p5417
sg4
S'../Speeches/JJDS4a/jjd1047.pdf'
p5418
sg6
VNewsweek notes
p5419
sa(dp5420
g2
V8/30/89
p5421
sg4
S'../Speeches/JJDS4a/jjd1055.pdf'
p5422
sg6
VParents Orientation 3.0
p5423
sa(dp5424
g2
V8/31/89
p5425
sg4
S'../Speeches/JJDS4a/jjd1026.pdf'
p5426
sg6
VMajor Gifts Address 2.0
p5427
sa(dp5428
g2
V8/31/89
p5429
sg4
S'../Speeches/JJDS4a/jjd992.pdf'
p5430
sg6
VCosts of Education
p5431
sa(dp5432
g2
V8/31/89
p5433
sg4
S'../Speeches/JJDS4a/jjd1025.pdf'
p5434
sg6
VMajor Gifts Address 1.0
p5435
sa(dp5436
g2
V8/31/89
p5437
sg4
S'../Speeches/JJDS4a/jjd1058.pdf'
p5438
sg6
VPresClub-10/89
p5439
sa(dp5440
g2
V9/3/89
p5441
sg4
S'../Speeches/JJDS4a/jjd1078.pdf'
p5442
sg6
VState Plan
p5443
sa(dp5444
g2
V9/8/89
p5445
sg4
S'../Speeches/JJDS4a/jjd1083.pdf'
p5446
sg6
VTaubman Conference
p5447
sa(dp5448
g2
V9/8/89
p5449
sg4
S'../Speeches/JJDS4a/jjd1044.pdf'
p5450
sg6
VNAACP Talk
p5451
sa(dp5452
g2
V9/11/89
p5453
sg4
S'../Speeches/JJDS4a/jjd968.pdf'
p5454
sg6
VAlumni 5.0
p5455
sa(dp5456
g2
V9/11/89
p5457
sg4
S'../Speeches/JJDS4a/jjd1022.pdf'
p5458
sg6
VLeadership Network 2.0
p5459
sa(dp5460
g2
V9/13/89
p5461
sg4
S'../Speeches/JJDS4a/jjd991.pdf'
p5462
sg6
VCorporate Remarks
p5463
sa(dp5464
g2
V9/13/89
p5465
sg4
S'../Speeches/JJDS4a/jjd1082.pdf'
p5466
sg6
VTalkIdeas--9/89
p5467
sa(dp5468
g2
V9/14/89
p5469
sg4
S'../Speeches/JJDS4a/jjd1050.pdf'
p5470
sg6
VOld Stuff
p5471
sa(dp5472
g2
V9/14/89
p5473
sg4
S'../Speeches/JJDS4a/jjd1017.pdf'
p5474
sg6
VIntern Forum (9/89)
p5475
sa(dp5476
g2
V9/14/89
p5477
sg4
S'../Speeches/JJDS4a/jjd986.pdf'
p5478
sg6
VChemistry Lunch
p5479
sa(dp5480
g2
V9/15/89
p5481
sg4
S'../Speeches/JJDS4a/jjd984.pdf'
p5482
sg6
VChemistry Dedication
p5483
sa(dp5484
g2
V9/16/89
p5485
sg4
S'../Speeches/JJDS4a/jjd1080.pdf'
p5486
sg6
VStudies in Religion
p5487
sa(dp5488
g2
V9/17/89
p5489
sg4
S'../Speeches/JJDS4a/jjd1039.pdf'
p5490
sg6
VMichigan Talks 2.0
p5491
sa(dp5492
g2
V9/17/89
p5493
sg4
S'../Speeches/JJDS4a/jjd1015.pdf'
p5494
sg6
VHispanic Heritage
p5495
sa(dp5496
g2
V9/18/89
p5497
sg4
S'../Speeches/JJDS4a/jjd987.pdf'
p5498
sg6
VCitizens ResCouncil
p5499
sa(dp5500
g2
V9/21/89
p5501
sg4
S'../Speeches/JJDS4a/jjd1021.pdf'
p5502
sg6
VLA Major Gifts
p5503
sa(dp5504
g2
V9/21/89
p5505
sg4
S'../Speeches/JJDS4a/jjd1020.pdf'
p5506
sg6
VLA Dinner
p5507
sa(dp5508
g2
V9/26/89
p5509
sg4
S'../Speeches/JJDS4a/jjd1024.pdf'
p5510
sg6
VLos Angeles Dinner
p5511
sa(dp5512
g2
V9/26/89
p5513
sg4
S'../Speeches/JJDS4a/jjd965.pdf'
p5514
sg6
VAlumni (MajorGifts)
p5515
sa(dp5516
g2
V9/26/89
p5517
sg4
S'../Speeches/JJDS4a/jjd1092.pdf'
p5518
sg6
VVolunteers Strategy
p5519
sa(dp5520
g2
V9/26/89
p5521
sg4
S'../Speeches/JJDS4a/jjd966.pdf'
p5522
sg6
VAlumni (Volunteers)
p5523
sa(dp5524
g2
V9/26/89
p5525
sg4
S'../Speeches/JJDS4a/jjd967.pdf'
p5526
sg6
VAlumni (Volunteers) 2.0
p5527
sa(dp5528
g2
V9/26/89
p5529
sg4
S'../Speeches/JJDS4a/jjd982.pdf'
p5530
sg6
VCase Statement
p5531
sa(dp5532
g2
V9/30/89
p5533
sg4
S'../Speeches/JJDS4a/jjd1049.pdf'
p5534
sg6
VNY Business Lunch
p5535
sa(dp5536
g2
V10/2/89
p5537
sg4
S'../Speeches/JJDS4a/jjd1077.pdf'
p5538
sg6
VState of University 2.3
p5539
sa(dp5540
g2
V10/14/89
p5541
sg4
S'../Speeches/JJDS4a/jjd1003.pdf'
p5542
sg6
VEDUCOM Welcome
p5543
sa(dp5544
g2
V10/15/89
p5545
sg4
S'../Speeches/JJDS4a/jjd1018.pdf'
p5546
sg6
VJJD Student Letter
p5547
sa(dp5548
g2
V10/16/89
p5549
sg4
S'../Speeches/JJDS4a/jjd1001.pdf'
p5550
sg6
VEDUCOM Panel Intro
p5551
sa(dp5552
g2
V10/16/89
p5553
sg4
S'../Speeches/JJDS4a/jjd1000.pdf'
p5554
sg6
VEDUCOM Panel
p5555
sa(dp5556
g2
V10/16/89
p5557
sg4
S'../Speeches/JJDS4a/jjd1002.pdf'
p5558
sg6
VEDUCOM Press
p5559
sa(dp5560
g2
V10/21/89
p5561
sg4
S'../Speeches/JJDS4a/jjd1045.pdf'
p5562
sg6
VNAE Meeting
p5563
sa(dp5564
g2
V10/22/89
p5565
sg4
S'../Speeches/JJDS4a/jjd961.pdf'
p5566
sg6
VAAU Welcome
p5567
sa(dp5568
g2
V10/28/89
p5569
sg4
S'../Speeches/JJDS4a/jjd1016.pdf'
p5570
sg6
VHomecoming-89
p5571
sa(dp5572
g2
V10/28/89
p5573
sg4
S'../Speeches/JJDS4a/jjd1037.pdf'
p5574
sg6
VMichigan Mandate
p5575
sa(dp5576
g2
V11/3/89
p5577
sg4
S'../Speeches/JJDS4a/jjd963.pdf'
p5578
sg6
VAerospace Dedication
p5579
sa(dp5580
g2
V11/3/89
p5581
sg4
S'../Speeches/JJDS4a/jjd1056.pdf'
p5582
sg6
VParents Weekend
p5583
sa(dp5584
g2
V11/3/89
p5585
sg4
S'../Speeches/JJDS4a/jjd980.pdf'
p5586
sg6
VCampaign Wrapup
p5587
sa(dp5588
g2
V11/6/89
p5589
sg4
S'../Speeches/JJDS4a/jjd1036.pdf'
p5590
sg6
VMichigan Higher Ed 2.2
p5591
sa(dp5592
g2
V11/6/89
p5593
sg4
S'../Speeches/JJDS4a/jjd1014.pdf'
p5594
sg6
VHigher Education 1.0
p5595
sa(dp5596
g2
V11/6/89
p5597
sg4
S'../Speeches/JJDS4a/jjd1033.pdf'
p5598
sg6
VMichigan Economy 1.0
p5599
sa(dp5600
g2
V11/6/89
p5601
sg4
S'../Speeches/JJDS4a/jjd1035.pdf'
p5602
sg6
VMichigan Higher Ed 1.0
p5603
sa(dp5604
g2
V11/13/89
p5605
sg4
S'../Speeches/JJDS4a/jjd996.pdf'
p5606
sg6
VEducation
p5607
sa(dp5608
g2
V11/13/89
p5609
sg4
S'../Speeches/JJDS4a/jjd998.pdf'
p5610
sg6
VEducation 1.3
p5611
sa(dp5612
g2
V11/13/89
p5613
sg4
S'../Speeches/JJDS4a/jjd997.pdf'
p5614
sg6
VEducation 1.0
p5615
sa(dp5616
g2
V11/19/89
p5617
sg4
S'../Speeches/JJDS4a/jjd1029.pdf'
p5618
sg6
VMichigan UM 1.1
p5619
sa(dp5620
g2
V11/19/89
p5621
sg4
S'../Speeches/JJDS4a/jjd1028.pdf'
p5622
sg6
VMichigan UM 1.0
p5623
sa(dp5624
g2
V11/23/89
p5625
sg4
S'../Speeches/JJDS4a/jjd1031.pdf'
p5626
sg6
VMichigan Add-ins 2.0
p5627
sa(dp5628
g2
V11/26/89
p5629
sg4
S'../Speeches/JJDS4a/jjd1006.pdf'
p5630
sg6
VFootball Bust 2.0
p5631
sa(dp5632
g2
V11/26/89
p5633
sg4
S'../Speeches/JJDS4a/jjd1068.pdf'
p5634
sg6
VRoseBowl (89-90)
p5635
sa(dp5636
g2
V12/9/89
p5637
sg4
S'../Speeches/JJDS4a/jjd1064.pdf'
p5638
sg6
VPress Conference 1.1
p5639
sa(dp5640
g2
V12/10/89
p5641
sg4
S'../Speeches/JJDS4a/jjd1011.pdf'
p5642
sg6
VGrand Rapids EC
p5643
sa(dp5644
g2
S'12/13/89'
p5645
sg4
S'../Speeches/JJDS4a/jjd976.pdf'
p5646
sg6
S'Bo'
p5647
sa(dp5648
g2
V12/13/89
p5649
sg4
S'../Speeches/JJDS4a/jjd1089.pdf'
p5650
sg6
VUGLI Dedication
p5651
sa(dp5652
g2
V12/14/89
p5653
sg4
S'../Speeches/JJDS4a/jjd969.pdf'
p5654
sg6
VAmerican Education
p5655
sa(dp5656
g2
V12/14/89
p5657
sg4
S'../Speeches/JJDS4a/jjd988.pdf'
p5658
sg6
VCommence-Fall-89
p5659
sa(dp5660
g2
V12/25/89
p5661
sg4
S'../Speeches/JJDS4a/jjd999.pdf'
p5662
sg6
VEducation Notes
p5663
sa(dp5664
g2
V12/26/89
p5665
sg4
S'../Speeches/JJDS4a/jjd1066.pdf'
p5666
sg6
VRB--Band Rehearsal
p5667
sa(dp5668
g2
V12/29/89
p5669
sg4
S'../Speeches/JJDS4a/jjd1069.pdf'
p5670
sg6
Vsac science ed notes
p5671
sa(dp5672
g2
V1/13/90
p5673
sg4
S'../Speeches/JJDS4b/jjd1059.pdf'
p5674
sg6
VPres Council Forum
p5675
sa(dp5676
g2
S'1/15/90'
p5677
sg4
S'../Speeches/JJDS4b/jjd1042.pdf'
p5678
sg6
S'MLK Closing'
p5679
sa(dp5680
g2
S'1/14/90'
p5681
sg4
S'../Speeches/JJDS4b/jjd1043.pdf'
p5682
sg6
S'MLK Welcome'
p5683
sa(dp5684
g2
V1/16/90
p5685
sg4
S'../Speeches/JJDS4b/jjd1071.pdf'
p5686
sg6
VScience Education 1.4
p5687
sa(dp5688
g2
V1/18/90
p5689
sg4
S'../Speeches/JJDS4b/jjd1052.pdf'
p5690
sg6
VP.C.-Forums Speech 1.2
p5691
sa(dp5692
g2
V1/21/90
p5693
sg4
S'../Speeches/JJDS4b/jjd983.pdf'
p5694
sg6
VCenter for Visual Arts
p5695
sa(dp5696
g2
V1/21/90
p5697
sg4
S'../Speeches/JJDS4b/jjd1060.pdf'
p5698
sg6
VPres Council Forum-14pt
p5699
sa(dp5700
g2
V02/10/90
p5701
sg4
S'../Speeches/JJDS4b/jjd1019.pdf'
p5702
sg6
VK-12 Education1
p5703
sa(dp5704
g2
V2/27/90
p5705
sg4
S'../Speeches/JJDS4b/jjd990.pdf'
p5706
sg6
VCongressional
p5707
sa(dp5708
g2
S'3/1/90'
p5709
sg4
S'../Speeches/JJDS4b/jjd1072.pdf'
p5710
sg6
S'Science Education, 2.1'
p5711
sa(dp5712
g2
S'10/2/89'
p5713
sg4
S'../Speeches/JJDS4b/jjd1076.pdf'
p5714
sg6
S'State of Univ.'
p5715
sa(dp5716
g2
V3/18/90
p5717
sg4
S'../Speeches/JJDS4b/jjd970.pdf'
p5718
sg6
VAppro CommTest1.1
p5719
sa(dp5720
g2
V3/23/90
p5721
sg4
S'../Speeches/JJDS4b/jjd1009.pdf'
p5722
sg6
VGM SpiritAwards
p5723
sa(dp5724
g2
V3/25/90
p5725
sg4
S'../Speeches/JJDS4b/jjd1005.pdf'
p5726
sg6
VFlint Rotary
p5727
sa(dp5728
g2
V3/25/90
p5729
sg4
S'../Speeches/JJDS4b/jjd1057.pdf'
p5730
sg6
VPCForum-Detroit
p5731
sa(dp5732
g2
V4/2/90
p5733
sg4
S'../Speeches/JJDS4b/jjd973.pdf'
p5734
sg6
VAutomotive
p5735
sa(dp5736
g2
V4/2/90
p5737
sg4
S'../Speeches/JJDS4b/jjd1040.pdf'
p5738
sg6
VMidland Talk
p5739
sa(dp5740
g2
V4/2/90
p5741
sg4
S'../Speeches/JJDS4b/jjd1065.pdf'
p5742
sg6
VRackham
p5743
sa(dp5744
g2
V4/6/90
p5745
sg4
S'../Speeches/JJDS4b/jjd1091.pdf'
p5746
sg6
VUnited Way
p5747
sa(dp5748
g2
V4/6/90
p5749
sg4
S'../Speeches/JJDS4b/jjd962.pdf'
p5750
sg6
VAddins-1990
p5751
sa(dp5752
g2
V4/6/90
p5753
sg4
S'../Speeches/JJDS4b/jjd1085.pdf'
p5754
sg6
VThe Economics of...
p5755
sa(dp5756
g2
V4/9/90
p5757
sg4
S'../Speeches/JJDS4b/jjd975.pdf'
p5758
sg6
VBasketball Bust-90
p5759
sa(dp5760
g2
V4/13/90
p5761
sg4
S'../Speeches/JJDS4b/jjd972.pdf'
p5762
sg6
VAthletes Reception
p5763
sa(dp5764
g2
V4/13/90
p5765
sg4
S'../Speeches/JJDS4b/jjd979.pdf'
p5766
sg6
VCaltech Commencement-89
p5767
sa(dp5768
g2
V4/13/90
p5769
sg4
S'../Speeches/JJDS4b/jjd1079.pdf'
p5770
sg6
VStudent Leadership
p5771
sa(dp5772
g2
V4/13/90
p5773
sg4
S'../Speeches/JJDS4b/jjd1004.pdf'
p5774
sg6
VEngineering Comm
p5775
sa(dp5776
g2
V4/13/90
p5777
sg4
S'../Speeches/JJDS4b/jjd989.pdf'
p5778
sg6
VCommence-Spring-90
p5779
sa(dp5780
g2
V4/15/90
p5781
sg4
S'../Speeches/JJDS4b/jjd1070.pdf'
p5782
sg6
VScience Awards
p5783
sa(dp5784
g2
V4/16/90
p5785
sg4
S'../Speeches/JJDS4b/jjd1051.pdf'
p5786
sg6
VOverarching Themes
p5787
sa(dp5788
g2
V4/19/90
p5789
sg4
S'../Speeches/JJDS4b/jjd978.pdf'
p5790
sg6
VBo's Farewells
p5791
sa(dp5792
g2
V5/3/90
p5793
sg4
S'../Speeches/JJDS4b/jjd1038.pdf'
p5794
sg6
VMichigan, Mandate 3.0
p5795
sa(dp5796
g2
V5/12/90
p5797
sg4
S'../Speeches/JJDS4b/jjd1090.pdf'
p5798
sg6
VUndergraduate
p5799
sa(dp5800
g2
V5/12/90
p5801
sg4
S'../Speeches/JJDS4b/jjd1087.pdf'
p5802
sg6
VT vs R Notes
p5803
sa(dp5804
g2
V5/13/90
p5805
sg4
S'../Speeches/JJDS4b/jjd1061.pdf'
p5806
sg6
VPresident's
p5807
sa(dp5808
g2
V5/17/90
p5809
sg4
S'../Speeches/JJDS4b/jjd1063.pdf'
p5810
sg6
VPresidents Club Finale
p5811
sa(dp5812
g2
V5/31/90
p5813
sg4
S'../Speeches/JJDS4b/jjd1053.pdf'
p5814
sg6
VPAC-June-90
p5815
sa(dp5816
g2
V5/31/90
p5817
sg4
S'../Speeches/JJDS4b/jjd995.pdf'
p5818
sg6
VDevelopment
p5819
sa(dp5820
g2
V6/5/90
p5821
sg4
S'../Speeches/JJDS4b/jjd1074.pdf'
p5822
sg6
VService Awards
p5823
sa(dp5824
g2
V6/5/90
p5825
sg4
S'../Speeches/JJDS4b/jjd1086.pdf'
p5826
sg6
VTraverse City Talk
p5827
sa(dp5828
g2
V6/10/90
p5829
sg4
S'../Speeches/JJDS4b/jjd1088.pdf'
p5830
sg6
VUG Notes
p5831
sa(dp5832
g2
V6/10/90
p5833
sg4
S'../Speeches/JJDS4b/jjd1048.pdf'
p5834
sg6
VNSF, T&R 1.0
p5835
sa(dp5836
g2
V6/27/90
p5837
sg4
S'../Speeches/JJDS4b/jjd1032.pdf'
p5838
sg6
VMichigan Crossroads 1.0
p5839
sa(dp5840
g2
V6/27/90
p5841
sg4
S'../Speeches/JJDS4b/jjd1013.pdf'
p5842
sg6
VHartford Sermon 2.1
p5843
sa(dp5844
g2
V6/27/90
p5845
sg4
S'../Speeches/JJDS4b/jjd1012.pdf'
p5846
sg6
VHartford Sermon 2.0(act)
p5847
sa(dp5848
g2
V7/2/90
p5849
sg4
S'../Speeches/JJDS4b/jjd1034.pdf'
p5850
sg6
VMichigan Economy 1.0...
p5851
sa(dp5852
g2
V7/11/90
p5853
sg4
S'../Speeches/JJDS4b/jjd1027.pdf'
p5854
sg6
VManufacturing Forum
p5855
sa(dp5856
g2
V7/19/90
p5857
sg4
S'../Speeches/JJDS4b/jjd1075.pdf'
p5858
sg6
VSolar Car 
p5859
sa(dp5860
g2
V7/19/90
p5861
sg4
S'../Speeches/JJDS4b/jjd1081.pdf'
p5862
sg6
VSummary 1989-90
p5863
sa(dp5864
g2
V8/29/90
p5865
sg4
S'../Speeches/JJDS4b/jjd1054.pdf'
p5866
sg6
VPAC-June-90
p5867
sa(dp5868
g2
V8/30/89
p5869
sg4
S'../Speeches/JJDS5a/jjd1154.pdf'
p5870
sg6
VFreshman Convocation 3.0
p5871
sa(dp5872
g2
V8/30/89
p5873
sg4
S'../Speeches/JJDS5a/jjd1204.pdf'
p5874
sg6
VNew Faculty Welcome 3.1
p5875
sa(dp5876
g2
V11/3/89
p5877
sg4
S'../Speeches/JJDS5a/jjd1222.pdf'
p5878
sg6
VParents Weekend 2.0
p5879
sa(dp5880
g2
S'3/11/90'
p5881
sg4
S'../Speeches/JJDS5a/jjd1263.pdf'
p5882
sg6
S'a) Introductions'
p5883
sa(dp5884
g2
V8/22/90
p5885
sg4
S'../Speeches/JJDS5a/jjd1220.pdf'
p5886
sg6
VParents Orientation 4.1
p5887
sa(dp5888
g2
V8/24/90
p5889
sg4
S'../Speeches/JJDS5a/jjd1229.pdf'
p5890
sg6
VPhysics Notes
p5891
sa(dp5892
g2
V8/24/90
p5893
sg4
S'../Speeches/JJDS5a/jjd1211.pdf'
p5894
sg6
VNotes for Speeches
p5895
sa(dp5896
g2
V8/28/90
p5897
sg4
S'../Speeches/JJDS5a/jjd1153.pdf'
p5898
sg6
VFresh Convocation 4.3
p5899
sa(dp5900
g2
V8/30/90
p5901
sg4
S'../Speeches/JJDS5a/jjd1162.pdf'
p5902
sg6
VGraduate Welcome 4.1
p5903
sa(dp5904
g2
V8/30/90
p5905
sg4
S'../Speeches/JJDS5a/jjd1245.pdf'
p5906
sg6
VRegents-8/90 Report
p5907
sa(dp5908
g2
V8/31/90
p5909
sg4
S'../Speeches/JJDS5a/jjd1196.pdf'
p5910
sg6
VMinority Welcome 4.1
p5911
sa(dp5912
g2
S'9/8/90'
p5913
sg4
S'../Speeches/JJDS5a/jjd1233.pdf'
p5914
sg6
S'Public Education 4.0'
p5915
sa(dp5916
g2
V9/15/90
p5917
sg4
S'../Speeches/JJDS5a/jjd1250.pdf'
p5918
sg6
VReinventing 1.1
p5919
sa(dp5920
g2
V9/15/90
p5921
sg4
S'../Speeches/JJDS5a/jjd1124.pdf'
p5922
sg6
VC of C (9/90) 1.2
p5923
sa(dp5924
g2
V9/16/90
p5925
sg4
S'../Speeches/JJDS5a/jjd1259.pdf'
p5926
sg6
VSenate Assembly 1990 1.3
p5927
sa(dp5928
g2
V9/20/90
p5929
sg4
S'../Speeches/JJDS5a/jjd1197.pdf'
p5930
sg6
VMitsui Dedication
p5931
sa(dp5932
g2
V9/23/90
p5933
sg4
S'../Speeches/JJDS5a/jjd1205.pdf'
p5934
sg6
VNew Faculty Welcome 3.1
p5935
sa(dp5936
g2
V9/23/90
p5937
sg4
S'../Speeches/JJDS5a/jjd1206.pdf'
p5938
sg6
VNew Faculty Welcome 3.2
p5939
sa(dp5940
g2
V9/24/90
p5941
sg4
S'../Speeches/JJDS5a/jjd1149.pdf'
p5942
sg6
VFaculty Welcome 4.2
p5943
sa(dp5944
g2
V9/25/90
p5945
sg4
S'../Speeches/JJDS5a/jjd1307.pdf'
p5946
sg6
VWallenberg Lecture
p5947
sa(dp5948
g2
V9/28/90
p5949
sg4
S'../Speeches/JJDS5a/jjd1112.pdf'
p5950
sg6
VAsian American
p5951
sa(dp5952
g2
V9/30/90
p5953
sg4
S'../Speeches/JJDS5a/jjd1177.pdf'
p5954
sg6
VLibrary Science (10/90) 
p5955
sa(dp5956
g2
V9/30/90
p5957
sg4
S'../Speeches/JJDS5a/jjd1281.pdf'
p5958
sg6
VThe Age of Knowledge
p5959
sa(dp5960
g2
V10/2/90
p5961
sg4
S'../Speeches/JJDS5a/jjd1187.pdf'
p5962
sg6
VMedical School Discussion
p5963
sa(dp5964
g2
V10/4/90
p5965
sg4
S'../Speeches/JJDS5a/jjd1147.pdf'
p5966
sg6
VEthnic Studies Luncheon (10/90)
p5967
sa(dp5968
g2
V10/13/90
p5969
sg4
S'../Speeches/JJDS5a/jjd1190.pdf'
p5970
sg6
VMichigan Mandate III
p5971
sa(dp5972
g2
V10/14/90
p5973
sg4
S'../Speeches/JJDS5a/jjd1189.pdf'
p5974
sg6
VMichigan Crossroads 1.0
p5975
sa(dp5976
g2
V10/15/90
p5977
sg4
S'../Speeches/JJDS5a/jjd1291.pdf'
p5978
sg6
VUM Inputs and Outputs
p5979
sa(dp5980
g2
V10/18/90
p5981
sg4
S'../Speeches/JJDS5a/jjd1183.pdf'
p5982
sg6
VMaternal and Child Health
p5983
sa(dp5984
g2
V10/25/90
p5985
sg4
S'../Speeches/JJDS5a/jjd1142.pdf'
p5986
sg6
VDearborn Dedication
p5987
sa(dp5988
g2
V10/26/90
p5989
sg4
S'../Speeches/JJDS5a/jjd1221.pdf'
p5990
sg6
VParents Weekend
p5991
sa(dp5992
g2
S'10/27/90'
p5993
sg4
S'../Speeches/JJDS5a/jjd1223.pdf'
p5994
sg6
S'Parents Weekend, 3.0'
p5995
sa(dp5996
g2
V10/28/90
p5997
sg4
S'../Speeches/JJDS5a/jjd1191.pdf'
p5998
sg6
VMichigan Mandate
p5999
sa(dp6000
g2
V11/1/90
p6001
sg4
S'../Speeches/JJDS5b/jjd1255.pdf'
p6002
sg6
VSanta Fe Institute 1.0
p6003
sa(dp6004
g2
V11/5/90
p6005
sg4
S'../Speeches/JJDS5b/jjd1290.pdf'
p6006
sg6
VUM Dearborn Comments
p6007
sa(dp6008
g2
V11/6/90
p6009
sg4
S'../Speeches/JJDS5b/jjd1235.pdf'
p6010
sg6
VPublic Education 4.2
p6011
sa(dp6012
g2
V11/9/90
p6013
sg4
S'../Speeches/JJDS5b/jjd1144.pdf'
p6014
sg6
VEngler Addin
p6015
sa(dp6016
g2
V11/11/90
p6017
sg4
S'../Speeches/JJDS5b/jjd1265.pdf'
p6018
sg6
Vc) Demographics
p6019
sa(dp6020
g2
V11/11/90
p6021
sg4
S'../Speeches/JJDS5b/jjd1264.pdf'
p6022
sg6
Vb) Themes of Future
p6023
sa(dp6024
g2
V11/14/90
p6025
sg4
S'../Speeches/JJDS5b/jjd1201.pdf'
p6026
sg6
VNASULGC-Plan
p6027
sa(dp6028
g2
V11/14/90
p6029
sg4
S'../Speeches/JJDS5b/jjd1200.pdf'
p6030
sg6
VNASULGC-Activism
p6031
sa(dp6032
g2
V11/15/90
p6033
sg4
S'../Speeches/JJDS5b/jjd1210.pdf'
p6034
sg6
VNotes
p6035
sa(dp6036
g2
V11/15/90
p6037
sg4
S'../Speeches/JJDS5b/jjd1253.pdf'
p6038
sg6
VResource Issues
p6039
sa(dp6040
g2
V11/18/90
p6041
sg4
S'../Speeches/JJDS5b/jjd1208.pdf'
p6042
sg6
VNoCode
p6043
sa(dp6044
g2
V11/19/90
p6045
sg4
S'../Speeches/JJDS5b/jjd1226.pdf'
p6046
sg6
VPC-Safety
p6047
sa(dp6048
g2
V11/19/90
p6049
sg4
S'../Speeches/JJDS5b/jjd1173.pdf'
p6050
sg6
Vjjd e-mail
p6051
sa(dp6052
g2
V11/21/90
p6053
sg4
S'../Speeches/JJDS5b/jjd1174.pdf'
p6054
sg6
VJJD Student Letter
p6055
sa(dp6056
g2
V11/22/90
p6057
sg4
S'../Speeches/JJDS5b/jjd1246.pdf'
p6058
sg6
VRegents-December
p6059
sa(dp6060
g2
V11/22/90
p6061
sg4
S'../Speeches/JJDS5b/jjd1192.pdf'
p6062
sg6
VMichigan Outreach Talk 1.0
p6063
sa(dp6064
g2
V11/22/90
p6065
sg4
S'../Speeches/JJDS5b/jjd1193.pdf'
p6066
sg6
VMichigan Outreach Talk 1.1
p6067
sa(dp6068
g2
V11/24/90
p6069
sg4
S'../Speeches/JJDS5b/jjd1101.pdf'
p6070
sg6
VAlumni Talk 6.0
p6071
sa(dp6072
g2
V11/28/90
p6073
sg4
S'../Speeches/JJDS5b/jjd1305.pdf'
p6074
sg6
VVisit with science and
p6075
sa(dp6076
g2
V11/28/90
p6077
sg4
S'../Speeches/JJDS5b/jjd1115.pdf'
p6078
sg6
VBattle Creek HS 
p6079
sa(dp6080
g2
V12/2/90
p6081
sg4
S'../Speeches/JJDS5b/jjd1117.pdf'
p6082
sg6
VBig Ten
p6083
sa(dp6084
g2
V12/3/90
p6085
sg4
S'../Speeches/JJDS5b/jjd1178.pdf'
p6086
sg6
VMajor Gifts Committee 1.0
p6087
sa(dp6088
g2
V12/6/90
p6089
sg4
S'../Speeches/JJDS5b/jjd1140.pdf'
p6090
sg6
VCosts, Prices, Values 3.0
p6091
sa(dp6092
g2
V12/6/90
p6093
sg4
S'../Speeches/JJDS5b/jjd1276.pdf'
p6094
sg6
VTanner notes
p6095
sa(dp6096
g2
V12/7/90
p6097
sg4
S'../Speeches/JJDS5b/jjd1283.pdf'
p6098
sg6
VTo Do-1991
p6099
sa(dp6100
g2
V12/13/90
p6101
sg4
S'../Speeches/JJDS5b/jjd1133.pdf'
p6102
sg6
VCommence-Fall-90
p6103
sa(dp6104
g2
V12/17/90
p6105
sg4
S'../Speeches/JJDS5b/jjd1120.pdf'
p6106
sg6
VBig Ten-UM$
p6107
sa(dp6108
g2
V12/18/90
p6109
sg4
S'../Speeches/JJDS5b/jjd1172.pdf'
p6110
sg6
VITI Meeting
p6111
sa(dp6112
g2
V1/8/91
p6113
sg4
S'../Speeches/JJDS5b/jjd1251.pdf'
p6114
sg6
VReinventing 2.0
p6115
sa(dp6116
g2
V1/8/91
p6117
sg4
S'../Speeches/JJDS5b/jjd1266.pdf'
p6118
sg6
VSpeech Topics 
p6119
sa(dp6120
g2
V1/9/91
p6121
sg4
S'../Speeches/JJDS5b/jjd1175.pdf'
p6122
sg6
VKey Focus Areas
p6123
sa(dp6124
g2
V1/10/91
p6125
sg4
S'../Speeches/JJDS5b/jjd1143.pdf'
p6126
sg6
VDoctoral Pipeline Issue
p6127
sa(dp6128
g2
V1/12/91
p6129
sg4
S'../Speeches/JJDS5b/jjd1130.pdf'
p6130
sg6
VCollege Sports 1.1
p6131
sa(dp6132
g2
V1/12/91
p6133
sg4
S'../Speeches/JJDS5b/jjd1131.pdf'
p6134
sg6
VCollege Sports 1.2
p6135
sa(dp6136
g2
V1/16/91
p6137
sg4
S'../Speeches/JJDS5b/jjd1199.pdf'
p6138
sg6
VNAE Notes
p6139
sa(dp6140
g2
V1/19/91
p6141
sg4
S'../Speeches/JJDS5b/jjd1289.pdf'
p6142
sg6
VUG Notes
p6143
sa(dp6144
g2
V1/19/91
p6145
sg4
S'../Speeches/JJDS5b/jjd1198.pdf'
p6146
sg6
VMLK Symposium Opening
p6147
sa(dp6148
g2
V1/20/91
p6149
sg4
S'../Speeches/JJDS5b/jjd1279.pdf'
p6150
sg6
VTeaching vs. Research 1.3
p6151
sa(dp6152
g2
V1/20/91
p6153
sg4
S'../Speeches/JJDS5b/jjd1288.pdf'
p6154
sg6
VUG Ed 1.8
p6155
sa(dp6156
g2
V1/20/91
p6157
sg4
S'../Speeches/JJDS5b/jjd1280.pdf'
p6158
sg6
VTeaching vs. Research 1.5
p6159
sa(dp6160
g2
V1/20/91
p6161
sg4
S'../Speeches/JJDS5b/jjd1230.pdf'
p6162
sg6
VPresident's House 
p6163
sa(dp6164
g2
V1/21/91
p6165
sg4
S'../Speeches/JJDS5b/jjd1294.pdf'
p6166
sg6
VUM-WCC Alliance
p6167
sa(dp6168
g2
V1/24/91
p6169
sg4
S'../Speeches/JJDS5b/jjd1100.pdf'
p6170
sg6
VAcademic Women's
p6171
sa(dp6172
g2
V1/27/91
p6173
sg4
S'../Speeches/JJDS5b/jjd1277.pdf'
p6174
sg6
VTask Assignment
p6175
sa(dp6176
g2
V1/27/91
p6177
sg4
S'../Speeches/JJDS5b/jjd1171.pdf'
p6178
sg6
VInvestments
p6179
sa(dp6180
g2
V2/4/91
p6181
sg4
S'../Speeches/JJDS5b/jjd1278.pdf'
p6182
sg6
VTeaching AND Research 2.1,
p6183
sa(dp6184
g2
V2/7/91
p6185
sg4
S'../Speeches/JJDS5b/jjd1228.pdf'
p6186
sg6
VPeter Raven
p6187
sa(dp6188
g2
V2/11/91
p6189
sg4
S'../Speeches/JJDS5b/jjd1116.pdf'
p6190
sg6
VBHEF Odds and Ends
p6191
sa(dp6192
g2
V2/21/91
p6193
sg4
S'../Speeches/JJDS5b/jjd1308.pdf'
p6194
sg6
VWomen of Color Awards
p6195
sa(dp6196
g2
V3/4/91
p6197
sg4
S'../Speeches/JJDS5b/jjd1292.pdf'
p6198
sg6
VUM Press/60th
p6199
sa(dp6200
g2
V3/10/91
p6201
sg4
S'../Speeches/JJDS5b/jjd1261.pdf'
p6202
sg6
VSimulator Site Visit
p6203
sa(dp6204
g2
V3/10/91
p6205
sg4
S'../Speeches/JJDS5b/jjd1139.pdf'
p6206
sg6
VCon Bkfst
p6207
sa(dp6208
g2
V3/10/91
p6209
sg4
S'../Speeches/JJDS5b/jjd1103.pdf'
p6210
sg6
VAppro Comm Test 1.1
p6211
sa(dp6212
g2
V3/11/91
p6213
sg4
S'../Speeches/JJDS5b/jjd1125.pdf'
p6214
sg6
VCampaign Pitches
p6215
sa(dp6216
g2
V3/11/91
p6217
sg4
S'../Speeches/JJDS5b/jjd1122.pdf'
p6218
sg6
VBrainstorming Ideas
p6219
sa(dp6220
g2
V3/23/91
p6221
sg4
S'../Speeches/JJDS5b/jjd1105.pdf'
p6222
sg6
VAppro Hearings 1.0
p6223
sa(dp6224
g2
V3/23/91
p6225
sg4
S'../Speeches/JJDS5b/jjd1248.pdf'
p6226
sg6
VRegents-March
p6227
sa(dp6228
g2
V3/23/91
p6229
sg4
S'../Speeches/JJDS5b/jjd1166.pdf'
p6230
sg6
VHonors Convocation-1991
p6231
sa(dp6232
g2
S'3/25/91'
p6233
sg4
S'../Speeches/JJDS5b/jjd1106.pdf'
p6234
sg6
S'Appro Hearings, 2.0'
p6235
sa(dp6236
g2
V3/25/91
p6237
sg4
S'../Speeches/JJDS5b/jjd1215.pdf'
p6238
sg6
VNSF Traineeships
p6239
sa(dp6240
g2
V3/25/91
p6241
sg4
S'../Speeches/JJDS5b/jjd1231.pdf'
p6242
sg6
VPress Conference (3/26/91)
p6243
sa(dp6244
g2
S'3/27/91'
p6245
sg4
S'../Speeches/JJDS5b/jjd1107.pdf'
p6246
sg6
S'Appro Hearings 3.0, (Actual)'
p6247
sa(dp6248
g2
V3/29/91
p6249
sg4
S'../Speeches/JJDS5b/jjd1212.pdf'
p6250
sg6
VNotes for Speeches II
p6251
sa(dp6252
g2
V3/31/91
p6253
sg4
S'../Speeches/JJDS5b/jjd1127.pdf'
p6254
sg6
VCampaign/Individual
p6255
sa(dp6256
g2
V4/4/91
p6257
sg4
S'../Speeches/JJDS5c/jjd1270.pdf'
p6258
sg6
VSteering Committee
p6259
sa(dp6260
g2
V4/4/91
p6261
sg4
S'../Speeches/JJDS5c/jjd1160.pdf'
p6262
sg6
VGovernor Arioshi
p6263
sa(dp6264
g2
V4/4/91
p6265
sg4
S'../Speeches/JJDS5c/jjd1267.pdf'
p6266
sg6
VSpring Commencement Script
p6267
sa(dp6268
g2
V4/10/91
p6269
sg4
S'../Speeches/JJDS5c/jjd1157.pdf'
p6270
sg6
VGerald R. Ford Colloqium
p6271
sa(dp6272
g2
V4/10/91
p6273
sg4
S'../Speeches/JJDS5c/jjd1150.pdf'
p6274
sg6
VFlower Show Opening
p6275
sa(dp6276
g2
V4/11/91
p6277
sg4
S'../Speeches/JJDS5c/jjd1194.pdf'
p6278
sg6
VMichigan Outreach Talk 1.21
p6279
sa(dp6280
g2
V4/13/91
p6281
sg4
S'../Speeches/JJDS5c/jjd1282.pdf'
p6282
sg6
VThemes for 1991
p6283
sa(dp6284
g2
V4/17/91
p6285
sg4
S'../Speeches/JJDS5c/jjd1145.pdf'
p6286
sg6
VEngler-BRT
p6287
sa(dp6288
g2
V4/18/91
p6289
sg4
S'../Speeches/JJDS5c/jjd1155.pdf'
p6290
sg6
VFutures Bibliography
p6291
sa(dp6292
g2
V4/19/91
p6293
sg4
S'../Speeches/JJDS5c/jjd1302.pdf'
p6294
sg6
VTop 20 Ranking Undergrad
p6295
sa(dp6296
g2
V4/24/91
p6297
sg4
S'../Speeches/JJDS5c/jjd1296.pdf'
p6298
sg6
VAll Graduate Rankings
p6299
sa(dp6300
g2
V4/24/91
p6301
sg4
S'../Speeches/JJDS5c/jjd1224.pdf'
p6302
sg6
VPC Notes
p6303
sa(dp6304
g2
V4/27/91
p6305
sg4
S'../Speeches/JJDS5c/jjd1108.pdf'
p6306
sg6
VAppro Hearings 4.0 
p6307
sa(dp6308
g2
V4/27/91
p6309
sg4
S'../Speeches/JJDS5c/jjd1104.pdf'
p6310
sg6
VAppro Hear PCSUM
p6311
sa(dp6312
g2
V4/27/91
p6313
sg4
S'../Speeches/JJDS5c/jjd1135.pdf'
p6314
sg6
VCommencement Notes
p6315
sa(dp6316
g2
V4/29/91
p6317
sg4
S'../Speeches/JJDS5c/jjd1110.pdf'
p6318
sg6
VAppro Sum
p6319
sa(dp6320
g2
V4/29/91
p6321
sg4
S'../Speeches/JJDS5c/jjd1138.pdf'
p6322
sg6
VCommencement/jjd2
p6323
sa(dp6324
g2
V5/1/91
p6325
sg4
S'../Speeches/JJDS5c/jjd1217.pdf'
p6326
sg6
VNursing Centennial (5/2/91)
p6327
sa(dp6328
g2
V5/2/91
p6329
sg4
S'../Speeches/JJDS5c/jjd1137.pdf'
p6330
sg6
VCommencement-JJD Version
p6331
sa(dp6332
g2
V5/2/91
p6333
sg4
S'../Speeches/JJDS5c/jjd1218.pdf'
p6334
sg6
VOdds and Ends I
p6335
sa(dp6336
g2
V5/3/91
p6337
sg4
S'../Speeches/JJDS5c/jjd1134.pdf'
p6338
sg6
VCommence-JJD Cards
p6339
sa(dp6340
g2
V5/3/91
p6341
sg4
S'../Speeches/JJDS5c/jjd1271.pdf'
p6342
sg6
VStrategic Marketing Plan
p6343
sa(dp6344
g2
V5/3/91
p6345
sg4
S'../Speeches/JJDS5c/jjd1272.pdf'
p6346
sg6
VStrategic Marketing Plan 1.1
p6347
sa(dp6348
g2
V5/3/91
p6349
sg4
S'../Speeches/JJDS5c/jjd1132.pdf'
p6350
sg6
VCommence-Cards-JJD-1
p6351
sa(dp6352
g2
V5/3/91
p6353
sg4
S'../Speeches/JJDS5c/jjd1165.pdf'
p6354
sg6
VHonorary Degree Dinner
p6355
sa(dp6356
g2
V5/7/91
p6357
sg4
S'../Speeches/JJDS5c/jjd1304.pdf'
p6358
sg6
VVest Inaugural Lunch
p6359
sa(dp6360
g2
V5/8/91
p6361
sg4
S'../Speeches/JJDS5c/jjd1097.pdf'
p6362
sg6
VAcademic Freedom 1.2
p6363
sa(dp6364
g2
V5/9/91
p6365
sg4
S'../Speeches/JJDS5c/jjd1297.pdf'
p6366
sg6
VCoverletter_Rankings
p6367
sa(dp6368
g2
V5/12/91
p6369
sg4
S'../Speeches/JJDS5c/jjd1113.pdf'
p6370
sg6
VAttack on Values 1.0
p6371
sa(dp6372
g2
V5/12/91
p6373
sg4
S'../Speeches/JJDS5c/jjd1114.pdf'
p6374
sg6
VAttack on Values 1.2
p6375
sa(dp6376
g2
V5/12/91
p6377
sg4
S'../Speeches/JJDS5c/jjd1274.pdf'
p6378
sg6
VSummary 1990-91
p6379
sa(dp6380
g2
V5/13/91
p6381
sg4
S'../Speeches/JJDS5c/jjd1298.pdf'
p6382
sg6
VCoverletter_Rankings_1.0
p6383
sa(dp6384
g2
V5/13/91
p6385
sg4
S'../Speeches/JJDS5c/jjd1260.pdf'
p6386
sg6
VSILS Sympsium (5/13/91)
p6387
sa(dp6388
g2
V5/14/91
p6389
sg4
S'../Speeches/JJDS5c/jjd1301.pdf'
p6390
sg6
VIndependent Rankings 
p6391
sa(dp6392
g2
V5/14/91
p6393
sg4
S'../Speeches/JJDS5c/jjd1299.pdf'
p6394
sg6
VGormanRankings
p6395
sa(dp6396
g2
V5/14/91
p6397
sg4
S'../Speeches/JJDS5c/jjd1158.pdf'
p6398
sg6
VGormanRankings 
p6399
sa(dp6400
g2
V5/16/91
p6401
sg4
S'../Speeches/JJDS5c/jjd1225.pdf'
p6402
sg6
VPC Notes-HTS
p6403
sa(dp6404
g2
V5/17/91
p6405
sg4
S'../Speeches/JJDS5c/jjd1169.pdf'
p6406
sg6
VICR Points
p6407
sa(dp6408
g2
V5/17/91
p6409
sg4
S'../Speeches/JJDS5c/jjd1182.pdf'
p6410
sg6
VMaster speech list
p6411
sa(dp6412
g2
V5/18/91
p6413
sg4
S'../Speeches/JJDS5c/jjd1098.pdf'
p6414
sg6
VAcademic Values 2.2
p6415
sa(dp6416
g2
V5/19/91
p6417
sg4
S'../Speeches/JJDS5c/jjd1096.pdf'
p6418
sg6
VAAU PC
p6419
sa(dp6420
g2
V5/21/91
p6421
sg4
S'../Speeches/JJDS5c/jjd1227.pdf'
p6422
sg6
VPC/Mandate Addins
p6423
sa(dp6424
g2
V5/21/91
p6425
sg4
S'../Speeches/JJDS5c/jjd1185.pdf'
p6426
sg6
VMBRT Dinner
p6427
sa(dp6428
g2
V5/21/91
p6429
sg4
S'../Speeches/JJDS5c/jjd1168.pdf'
p6430
sg6
VICR
p6431
sa(dp6432
g2
V5/22/91
p6433
sg4
S'../Speeches/JJDS5c/jjd1184.pdf'
p6434
sg6
VMBHEF-5/91
p6435
sa(dp6436
g2
V5/25/91
p6437
sg4
S'../Speeches/JJDS5c/jjd1099.pdf'
p6438
sg6
VAcademic Values 2.3
p6439
sa(dp6440
g2
V5/28/91
p6441
sg4
S'../Speeches/JJDS5c/jjd1257.pdf'
p6442
sg6
VSchembechler Hall Dinner
p6443
sa(dp6444
g2
V5/28/91
p6445
sg4
S'../Speeches/JJDS5c/jjd1258.pdf'
p6446
sg6
VSchembechler Hall
p6447
sa(dp6448
g2
V5/29/91
p6449
sg4
S'../Speeches/JJDS5c/jjd1093.pdf'
p6450
sg6
V4x6 Template
p6451
sa(dp6452
g2
V5/31/91
p6453
sg4
S'../Speeches/JJDS5c/jjd1209.pdf'
p6454
sg6
VNorthwestern Michigan
p6455
sa(dp6456
g2
V6/1/91
p6457
sg4
S'../Speeches/JJDS5c/jjd1119.pdf'
p6458
sg6
VBig Ten List 
p6459
sa(dp6460
g2
V6/3/91
p6461
sg4
S'../Speeches/JJDS5c/jjd1256.pdf'
p6462
sg6
VSasakawa Foundation
p6463
sa(dp6464
g2
V6/10/91
p6465
sg4
S'../Speeches/JJDS5c/jjd1136.pdf'
p6466
sg6
VCommencement Thankyou
p6467
sa(dp6468
g2
V6/10/91
p6469
sg4
S'../Speeches/JJDS5c/jjd1306.pdf'
p6470
sg6
VVPGR
p6471
sa(dp6472
g2
V6/10/91
p6473
sg4
S'../Speeches/JJDS5c/jjd1102.pdf'
p6474
sg6
VAngell Society, Detroit
p6475
sa(dp6476
g2
V6/11/91
p6477
sg4
S'../Speeches/JJDS5c/jjd1152.pdf'
p6478
sg6
VFord Testimony
p6479
sa(dp6480
g2
V6/13/91
p6481
sg4
S'../Speeches/JJDS5c/jjd1195.pdf'
p6482
sg6
VMichigan Outreach Talk 1.3
p6483
sa(dp6484
g2
V6/13/91
p6485
sg4
S'../Speeches/JJDS5c/jjd1109.pdf'
p6486
sg6
VAppro House Repubs
p6487
sa(dp6488
g2
V6/16/91
p6489
sg4
S'../Speeches/JJDS5c/jjd1151.pdf'
p6490
sg6
VFord Oral
p6491
sa(dp6492
g2
V6/22/91
p6493
sg4
S'../Speeches/JJDS5c/jjd1269.pdf'
p6494
sg6
VSS Report Card
p6495
sa(dp6496
g2
V6/26/91
p6497
sg4
S'../Speeches/JJDS5c/jjd1188.pdf'
p6498
sg6
VMICH MANDATE 3 YR UPDATE
p6499
sa(dp6500
g2
V7/1/91
p6501
sg4
S'../Speeches/JJDS5c/jjd1252.pdf'
p6502
sg6
VRESOURCE
p6503
sa(dp6504
g2
V7/1/91
p6505
sg4
S'../Speeches/JJDS5c/jjd1247.pdf'
p6506
sg6
VRegents-June 
p6507
sa(dp6508
g2
V7/1/91
p6509
sg4
S'../Speeches/JJDS5c/jjd1213.pdf'
p6510
sg6
VNotes III
p6511
sa(dp6512
g2
V7/1/91
p6513
sg4
S'../Speeches/JJDS5c/jjd1273.pdf'
p6514
sg6
VStudent Services Revie
p6515
sa(dp6516
g2
V7/1/91
p6517
sg4
S'../Speeches/JJDS5c/jjd1156.pdf'
p6518
sg6
VFutures Notes
p6519
sa(dp6520
g2
V7/1/91
p6521
sg4
S'../Speeches/JJDS5c/jjd1275.pdf'
p6522
sg6
VTanner Meeting
p6523
sa(dp6524
g2
V7/5/91
p6525
sg4
S'../Speeches/JJDS5c/jjd1244.pdf'
p6526
sg6
VRegents Tuition Briefing
p6527
sa(dp6528
g2
V7/16/91
p6529
sg4
S'../Speeches/JJDS5c/jjd1287.pdf'
p6530
sg6
VTrip Notes
p6531
sa(dp6532
g2
V7/16/91
p6533
sg4
S'../Speeches/JJDS5c/jjd1241.pdf'
p6534
sg6
VRegents Annual Report 1.2
p6535
sa(dp6536
g2
V7/17/91
p6537
sg4
S'../Speeches/JJDS5c/jjd1285.pdf'
p6538
sg6
VTraxler
p6539
sa(dp6540
g2
V7/18/91
p6541
sg4
S'../Speeches/JJDS5c/jjd1095.pdf'
p6542
sg6
VAAU Notes
p6543
sa(dp6544
g2
V7/18/91
p6545
sg4
S'../Speeches/JJDS5c/jjd1284.pdf'
p6546
sg6
VTraineeship 1.1
p6547
sa(dp6548
g2
V7/18/91
p6549
sg4
S'../Speeches/JJDS5c/jjd1242.pdf'
p6550
sg6
VRegents Budget-91 
p6551
sa(dp6552
g2
V7/21/91
p6553
sg4
S'../Speeches/JJDS5c/jjd1232.pdf'
p6554
sg6
VPublic Concerns
p6555
sa(dp6556
g2
V7/21/91
p6557
sg4
S'../Speeches/JJDS5c/jjd1202.pdf'
p6558
sg6
VNational Rankings
p6559
sa(dp6560
g2
V7/24/91
p6561
sg4
S'../Speeches/JJDS5c/jjd1216.pdf'
p6562
sg6
VNSPE Thanks
p6563
sa(dp6564
g2
V7/26/91
p6565
sg4
S'../Speeches/JJDS5c/jjd1254.pdf'
p6566
sg6
VSAC Meeting
p6567
sa(dp6568
g2
V8/2/91
p6569
sg4
S'../Speeches/JJDS5c/jjd1146.pdf'
p6570
sg6
VEO Salaries
p6571
sa(dp6572
g2
V8/3/91
p6573
sg4
S'../Speeches/JJDS5c/jjd1181.pdf'
p6574
sg6
VMassey
p6575
sa(dp6576
g2
V8/28/90
p6577
sg4
S'../Speeches/JJDS6/jjd1321.pdf'
p6578
sg6
VFresh Convocation 4.3
p6579
sa(dp6580
g2
V9/23/90
p6581
sg4
S'../Speeches/JJDS6/jjd1332.pdf'
p6582
sg6
VNew Talks
p6583
sa(dp6584
g2
V9/30/90
p6585
sg4
S'../Speeches/JJDS6/jjd1341.pdf'
p6586
sg6
VQuotes
p6587
sa(dp6588
g2
V12/3/90
p6589
sg4
S'../Speeches/JJDS6/jjd1311.pdf'
p6590
sg6
VCampaign Pitch-Alumni
p6591
sa(dp6592
g2
V1/27/91
p6593
sg4
S'../Speeches/JJDS6/jjd1329.pdf'
p6594
sg6
VInvestments
p6595
sa(dp6596
g2
V2/7/91
p6597
sg4
S'../Speeches/JJDS6/jjd1336.pdf'
p6598
sg6
VPeter Raven
p6599
sa(dp6600
g2
V5/2/91
p6601
sg4
S'../Speeches/JJDS6/jjd1333.pdf'
p6602
sg6
VOdds and Ends I
p6603
sa(dp6604
g2
V8/22/91
p6605
sg4
S'../Speeches/JJDS6/jjd1350.pdf'
p6606
sg6
VSpeech Outlines--1991-92
p6607
sa(dp6608
g2
V8/28/91
p6609
sg4
S'../Speeches/JJDS6/jjd1322.pdf'
p6610
sg6
VFreshman Parent
p6611
sa(dp6612
g2
V8/28/91
p6613
sg4
S'../Speeches/JJDS6/jjd1356.pdf'
p6614
sg6
VUM Inputs/Outputs
p6615
sa(dp6616
g2
V8/31/91
p6617
sg4
S'../Speeches/JJDS6/jjd1323.pdf'
p6618
sg6
VFreshperson Welcome 5.1
p6619
sa(dp6620
g2
V8/31/91
p6621
sg4
S'../Speeches/JJDS6/jjd1334.pdf'
p6622
sg6
VParents Orientation 5.1
p6623
sa(dp6624
g2
V9/1/91
p6625
sg4
S'../Speeches/JJDS6/jjd1324.pdf'
p6626
sg6
VFreshperson Welcome 5.2
p6627
sa(dp6628
g2
V9/5/91
p6629
sg4
S'../Speeches/JJDS6/jjd1354.pdf'
p6630
sg6
VTraineeship 1.4
p6631
sa(dp6632
g2
V9/15/91
p6633
sg4
S'../Speeches/JJDS6/jjd1309.pdf'
p6634
sg6
VCampaign Finale
p6635
sa(dp6636
g2
V9/15/91
p6637
sg4
S'../Speeches/JJDS6/jjd1310.pdf'
p6638
sg6
VCampaign Kickoff
p6639
sa(dp6640
g2
V9/24/91
p6641
sg4
S'../Speeches/JJDS6/jjd1339.pdf'
p6642
sg6
VPresidents' Weekend Finale
p6643
sa(dp6644
g2
V9/25/91
p6645
sg4
S'../Speeches/JJDS6/jjd1337.pdf'
p6646
sg6
VPresident's Weekend 3.0
p6647
sa(dp6648
g2
V12/1/91
p6649
sg4
S'../Speeches/JJDS6/jjd1340.pdf'
p6650
sg6
VProgress Talk 
p6651
sa(dp6652
g2
V12/4/91
p6653
sg4
S'../Speeches/JJDS6/jjd1315.pdf'
p6654
sg6
Vdevelopment Advisory Group
p6655
sa(dp6656
g2
V12/16/91
p6657
sg4
S'../Speeches/JJDS6/jjd1328.pdf'
p6658
sg6
VHeisman Dinner (12/18/91)
p6659
sa(dp6660
g2
V1/20/92
p6661
sg4
S'../Speeches/JJDS6/jjd1357.pdf'
p6662
sg6
VUM Research FIrsts
p6663
sa(dp6664
g2
V3/6/92
p6665
sg4
S'../Speeches/JJDS6/jjd1316.pdf'
p6666
sg6
VEconomic Strategy 2.0
p6667
sa(dp6668
g2
V3/7/92
p6669
sg4
S'../Speeches/JJDS6/jjd1314.pdf'
p6670
sg6
VCongressional Breakfast-92
p6671
sa(dp6672
g2
V3/8/92
p6673
sg4
S'../Speeches/JJDS6/jjd1353.pdf'
p6674
sg6
VThemes for 175th
p6675
sa(dp6676
g2
V3/9/92
p6677
sg4
S'../Speeches/JJDS6/jjd1313.pdf'
p6678
sg6
VCong Bkft 2.0
p6679
sa(dp6680
g2
V3/14/92
p6681
sg4
S'../Speeches/JJDS6/jjd1352.pdf'
p6682
sg6
VTechnology Policy Text
p6683
sa(dp6684
g2
V3/24/92
p6685
sg4
S'../Speeches/JJDS6/jjd1345.pdf'
p6686
sg6
VReality Test
p6687
sa(dp6688
g2
V3/30/92
p6689
sg4
S'../Speeches/JJDS6/jjd1346.pdf'
p6690
sg6
VReality Test 1.0
p6691
sa(dp6692
g2
V4/3/92
p6693
sg4
S'../Speeches/JJDS6/jjd1319.pdf'
p6694
sg6
VEssay-Academic Leadership
p6695
sa(dp6696
g2
V4/3/92
p6697
sg4
S'../Speeches/JJDS6/jjd1318.pdf'
p6698
sg6
VEssay Subjects
p6699
sa(dp6700
g2
V4/8/92
p6701
sg4
S'../Speeches/JJDS6/jjd1320.pdf'
p6702
sg6
Vfiscal video outline
p6703
sa(dp6704
g2
V4/14/92
p6705
sg4
S'../Speeches/JJDS6/jjd1359.pdf'
p6706
sg6
VVideo 3
p6707
sa(dp6708
g2
V5/25/92
p6709
sg4
S'../Speeches/JJDS6/jjd1338.pdf'
p6710
sg6
VPresidential Essays
p6711
sa(dp6712
g2
V5/30/92
p6713
sg4
S'../Speeches/JJDS6/jjd1330.pdf'
p6714
sg6
VITIC
p6715
sa(dp6716
g2
V6/3/92
p6717
sg4
S'../Speeches/JJDS6/jjd1312.pdf'
p6718
sg6
VCazzie
p6719
sa(dp6720
g2
V6/5/92
p6721
sg4
S'../Speeches/JJDS6/jjd1347.pdf'
p6722
sg6
VResearch Videotape
p6723
sa(dp6724
g2
V7/4/92
p6725
sg4
S'../Speeches/JJDS6/jjd1344.pdf'
p6726
sg6
VReality Notes 1.0
p6727
sa(dp6728
g2
V5/2/91
p6729
sg4
S'../Speeches/JJDS7/jjd1367.pdf'
p6730
sg6
VCommencement-JJD Version
p6731
sa(dp6732
g2
V9/10/92
p6733
sg4
S'../Speeches/JJDS7/jjd1397.pdf'
p6734
sg6
Vwallenberg lecture
p6735
sa(dp6736
g2
V9/14/92
p6737
sg4
S'../Speeches/JJDS7/jjd1368.pdf'
p6738
sg6
VCommunity College 1.0
p6739
sa(dp6740
g2
V9/21/92
p6741
sg4
S'../Speeches/JJDS7/jjd1392.pdf'
p6742
sg6
VRotary Club - Jan. 24
p6743
sa(dp6744
g2
V9/21/92
p6745
sg4
S'../Speeches/JJDS7/jjd1381.pdf'
p6746
sg6
VLapeer Rotary 1.1
p6747
sa(dp6748
g2
V10/5/92
p6749
sg4
S'../Speeches/JJDS7/jjd1372.pdf'
p6750
sg6
VFaculty Awards
p6751
sa(dp6752
g2
V10/13/92
p6753
sg4
S'../Speeches/JJDS7/jjd1388.pdf'
p6754
sg6
VPres Lec #1
p6755
sa(dp6756
g2
V10/14/92
p6757
sg4
S'../Speeches/JJDS7/jjd1362.pdf'
p6758
sg6
VAlumni Remarks 10.0
p6759
sa(dp6760
g2
V10/14/92
p6761
sg4
S'../Speeches/JJDS7/jjd1363.pdf'
p6762
sg6
VAlumni Remarks 11.0
p6763
sa(dp6764
g2
V11/6/92
p6765
sg4
S'../Speeches/JJDS7/jjd1386.pdf'
p6766
sg6
VNSF Commission
p6767
sa(dp6768
g2
V11/8/92
p6769
sg4
S'../Speeches/JJDS7/jjd1389.pdf'
p6770
sg6
VRedraw Boundaries 1.4
p6771
sa(dp6772
g2
V11/24/92
p6773
sg4
S'../Speeches/JJDS7/jjd1374.pdf'
p6774
sg6
VFootball Bust-92
p6775
sa(dp6776
g2
V12/2/92
p6777
sg4
S'../Speeches/JJDS7/jjd1387.pdf'
p6778
sg6
VPAC-K-12
p6779
sa(dp6780
g2
V12/4/92
p6781
sg4
S'../Speeches/JJDS7/jjd1377.pdf'
p6782
sg6
VGrand Rapids Rotary
p6783
sa(dp6784
g2
V12/7/92
p6785
sg4
S'../Speeches/JJDS7/jjd1391.pdf'
p6786
sg6
VRose Bowl-92
p6787
sa(dp6788
g2
V1/14/93
p6789
sg4
S'../Speeches/JJDS7/jjd1394.pdf'
p6790
sg6
VScientific Integrity 1.2
p6791
sa(dp6792
g2
V1/17/93
p6793
sg4
S'../Speeches/JJDS7/jjd1376.pdf'
p6794
sg6
VGovernor's Economic
p6795
sa(dp6796
g2
V1/26/93
p6797
sg4
S'../Speeches/JJDS7/jjd1384.pdf'
p6798
sg6
VLunch & Learn
p6799
sa(dp6800
g2
V2/6/93
p6801
sg4
S'../Speeches/JJDS7/jjd1383.pdf'
p6802
sg6
VListen and Learn 1.6
p6803
sa(dp6804
g2
V2/6/93
p6805
sg4
S'../Speeches/JJDS7/jjd1382.pdf'
p6806
sg6
VListen and Learn 1.4
p6807
sa(dp6808
g2
V2/8/93
p6809
sg4
S'../Speeches/JJDS7/jjd1395.pdf'
p6810
sg6
VTech Transfer 1.1 (87)
p6811
sa(dp6812
g2
V2/12/93
p6813
sg4
S'../Speeches/JJDS7/jjd1371.pdf'
p6814
sg6
VEcon Dinner Group 1.1
p6815
sa(dp6816
g2
V2/18/93
p6817
sg4
S'../Speeches/JJDS7/jjd1390.pdf'
p6818
sg6
VRegents-Fin Aid
p6819
sa(dp6820
g2
V3/2/93
p6821
sg4
S'../Speeches/JJDS7/jjd1385.pdf'
p6822
sg6
VMinority Stu Conf 1.1
p6823
sa(dp6824
g2
V3/2/93
p6825
sg4
S'../Speeches/JJDS7/jjd1393.pdf'
p6826
sg6
VScience Com Testimony 1.0
p6827
sa(dp6828
g2
V3/2/93
p6829
sg4
S'../Speeches/JJDS7/jjd1369.pdf'
p6830
sg6
VCongressional Breakfast
p6831
sa(dp6832
g2
V3/22/93
p6833
sg4
S'../Speeches/JJDS7/jjd1396.pdf'
p6834
sg6
VThe Year Past
p6835
sa(dp6836
g2
V4/13/93
p6837
sg4
S'../Speeches/JJDS7/jjd1364.pdf'
p6838
sg6
VAlumni Remarks 12.0
p6839
sa(dp6840
g2
V4/30/93
p6841
sg4
S'../Speeches/JJDS7/jjd1366.pdf'
p6842
sg6
VCommencement Notes
p6843
sa(dp6844
g2
V4/30/93
p6845
sg4
S'../Speeches/JJDS7/jjd1380.pdf'
p6846
sg6
VHonorary Degree Dinner
p6847
sa(dp6848
g2
V5/11/93
p6849
sg4
S'../Speeches/JJDS7/jjd1379.pdf'
p6850
sg6
VGrosse Pointe Rotary
p6851
sa(dp6852
g2
V6/8/93
p6853
sg4
S'../Speeches/JJDS7/jjd1378.pdf'
p6854
sg6
VGrosse Pointe Rot. (word)
p6855
sa(dp6856
g2
V6/18/93
p6857
sg4
S'../Speeches/JJDS7/jjd1373.pdf'
p6858
sg6
Vflint roundtable june 23
p6859
sa(dp6860
g2
V8/28/93
p6861
sg4
S'../Speeches/JJDS7/jjd1375.pdf'
p6862
sg6
VFresh Conv-93
p6863
sa(dp6864
g2
V10/24/93
p6865
sg4
S'../Speeches/JJDS7/jjd1365.pdf'
p6866
sg6
VBackup of Grosse Pointe Rot.
p6867
sa(dp6868
g2
g2905
sg4
S'../Speeches/JJDS8/jjd1448.pdf'
p6869
sg6
S'Fresh Convocation 6.0'
p6870
sa(dp6871
g2
V4/9/94
p6872
sg4
S'../Speeches/JJDS8/jjd1418.pdf'
p6873
sg6
VTransformation Talk 1.2
p6874
sa(dp6875
g2
V5/19/94
p6876
sg4
S'../Speeches/JJDS8/jjd1402.pdf'
p6877
sg6
VCOMU Retreat 1994
p6878
sa(dp6879
g2
V9/23/94
p6880
sg4
S'../Speeches/JJDS8/jjd1422.pdf'
p6881
sg6
VVarsity Night
p6882
sa(dp6883
g2
V10/14/94
p6884
sg4
S'../Speeches/JJDS8/jjd1423.pdf'
p6885
sg6
VVision 2010 Talk
p6886
sa(dp6887
g2
V10/25/94
p6888
sg4
S'../Speeches/JJDS8/jjd1424.pdf'
p6889
sg6
VVisitors-11-94
p6890
sa(dp6891
g2
V10/31/94
p6892
sg4
S'../Speeches/JJDS8/jjd1399.pdf'
p6893
sg6
VAnapolis Talk
p6894
sa(dp6895
g2
V10/31/94
p6896
sg4
S'../Speeches/JJDS8/jjd1400.pdf'
p6897
sg6
VAnnapolis
p6898
sa(dp6899
g2
V11/15/94
p6900
sg4
S'../Speeches/JJDS8/jjd1398.pdf'
p6901
sg6
VAA Rotary
p6902
sa(dp6903
g2
V11/15/94
p6904
sg4
S'../Speeches/JJDS8/jjd1403.pdf'
p6905
sg6
VFlat Panel Display
p6906
sa(dp6907
g2
V3/2/95
p6908
sg4
S'../Speeches/JJDS8/jjd1401.pdf'
p6909
sg6
VAppro Hearings 1.0
p6910
sa(dp6911
g2
V3/2/95
p6912
sg4
S'../Speeches/JJDS8/jjd1425.pdf'
p6913
sg6
VWord Work File D 3
p6914
sa(dp6915
g2
V3/9/95
p6916
sg4
S'../Speeches/JJDS8/jjd1414.pdf'
p6917
sg6
Vparity1.3
p6918
sa(dp6919
g2
V3/19/95
p6920
sg4
S'../Speeches/JJDS8/jjd1410.pdf'
p6921
sg6
VOMA Testimony
p6922
sa(dp6923
g2
V3/28/95
p6924
sg4
S'../Speeches/JJDS8/jjd1420.pdf'
p6925
sg6
VUM-MSU Statistics
p6926
sa(dp6927
g2
V4/4/95
p6928
sg4
S'../Speeches/JJDS8/jjd1409.pdf'
p6929
sg6
VOffice of Minority Affairs-Ed S
p6930
sa(dp6931
g2
V4/5/95
p6932
sg4
S'../Speeches/JJDS8/jjd1408.pdf'
p6933
sg6
VJewish Federation
p6934
sa(dp6935
g2
V4/8/95
p6936
sg4
S'../Speeches/JJDS8/jjd1407.pdf'
p6937
sg6
VHigh Tech Talk
p6938
sa(dp6939
g2
V4/11/95
p6940
sg4
S'../Speeches/JJDS8/jjd1421.pdf'
p6941
sg6
VUROP Speech
p6942
sa(dp6943
g2
V4/12/95
p6944
sg4
S'../Speeches/JJDS8/jjd1415.pdf'
p6945
sg6
VSenate Testimony
p6946
sa(dp6947
g2
V4/28/95
p6948
sg4
S'../Speeches/JJDS8/jjd1416.pdf'
p6949
sg6
VState Support
p6950
sa(dp6951
g2
V4/28/95
p6952
sg4
S'../Speeches/JJDS8/jjd1417.pdf'
p6953
sg6
VState Support Outline
p6954
sa(dp6955
g2
V5/2/95
p6956
sg4
S'../Speeches/JJDS8/jjd1412.pdf'
p6957
sg6
VOp-Ed UM Service
p6958
sa(dp6959
g2
V5/2/95
p6960
sg4
S'../Speeches/JJDS8/jjd1411.pdf'
p6961
sg6
VOp-Ed Cooperation
p6962
sa(dp6963
g2
V5/13/95
p6964
sg4
S'../Speeches/JJDS8/jjd1406.pdf'
p6965
sg6
VGeorgia Tech-Speech
p6966
sa(dp6967
g2
V9/27/95
p6968
sg4
S'../Speeches/JJDS8/jjd1413.pdf'
p6969
sg6
VPAG-1995
p6970
sa(dp6971
g2
V10/18/95
p6972
sg4
S'../Speeches/JJDS8/jjd1404.pdf'
p6973
sg6
VFlint Rotary 1994
p6974
sa(dp6975
g2
V8/25/95
p6976
sg4
S'../Speeches/JJDS9a/jjd1533.pdf'
p6977
sg6
VPigskin Classic
p6978
sa(dp6979
g2
V8/30/95
p6980
sg4
S'../Speeches/JJDS9a/jjd1464.pdf'
p6981
sg6
VNew Faculty Welcome 4.0
p6982
sa(dp6983
g2
V9/6/95
p6984
sg4
S'../Speeches/JJDS9a/jjd1551.pdf'
p6985
sg6
VState of University 1995
p6986
sa(dp6987
g2
V9/14/95
p6988
sg4
S'../Speeches/JJDS9a/jjd1545.pdf'
p6989
sg6
VSenate Assembly
p6990
sa(dp6991
g2
V9/19/95
p6992
sg4
S'../Speeches/JJDS9a/jjd1442.pdf'
p6993
sg6
VDiversity Speech
p6994
sa(dp6995
g2
V9/19/95
p6996
sg4
S'../Speeches/JJDS9a/jjd1440.pdf'
p6997
sg6
VDiversity
p6998
sa(dp6999
g2
V9/20/95
p7000
sg4
S'../Speeches/JJDS9a/jjd1556.pdf'
p7001
sg6
VThe Visitors-9/95
p7002
sa(dp7003
g2
V10/12/95
p7004
sg4
S'../Speeches/JJDS9a/jjd1434.pdf'
p7005
sg6
VChrysler Talk
p7006
sa(dp7007
g2
V10/26/95
p7008
sg4
S'../Speeches/JJDS9a/jjd1557.pdf'
p7009
sg6
VUM Future Speech
p7010
sa(dp7011
g2
V11/18/95
p7012
sg4
S'../Speeches/JJDS9a/jjd1447.pdf'
p7013
sg6
VFree Press Op-Ed
p7014
sa(dp7015
g2
V12/3/95
p7016
sg4
S'../Speeches/JJDS9a/jjd1446.pdf'
p7017
sg6
VFootball Bust
p7018
sa(dp7019
g2
V12/30/95
p7020
sg4
S'../Speeches/JJDS9a/jjd1532.pdf'
p7021
sg6
VPeckham Epilogue
p7022
sa(dp7023
g2
V12/31/95
p7024
sg4
S'../Speeches/JJDS9a/jjd1542.pdf'
p7025
sg6
VResearch U Speech
p7026
sa(dp7027
g2
V12/31/95
p7028
sg4
S'../Speeches/JJDS9a/jjd1462.pdf'
p7029
sg6
VMichigan's Future 2.1
p7030
sa(dp7031
g2
V12/31/95
p7032
sg4
S'../Speeches/JJDS9a/jjd1461.pdf'
p7033
sg6
VMichigan's Future 2.0
p7034
sa(dp7035
g2
V12/31/95
p7036
sg4
S'../Speeches/JJDS9a/jjd1433.pdf'
p7037
sg6
VChange Speech
p7038
sa(dp7039
g2
V1/7/96
p7040
sg4
S'../Speeches/JJDS9a/jjd1443.pdf'
p7041
sg6
VEx Com Retreat-1-96
p7042
sa(dp7043
g2
V1/10/96
p7044
sg4
S'../Speeches/JJDS9a/jjd1562.pdf'
p7045
sg6
VWomen of Color intro
p7046
sa(dp7047
g2
V1/19/96
p7048
sg4
S'../Speeches/JJDS9a/jjd1463.pdf'
p7049
sg6
VMSU-Govt-U Research Partnership
p7050
sa(dp7051
g2
V1/22/96
p7052
sg4
S'../Speeches/JJDS9a/jjd1430.pdf'
p7053
sg6
VAnn Arbor Rotary
p7054
sa(dp7055
g2
V2/12/96
p7056
sg4
S'../Speeches/JJDS9a/jjd1552.pdf'
p7057
sg6
VStump Speech 1.0
p7058
sa(dp7059
g2
V2/14/96
p7060
sg4
S'../Speeches/JJDS9a/jjd1548.pdf'
p7061
sg6
VSenate Test Text
p7062
sa(dp7063
g2
V2/14/96
p7064
sg4
S'../Speeches/JJDS9a/jjd1549.pdf'
p7065
sg6
VSenate Testimony
p7066
sa(dp7067
g2
V2/20/96
p7068
sg4
S'../Speeches/JJDS9a/jjd1553.pdf'
p7069
sg6
VStump Speech 1.1
p7070
sa(dp7071
g2
V2/20/96
p7072
sg4
S'../Speeches/JJDS9a/jjd1554.pdf'
p7073
sg6
VStump Speech 1.2
p7074
sa(dp7075
g2
V2/25/96
p7076
sg4
S'../Speeches/JJDS9a/jjd1451.pdf'
p7077
sg6
VK-12 Talk
p7078
sa(dp7079
g2
V2/25/96
p7080
sg4
S'../Speeches/JJDS9a/jjd1561.pdf'
p7081
sg6
VWiesner Conference
p7082
sa(dp7083
g2
V2/26/96
p7084
sg4
S'../Speeches/JJDS9a/jjd1560.pdf'
p7085
sg6
VWiesner
p7086
sa(dp7087
g2
V3/3/96
p7088
sg4
S'../Speeches/JJDS9a/jjd1546.pdf'
p7089
sg6
VSenate Assembly (3-96)
p7090
sa(dp7091
g2
V3/14/96
p7092
sg4
S'../Speeches/JJDS9a/jjd1558.pdf'
p7093
sg6
VUM-Dearborn
p7094
sa(dp7095
g2
V3/14/96
p7096
sg4
S'../Speeches/JJDS9a/jjd1547.pdf'
p7097
sg6
VSenate Assembly Slides
p7098
sa(dp7099
g2
V3/18/96
p7100
sg4
S'../Speeches/JJDS9a/jjd1465.pdf'
p7101
sg6
VNSB Keynote Talk
p7102
sa(dp7103
g2
V3/18/96
p7104
sg4
S'../Speeches/JJDS9a/jjd1466.pdf'
p7105
sg6
VNSB Talk
p7106
sa(dp7107
g2
V3/18/96
p7108
sg4
S'../Speeches/JJDS9a/jjd1426.pdf'
p7109
sg6
VAffirm Action Op-Ed
p7110
sa(dp7111
g2
V3/21/96
p7112
sg4
S'../Speeches/JJDS9a/jjd1450.pdf'
p7113
sg6
VHonors Convocation
p7114
sa(dp7115
g2
V3/22/96
p7116
sg4
S'../Speeches/JJDS9a/jjd1559.pdf'
p7117
sg6
VUM-Flint
p7118
sa(dp7119
g2
V3/25/96
p7120
sg4
S'../Speeches/JJDS9a/jjd1537.pdf'
p7121
sg6
VPublic Research
p7122
sa(dp7123
g2
V3/25/96
p7124
sg4
S'../Speeches/JJDS9a/jjd1538.pdf'
p7125
sg6
VPublic U Data
p7126
sa(dp7127
g2
V3/26/96
p7128
sg4
S'../Speeches/JJDS9a/jjd1535.pdf'
p7129
sg6
VPub U Slides
p7130
sa(dp7131
g2
V3/30/96
p7132
sg4
S'../Speeches/JJDS9a/jjd1467.pdf'
p7133
sg6
VNSB-UC-Davis
p7134
sa(dp7135
g2
V4/6/96
p7136
sg4
S'../Speeches/JJDS9a/jjd1468.pdf'
p7137
sg6
VOperating Manual
p7138
sa(dp7139
g2
V4/7/96
p7140
sg4
S'../Speeches/JJDS9a/jjd1469.pdf'
p7141
sg6
VOperating Manual 1.0
p7142
sa(dp7143
g2
V4/10/96
p7144
sg4
S'../Speeches/JJDS9a/jjd1428.pdf'
p7145
sg6
VAlumni Talk
p7146
sa(dp7147
g2
V4/28/96
p7148
sg4
S'../Speeches/JJDS9a/jjd1437.pdf'
p7149
sg6
VCommencement-1996
p7150
sa(dp7151
g2
V4/28/96
p7152
sg4
S'../Speeches/JJDS9a/jjd1427.pdf'
p7153
sg6
VAlumni Dinner
p7154
sa(dp7155
g2
V4/28/96
p7156
sg4
S'../Speeches/JJDS9a/jjd1540.pdf'
p7157
sg6
VRackham Commencement 1.0
p7158
sa(dp7159
g2
V4/28/96
p7160
sg4
S'../Speeches/JJDS9a/jjd1441.pdf'
p7161
sg6
VDiversity Dinner
p7162
sa(dp7163
g2
V5/1/96
p7164
sg4
S'../Speeches/JJDS9b/jjd1431.pdf'
p7165
sg6
VAppropriations-House
p7166
sa(dp7167
g2
V5/2/96
p7168
sg4
S'../Speeches/JJDS9b/jjd1459.pdf'
p7169
sg6
VMedallion List
p7170
sa(dp7171
g2
V5/2/96
p7172
sg4
S'../Speeches/JJDS9b/jjd1458.pdf'
p7173
sg6
VMedallion Inscription
p7174
sa(dp7175
g2
V5/9/96
p7176
sg4
S'../Speeches/JJDS9b/jjd1457.pdf'
p7177
sg6
VLife After copy
p7178
sa(dp7179
g2
V5/14/96
p7180
sg4
S'../Speeches/JJDS9b/jjd1449.pdf'
p7181
sg6
VFund-Raising Themes
p7182
sa(dp7183
g2
V5/14/96
p7184
sg4
S'../Speeches/JJDS9b/jjd1436.pdf'
p7185
sg6
VColumbia Symposium
p7186
sa(dp7187
g2
S'5/16/96'
p7188
sg4
S'../Speeches/JJDS9b/jjd1515.pdf'
p7189
sg6
S'6-1 Table of Color'
p7190
sa(dp7191
g2
V5/16/96
p7192
sg4
S'../Speeches/JJDS9b/jjd1472.pdf'
p7193
sg6
VDigital Librarians
p7194
sa(dp7195
g2
V5/20/96
p7196
sg4
S'../Speeches/JJDS9b/jjd1539.pdf'
p7197
sg6
VRackham
p7198
sa(dp7199
g2
V5/20/96
p7200
sg4
S'../Speeches/JJDS9b/jjd1488.pdf'
p7201
sg6
V2-12 RelatTuition color
p7202
sa(dp7203
g2
V5/20/96
p7204
sg4
S'../Speeches/JJDS9b/jjd1487.pdf'
p7205
sg6
V2-10 Tuition color
p7206
sa(dp7207
g2
V5/20/96
p7208
sg4
S'../Speeches/JJDS9b/jjd1494.pdf'
p7209
sg6
V3-7 aPPublics color
p7210
sa(dp7211
g2
V5/22/96
p7212
sg4
S'../Speeches/JJDS9b/jjd1432.pdf'
p7213
sg6
VBirmingham
p7214
sa(dp7215
g2
V5/23/96
p7216
sg4
S'../Speeches/JJDS9b/jjd1526.xls'
p7217
sg6
V6-7 AfAm Student%
p7218
sa(dp7219
g2
V5/23/96
p7220
sg4
S'../Speeches/JJDS9b/jjd1522.xls'
p7221
sg6
V6-25 MinFaculty
p7222
sa(dp7223
g2
V5/23/96
p7224
sg4
S'../Speeches/JJDS9b/jjd1512.xls'
p7225
sg6
V5-1 Research $
p7226
sa(dp7227
g2
V5/23/96
p7228
sg4
S'../Speeches/JJDS9b/jjd1524.xls'
p7229
sg6
V6-27 MinSrHires
p7230
sa(dp7231
g2
V5/23/96
p7232
sg4
S'../Speeches/JJDS9b/jjd1525.xls'
p7233
sg6
V6-3 MinStudent %
p7234
sa(dp7235
g2
V5/23/96
p7236
sg4
S'../Speeches/JJDS9b/jjd1523.xls'
p7237
sg6
V6-26 AfAm Faculty
p7238
sa(dp7239
g2
V5/23/96
p7240
sg4
S'../Speeches/JJDS9b/jjd1519.xls'
p7241
sg6
V6-21 MinProfDegrees
p7242
sa(dp7243
g2
V5/23/96
p7244
sg4
S'../Speeches/JJDS9b/jjd1520.xls'
p7245
sg6
V6-23 MinPhDDegrees
p7246
sa(dp7247
g2
V5/23/96
p7248
sg4
S'../Speeches/JJDS9b/jjd1518.xls'
p7249
sg6
V6-19 MinMADegrees
p7250
sa(dp7251
g2
V5/23/96
p7252
sg4
S'../Speeches/JJDS9b/jjd1517.xls'
p7253
sg6
V6-17 MinUGDegrees
p7254
sa(dp7255
g2
V5/23/96
p7256
sg4
S'../Speeches/JJDS9b/jjd1506.xls'
p7257
sg6
V6-26 AfAm Faculty color
p7258
sa(dp7259
g2
V5/23/96
p7260
sg4
S'../Speeches/JJDS9b/jjd1503.xls'
p7261
sg6
V6-23 MinPhDDegrees color
p7262
sa(dp7263
g2
V5/23/96
p7264
sg4
S'../Speeches/JJDS9b/jjd1504.xls'
p7265
sg6
V6-24 MinGradFellows color
p7266
sa(dp7267
g2
V5/23/96
p7268
sg4
S'../Speeches/JJDS9b/jjd1505.xls'
p7269
sg6
V6-25 MinFaculty color
p7270
sa(dp7271
g2
V5/23/96
p7272
sg4
S'../Speeches/JJDS9b/jjd1507.xls'
p7273
sg6
V6-27 MinSrHires color
p7274
sa(dp7275
g2
V5/23/96
p7276
sg4
S'../Speeches/JJDS9b/jjd1514.xls'
p7277
sg6
V6-1 MinStudents
p7278
sa(dp7279
g2
V5/23/96
p7280
sg4
S'../Speeches/JJDS9b/jjd1516.xls'
p7281
sg6
V6-13 AfAm GradRates
p7282
sa(dp7283
g2
V5/24/96
p7284
sg4
S'../Speeches/JJDS9b/jjd1510.xls'
p7285
sg6
V7-3 WomStudents color
p7286
sa(dp7287
g2
V5/24/96
p7288
sg4
S'../Speeches/JJDS9b/jjd1528.xls'
p7289
sg6
V7-9 WomFaculty
p7290
sa(dp7291
g2
V5/24/96
p7292
sg4
S'../Speeches/JJDS9b/jjd1527.xls'
p7293
sg6
V7-3 WomStudents
p7294
sa(dp7295
g2
V5/24/96
p7296
sg4
S'../Speeches/JJDS9b/jjd1478.xls'
p7297
sg6
V10-3 Approp/FYES color
p7298
sa(dp7299
g2
V5/24/96
p7300
sg4
S'../Speeches/JJDS9b/jjd1477.xls'
p7301
sg6
V10-17 Approp%OpBud color
p7302
sa(dp7303
g2
V5/24/96
p7304
sg4
S'../Speeches/JJDS9b/jjd1476.xls'
p7305
sg6
V10-15 All Funds color
p7306
sa(dp7307
g2
V5/24/96
p7308
sg4
S'../Speeches/JJDS9b/jjd1475.xls'
p7309
sg6
V10-12 ChgMix% color
p7310
sa(dp7311
g2
V5/24/96
p7312
sg4
S'../Speeches/JJDS9b/jjd1474.xls'
p7313
sg6
V10-10 Approp%All Funds color
p7314
sa(dp7315
g2
V5/24/96
p7316
sg4
S'../Speeches/JJDS9b/jjd1479.xls'
p7317
sg6
V10-9 Approp&All Fund$ color
p7318
sa(dp7319
g2
V5/27/96
p7320
sg4
S'../Speeches/JJDS9b/jjd1550.xls'
p7321
sg6
VSports Op-Ed copy
p7322
sa(dp7323
g2
V5/28/96
p7324
sg4
S'../Speeches/JJDS9b/jjd1481.xls'
p7325
sg6
V12-3 Endowed Chairs color
p7326
sa(dp7327
g2
V5/28/96
p7328
sg4
S'../Speeches/JJDS9b/jjd1483.xls'
p7329
sg6
V13-1 Endowment color
p7330
sa(dp7331
g2
V5/28/96
p7332
sg4
S'../Speeches/JJDS9b/jjd1485.xls'
p7333
sg6
V15-1 Intn Students color
p7334
sa(dp7335
g2
V5/28/96
p7336
sg4
S'../Speeches/JJDS9b/jjd1486.xls'
p7337
sg6
V16-1 Royalty Revenue color
p7338
sa(dp7339
g2
V5/28/96
p7340
sg4
S'../Speeches/JJDS9b/jjd1489.xls'
p7341
sg6
V2-13 FinAid Comp color
p7342
sa(dp7343
g2
V5/28/96
p7344
sg4
S'../Speeches/JJDS9b/jjd1490.xls'
p7345
sg6
V2-15 GF FinAid color
p7346
sa(dp7347
g2
V5/28/96
p7348
sg4
S'../Speeches/JJDS9b/jjd1480.xls'
p7349
sg6
V12-2 Private Giving color
p7350
sa(dp7351
g2
V5/29/96
p7352
sg4
S'../Speeches/JJDS9b/jjd1497.xls'
p7353
sg6
V5-1 Research $ color
p7354
sa(dp7355
g2
V5/29/96
p7356
sg4
S'../Speeches/JJDS9b/jjd1513.xls'
p7357
sg6
V5-4 Table Research Rank
p7358
sa(dp7359
g2
V5/29/96
p7360
sg4
S'../Speeches/JJDS9b/jjd1491.xls'
p7361
sg6
V3-10 APPrivates color
p7362
sa(dp7363
g2
V5/29/96
p7364
sg4
S'../Speeches/JJDS9b/jjd1496.xls'
p7365
sg6
V3-9 APPublics color
p7366
sa(dp7367
g2
S'5/29/96'
p7368
sg4
S'../Speeches/JJDS9b/jjd1492.xls'
p7369
sg6
S'3-11 ProfPublics color'
p7370
sa(dp7371
g2
V5/29/96
p7372
sg4
S'../Speeches/JJDS9b/jjd1493.xls'
p7373
sg6
V3-12 ProfPrivate color
p7374
sa(dp7375
g2
V5/30/96
p7376
sg4
S'../Speeches/JJDS9b/jjd1500.xls'
p7377
sg6
V6-17 MinUGDegrees color
p7378
sa(dp7379
g2
V5/30/96
p7380
sg4
S'../Speeches/JJDS9b/jjd1509.xls'
p7381
sg6
V6-7 AfAm Student % color
p7382
sa(dp7383
g2
V5/30/96
p7384
sg4
S'../Speeches/JJDS9b/jjd1508.xls'
p7385
sg6
V6-3 MinStudent % color
p7386
sa(dp7387
g2
V5/30/96
p7388
sg4
S'../Speeches/JJDS9b/jjd1495.xls'
p7389
sg6
V3-8 aPPrivates color
p7390
sa(dp7391
g2
V5/30/96
p7392
sg4
S'../Speeches/JJDS9b/jjd1501.xls'
p7393
sg6
V6-19 MinMADegrees color
p7394
sa(dp7395
g2
V5/30/96
p7396
sg4
S'../Speeches/JJDS9b/jjd1498.xls'
p7397
sg6
V6-1 MinStudents color
p7398
sa(dp7399
g2
V5/30/96
p7400
sg4
S'../Speeches/JJDS9b/jjd1502.xls'
p7401
sg6
V6-21 MinProfDegrees color
p7402
sa(dp7403
g2
V5/30/96
p7404
sg4
S'../Speeches/JJDS9b/jjd1484.xls'
p7405
sg6
V13-2 $Invested color
p7406
sa(dp7407
g2
S'5/31/96'
p7408
sg4
S'../Speeches/JJDS9b/jjd1511.xls'
p7409
sg6
S'7-9 WomFaculty color'
p7410
sa(dp7411
g2
V5/31/96
p7412
sg4
S'../Speeches/JJDS9b/jjd1482.xls'
p7413
sg6
V12-4 Campaign Goals color
p7414
sa(dp7415
g2
V5/31/96
p7416
sg4
S'../Speeches/JJDS9b/jjd1499.xls'
p7417
sg6
V6-13 AfAm GradRates color
p7418
sa(dp7419
g2
V6/4/96
p7420
sg4
S'../Speeches/JJDS9b/jjd1438.pdf'
p7421
sg6
VDecade Report trans 6/18
p7422
sa(dp7423
g2
V6/6/96
p7424
sg4
S'../Speeches/JJDS9b/jjd1429.pdf'
p7425
sg6
VAMD Seminar
p7426
sa(dp7427
g2
S'6/8/96'
p7428
sg4
S'../Speeches/JJDS9b/jjd1544.pdf'
p7429
sg6
S'SAC-2'
p7430
sa(dp7431
g2
g7428
sg4
S'../Speeches/JJDS9b/jjd1543.pdf'
p7432
sg6
S'SAC-1'
p7433
sa(dp7434
g2
V6/12/96
p7435
sg4
S'../Speeches/JJDS9b/jjd1453.pdf'
p7436
sg6
VLeadership Ann Arbor
p7437
sa(dp7438
g2
V6/12/96
p7439
sg4
S'../Speeches/JJDS9b/jjd1452.pdf'
p7440
sg6
VLast Letter
p7441
sa(dp7442
g2
V6/13/96
p7443
sg4
S'../Speeches/JJDS9b/jjd1456.pdf'
p7444
sg6
VLetter-final internal
p7445
sa(dp7446
g2
V6/20/96
p7447
sg4
S'../Speeches/JJDS9b/jjd1445.pdf'
p7448
sg6
VFinal Comments
p7449
sa(dp7450
g2
V6/20/96
p7451
sg4
S'../Speeches/JJDS9b/jjd1541.pdf'
p7452
sg6
VRegents-June-96
p7453
sa(dp7454
g2
V6/21/96
p7455
sg4
S'../Speeches/JJDS9b/jjd1460.pdf'
p7456
sg6
VMedia Union Dedication
p7457
sa(dp7458
g2
V6/28/96
p7459
sg4
S'../Speeches/JJDS9b/jjd1455.pdf'
p7460
sg6
VLetter-final external
p7461
sa(dp7462
g2
V8/28/96
p7463
sg4
S'../Speeches/JJDS9b/jjd1435.pdf'
p7464
sg6
VCoaches Talk
p7465
sa(dp7466
g2
V9/4/96
p7467
sg4
S'../Speeches/JJDS9b/jjd1536.pdf'
p7468
sg6
VPublic Research University
p7469
sa(dp7470
g2
V11/14/96
p7471
sg4
S'../Speeches/JJDS9b/jjd1563.pdf'
p7472
sg6
VWord Work File D 2030
p7473
sa.